
DroneDADApplication.elf:     file format elf32-littlearm

Sections:
Idx Name          Size      VMA       LMA       File off  Algn
  0 .text         0000be98  00002000  00002000  00002000  2**2
                  CONTENTS, ALLOC, LOAD, READONLY, CODE
  1 .relocate     000001fc  20000000  0000de98  00010000  2**2
                  CONTENTS, ALLOC, LOAD, DATA
  2 .bss          00001860  200001fc  0000e094  000101fc  2**2
                  ALLOC
  3 .stack        00002004  20001a5c  0000f8f4  000101fc  2**0
                  ALLOC
  4 .ARM.attributes 00000028  00000000  00000000  000101fc  2**0
                  CONTENTS, READONLY
  5 .comment      00000059  00000000  00000000  00010224  2**0
                  CONTENTS, READONLY
  6 .debug_frame  00000e28  00000000  00000000  00010280  2**2
                  CONTENTS, READONLY, DEBUGGING

Disassembly of section .text:

00002000 <exception_table>:
    2000:	60 3a 00 20 81 78 00 00 7d 78 00 00 7d 78 00 00     `:. .x..}x..}x..
	...
    202c:	7d 78 00 00 00 00 00 00 00 00 00 00 7d 78 00 00     }x..........}x..
    203c:	7d 78 00 00 7d 78 00 00 7d 78 00 00 7d 78 00 00     }x..}x..}x..}x..
    204c:	35 52 00 00 dd 50 00 00 7d 78 00 00 7d 78 00 00     5R...P..}x..}x..
    205c:	7d 78 00 00 7d 78 00 00 8d 66 00 00 9d 66 00 00     }x..}x...f...f..
    206c:	ad 66 00 00 bd 66 00 00 cd 66 00 00 dd 66 00 00     .f...f...f...f..
    207c:	d9 5c 00 00 e9 5c 00 00 f9 5c 00 00 7d 78 00 00     .\...\...\..}x..
    208c:	7d 78 00 00 7d 78 00 00 00 00 00 00 00 00 00 00     }x..}x..........
    209c:	7d 78 00 00 7d 78 00 00 7d 78 00 00 7d 78 00 00     }x..}x..}x..}x..
    20ac:	7d 78 00 00 00 00 00 00                             }x......

000020b4 <__do_global_dtors_aux>:
    20b4:	b510      	push	{r4, lr}
    20b6:	4c06      	ldr	r4, [pc, #24]	; (20d0 <__do_global_dtors_aux+0x1c>)
    20b8:	7823      	ldrb	r3, [r4, #0]
    20ba:	2b00      	cmp	r3, #0
    20bc:	d107      	bne.n	20ce <__do_global_dtors_aux+0x1a>
    20be:	4b05      	ldr	r3, [pc, #20]	; (20d4 <__do_global_dtors_aux+0x20>)
    20c0:	2b00      	cmp	r3, #0
    20c2:	d002      	beq.n	20ca <__do_global_dtors_aux+0x16>
    20c4:	4804      	ldr	r0, [pc, #16]	; (20d8 <__do_global_dtors_aux+0x24>)
    20c6:	e000      	b.n	20ca <__do_global_dtors_aux+0x16>
    20c8:	bf00      	nop
    20ca:	2301      	movs	r3, #1
    20cc:	7023      	strb	r3, [r4, #0]
    20ce:	bd10      	pop	{r4, pc}
    20d0:	200001fc 	.word	0x200001fc
    20d4:	00000000 	.word	0x00000000
    20d8:	0000de98 	.word	0x0000de98

000020dc <frame_dummy>:
    20dc:	4b08      	ldr	r3, [pc, #32]	; (2100 <frame_dummy+0x24>)
    20de:	b510      	push	{r4, lr}
    20e0:	2b00      	cmp	r3, #0
    20e2:	d003      	beq.n	20ec <frame_dummy+0x10>
    20e4:	4907      	ldr	r1, [pc, #28]	; (2104 <frame_dummy+0x28>)
    20e6:	4808      	ldr	r0, [pc, #32]	; (2108 <frame_dummy+0x2c>)
    20e8:	e000      	b.n	20ec <frame_dummy+0x10>
    20ea:	bf00      	nop
    20ec:	4807      	ldr	r0, [pc, #28]	; (210c <frame_dummy+0x30>)
    20ee:	6803      	ldr	r3, [r0, #0]
    20f0:	2b00      	cmp	r3, #0
    20f2:	d100      	bne.n	20f6 <frame_dummy+0x1a>
    20f4:	bd10      	pop	{r4, pc}
    20f6:	4b06      	ldr	r3, [pc, #24]	; (2110 <frame_dummy+0x34>)
    20f8:	2b00      	cmp	r3, #0
    20fa:	d0fb      	beq.n	20f4 <frame_dummy+0x18>
    20fc:	4798      	blx	r3
    20fe:	e7f9      	b.n	20f4 <frame_dummy+0x18>
    2100:	00000000 	.word	0x00000000
    2104:	20000200 	.word	0x20000200
    2108:	0000de98 	.word	0x0000de98
    210c:	0000de98 	.word	0x0000de98
    2110:	00000000 	.word	0x00000000

00002114 <port_pin_set_output_level>:
    2114:	2200      	movs	r2, #0
    2116:	b510      	push	{r4, lr}
    2118:	0943      	lsrs	r3, r0, #5
    211a:	09c4      	lsrs	r4, r0, #7
    211c:	4294      	cmp	r4, r2
    211e:	d102      	bne.n	2126 <port_pin_set_output_level+0x12>
    2120:	01da      	lsls	r2, r3, #7
    2122:	4b06      	ldr	r3, [pc, #24]	; (213c <port_pin_set_output_level+0x28>)
    2124:	18d2      	adds	r2, r2, r3
    2126:	231f      	movs	r3, #31
    2128:	4018      	ands	r0, r3
    212a:	3b1e      	subs	r3, #30
    212c:	4083      	lsls	r3, r0
    212e:	2900      	cmp	r1, #0
    2130:	d001      	beq.n	2136 <port_pin_set_output_level+0x22>
    2132:	6193      	str	r3, [r2, #24]
    2134:	bd10      	pop	{r4, pc}
    2136:	6153      	str	r3, [r2, #20]
    2138:	e7fc      	b.n	2134 <port_pin_set_output_level+0x20>
    213a:	46c0      	nop			; (mov r8, r8)
    213c:	41004400 	.word	0x41004400

00002140 <spi_read>:
    2140:	b530      	push	{r4, r5, lr}
    2142:	2404      	movs	r4, #4
    2144:	6803      	ldr	r3, [r0, #0]
    2146:	2210      	movs	r2, #16
    2148:	7e1d      	ldrb	r5, [r3, #24]
    214a:	4225      	tst	r5, r4
    214c:	d00c      	beq.n	2168 <spi_read+0x28>
    214e:	8b5d      	ldrh	r5, [r3, #26]
    2150:	2200      	movs	r2, #0
    2152:	4225      	tst	r5, r4
    2154:	d001      	beq.n	215a <spi_read+0x1a>
    2156:	835c      	strh	r4, [r3, #26]
    2158:	321e      	adds	r2, #30
    215a:	7980      	ldrb	r0, [r0, #6]
    215c:	6a9b      	ldr	r3, [r3, #40]	; 0x28
    215e:	2801      	cmp	r0, #1
    2160:	d104      	bne.n	216c <spi_read+0x2c>
    2162:	05db      	lsls	r3, r3, #23
    2164:	0ddb      	lsrs	r3, r3, #23
    2166:	800b      	strh	r3, [r1, #0]
    2168:	0010      	movs	r0, r2
    216a:	bd30      	pop	{r4, r5, pc}
    216c:	b2db      	uxtb	r3, r3
    216e:	e7fa      	b.n	2166 <spi_read+0x26>

00002170 <spi_lock>:
    2170:	b570      	push	{r4, r5, r6, lr}
    2172:	0005      	movs	r5, r0
    2174:	4b06      	ldr	r3, [pc, #24]	; (2190 <spi_lock+0x20>)
    2176:	4798      	blx	r3
    2178:	792b      	ldrb	r3, [r5, #4]
    217a:	2405      	movs	r4, #5
    217c:	b2db      	uxtb	r3, r3
    217e:	2b00      	cmp	r3, #0
    2180:	d102      	bne.n	2188 <spi_lock+0x18>
    2182:	2201      	movs	r2, #1
    2184:	001c      	movs	r4, r3
    2186:	712a      	strb	r2, [r5, #4]
    2188:	4b02      	ldr	r3, [pc, #8]	; (2194 <spi_lock+0x24>)
    218a:	4798      	blx	r3
    218c:	0020      	movs	r0, r4
    218e:	bd70      	pop	{r4, r5, r6, pc}
    2190:	000062c5 	.word	0x000062c5
    2194:	000062f9 	.word	0x000062f9

00002198 <_at25dfx_chip_get_nonbusy_status>:
    2198:	b5f7      	push	{r0, r1, r2, r4, r5, r6, r7, lr}
    219a:	466b      	mov	r3, sp
    219c:	1d9d      	adds	r5, r3, #6
    219e:	2300      	movs	r3, #0
    21a0:	0004      	movs	r4, r0
    21a2:	2601      	movs	r6, #1
    21a4:	802b      	strh	r3, [r5, #0]
    21a6:	6803      	ldr	r3, [r0, #0]
    21a8:	681a      	ldr	r2, [r3, #0]
    21aa:	7e13      	ldrb	r3, [r2, #24]
    21ac:	4233      	tst	r3, r6
    21ae:	d0fc      	beq.n	21aa <_at25dfx_chip_get_nonbusy_status+0x12>
    21b0:	4b19      	ldr	r3, [pc, #100]	; (2218 <_at25dfx_chip_get_nonbusy_status+0x80>)
    21b2:	7960      	ldrb	r0, [r4, #5]
    21b4:	2100      	movs	r1, #0
    21b6:	4798      	blx	r3
    21b8:	6823      	ldr	r3, [r4, #0]
    21ba:	681b      	ldr	r3, [r3, #0]
    21bc:	7e1a      	ldrb	r2, [r3, #24]
    21be:	4232      	tst	r2, r6
    21c0:	d001      	beq.n	21c6 <_at25dfx_chip_get_nonbusy_status+0x2e>
    21c2:	2205      	movs	r2, #5
    21c4:	629a      	str	r2, [r3, #40]	; 0x28
    21c6:	2304      	movs	r3, #4
    21c8:	6820      	ldr	r0, [r4, #0]
    21ca:	6801      	ldr	r1, [r0, #0]
    21cc:	7e0a      	ldrb	r2, [r1, #24]
    21ce:	421a      	tst	r2, r3
    21d0:	d0fc      	beq.n	21cc <_at25dfx_chip_get_nonbusy_status+0x34>
    21d2:	0029      	movs	r1, r5
    21d4:	4f11      	ldr	r7, [pc, #68]	; (221c <_at25dfx_chip_get_nonbusy_status+0x84>)
    21d6:	47b8      	blx	r7
    21d8:	2601      	movs	r6, #1
    21da:	6823      	ldr	r3, [r4, #0]
    21dc:	681b      	ldr	r3, [r3, #0]
    21de:	7e1a      	ldrb	r2, [r3, #24]
    21e0:	4232      	tst	r2, r6
    21e2:	d0fc      	beq.n	21de <_at25dfx_chip_get_nonbusy_status+0x46>
    21e4:	7e1a      	ldrb	r2, [r3, #24]
    21e6:	4232      	tst	r2, r6
    21e8:	d001      	beq.n	21ee <_at25dfx_chip_get_nonbusy_status+0x56>
    21ea:	2200      	movs	r2, #0
    21ec:	629a      	str	r2, [r3, #40]	; 0x28
    21ee:	6820      	ldr	r0, [r4, #0]
    21f0:	6802      	ldr	r2, [r0, #0]
    21f2:	2104      	movs	r1, #4
    21f4:	7e13      	ldrb	r3, [r2, #24]
    21f6:	420b      	tst	r3, r1
    21f8:	d0fb      	beq.n	21f2 <_at25dfx_chip_get_nonbusy_status+0x5a>
    21fa:	0029      	movs	r1, r5
    21fc:	47b8      	blx	r7
    21fe:	882b      	ldrh	r3, [r5, #0]
    2200:	4233      	tst	r3, r6
    2202:	d1ea      	bne.n	21da <_at25dfx_chip_get_nonbusy_status+0x42>
    2204:	7960      	ldrb	r0, [r4, #5]
    2206:	2101      	movs	r1, #1
    2208:	4b03      	ldr	r3, [pc, #12]	; (2218 <_at25dfx_chip_get_nonbusy_status+0x80>)
    220a:	4798      	blx	r3
    220c:	8828      	ldrh	r0, [r5, #0]
    220e:	0680      	lsls	r0, r0, #26
    2210:	0fc0      	lsrs	r0, r0, #31
    2212:	0100      	lsls	r0, r0, #4
    2214:	bdfe      	pop	{r1, r2, r3, r4, r5, r6, r7, pc}
    2216:	46c0      	nop			; (mov r8, r8)
    2218:	00002115 	.word	0x00002115
    221c:	00002141 	.word	0x00002141

00002220 <_at25dfx_chip_issue_write_command_wait.isra.2>:
    2220:	b5f0      	push	{r4, r5, r6, r7, lr}
    2222:	b085      	sub	sp, #20
    2224:	0015      	movs	r5, r2
    2226:	aa0a      	add	r2, sp, #40	; 0x28
    2228:	0004      	movs	r4, r0
    222a:	ca01      	ldmia	r2!, {r0}
    222c:	8816      	ldrh	r6, [r2, #0]
    222e:	aa02      	add	r2, sp, #8
    2230:	9001      	str	r0, [sp, #4]
    2232:	7011      	strb	r1, [r2, #0]
    2234:	2d01      	cmp	r5, #1
    2236:	d905      	bls.n	2244 <_at25dfx_chip_issue_write_command_wait.isra.2+0x24>
    2238:	70d3      	strb	r3, [r2, #3]
    223a:	a902      	add	r1, sp, #8
    223c:	0a1a      	lsrs	r2, r3, #8
    223e:	0c1b      	lsrs	r3, r3, #16
    2240:	708a      	strb	r2, [r1, #2]
    2242:	704b      	strb	r3, [r1, #1]
    2244:	7960      	ldrb	r0, [r4, #5]
    2246:	2100      	movs	r1, #0
    2248:	4f08      	ldr	r7, [pc, #32]	; (226c <_at25dfx_chip_issue_write_command_wait.isra.2+0x4c>)
    224a:	47b8      	blx	r7
    224c:	b2aa      	uxth	r2, r5
    224e:	a902      	add	r1, sp, #8
    2250:	6820      	ldr	r0, [r4, #0]
    2252:	4d07      	ldr	r5, [pc, #28]	; (2270 <_at25dfx_chip_issue_write_command_wait.isra.2+0x50>)
    2254:	47a8      	blx	r5
    2256:	2e00      	cmp	r6, #0
    2258:	d003      	beq.n	2262 <_at25dfx_chip_issue_write_command_wait.isra.2+0x42>
    225a:	0032      	movs	r2, r6
    225c:	9901      	ldr	r1, [sp, #4]
    225e:	6820      	ldr	r0, [r4, #0]
    2260:	47a8      	blx	r5
    2262:	7960      	ldrb	r0, [r4, #5]
    2264:	2101      	movs	r1, #1
    2266:	47b8      	blx	r7
    2268:	b005      	add	sp, #20
    226a:	bdf0      	pop	{r4, r5, r6, r7, pc}
    226c:	00002115 	.word	0x00002115
    2270:	00006a31 	.word	0x00006a31

00002274 <_at25dfx_chip_enable_write>:
    2274:	2300      	movs	r3, #0
    2276:	b513      	push	{r0, r1, r4, lr}
    2278:	2201      	movs	r2, #1
    227a:	9301      	str	r3, [sp, #4]
    227c:	9300      	str	r3, [sp, #0]
    227e:	2106      	movs	r1, #6
    2280:	4c01      	ldr	r4, [pc, #4]	; (2288 <_at25dfx_chip_enable_write+0x14>)
    2282:	47a0      	blx	r4
    2284:	bd13      	pop	{r0, r1, r4, pc}
    2286:	46c0      	nop			; (mov r8, r8)
    2288:	00002221 	.word	0x00002221

0000228c <_at25dfx_chip_issue_read_command_wait.isra.3>:
    228c:	b5f0      	push	{r4, r5, r6, r7, lr}
    228e:	b085      	sub	sp, #20
    2290:	0015      	movs	r5, r2
    2292:	aa0a      	add	r2, sp, #40	; 0x28
    2294:	0004      	movs	r4, r0
    2296:	ca01      	ldmia	r2!, {r0}
    2298:	8816      	ldrh	r6, [r2, #0]
    229a:	aa02      	add	r2, sp, #8
    229c:	9001      	str	r0, [sp, #4]
    229e:	7011      	strb	r1, [r2, #0]
    22a0:	2d01      	cmp	r5, #1
    22a2:	d905      	bls.n	22b0 <_at25dfx_chip_issue_read_command_wait.isra.3+0x24>
    22a4:	70d3      	strb	r3, [r2, #3]
    22a6:	a902      	add	r1, sp, #8
    22a8:	0a1a      	lsrs	r2, r3, #8
    22aa:	0c1b      	lsrs	r3, r3, #16
    22ac:	708a      	strb	r2, [r1, #2]
    22ae:	704b      	strb	r3, [r1, #1]
    22b0:	7960      	ldrb	r0, [r4, #5]
    22b2:	2100      	movs	r1, #0
    22b4:	4f09      	ldr	r7, [pc, #36]	; (22dc <_at25dfx_chip_issue_read_command_wait.isra.3+0x50>)
    22b6:	47b8      	blx	r7
    22b8:	b2aa      	uxth	r2, r5
    22ba:	a902      	add	r1, sp, #8
    22bc:	6820      	ldr	r0, [r4, #0]
    22be:	4b08      	ldr	r3, [pc, #32]	; (22e0 <_at25dfx_chip_issue_read_command_wait.isra.3+0x54>)
    22c0:	4798      	blx	r3
    22c2:	2e00      	cmp	r6, #0
    22c4:	d005      	beq.n	22d2 <_at25dfx_chip_issue_read_command_wait.isra.3+0x46>
    22c6:	2300      	movs	r3, #0
    22c8:	0032      	movs	r2, r6
    22ca:	9901      	ldr	r1, [sp, #4]
    22cc:	6820      	ldr	r0, [r4, #0]
    22ce:	4d05      	ldr	r5, [pc, #20]	; (22e4 <_at25dfx_chip_issue_read_command_wait.isra.3+0x58>)
    22d0:	47a8      	blx	r5
    22d2:	7960      	ldrb	r0, [r4, #5]
    22d4:	2101      	movs	r1, #1
    22d6:	47b8      	blx	r7
    22d8:	b005      	add	sp, #20
    22da:	bdf0      	pop	{r4, r5, r6, r7, pc}
    22dc:	00002115 	.word	0x00002115
    22e0:	00006a31 	.word	0x00006a31
    22e4:	00006925 	.word	0x00006925

000022e8 <at25dfx_chip_read_buffer>:
    22e8:	b5f7      	push	{r0, r1, r2, r4, r5, r6, r7, lr}
    22ea:	000d      	movs	r5, r1
    22ec:	001e      	movs	r6, r3
    22ee:	1859      	adds	r1, r3, r1
    22f0:	7903      	ldrb	r3, [r0, #4]
    22f2:	0017      	movs	r7, r2
    22f4:	0004      	movs	r4, r0
    22f6:	2200      	movs	r2, #0
    22f8:	2b09      	cmp	r3, #9
    22fa:	d802      	bhi.n	2302 <at25dfx_chip_read_buffer+0x1a>
    22fc:	4a0b      	ldr	r2, [pc, #44]	; (232c <at25dfx_chip_read_buffer+0x44>)
    22fe:	009b      	lsls	r3, r3, #2
    2300:	589a      	ldr	r2, [r3, r2]
    2302:	2017      	movs	r0, #23
    2304:	4291      	cmp	r1, r2
    2306:	d80f      	bhi.n	2328 <at25dfx_chip_read_buffer+0x40>
    2308:	6820      	ldr	r0, [r4, #0]
    230a:	4b09      	ldr	r3, [pc, #36]	; (2330 <at25dfx_chip_read_buffer+0x48>)
    230c:	4798      	blx	r3
    230e:	2805      	cmp	r0, #5
    2310:	d00a      	beq.n	2328 <at25dfx_chip_read_buffer+0x40>
    2312:	002b      	movs	r3, r5
    2314:	0020      	movs	r0, r4
    2316:	9601      	str	r6, [sp, #4]
    2318:	9700      	str	r7, [sp, #0]
    231a:	2205      	movs	r2, #5
    231c:	210b      	movs	r1, #11
    231e:	4d05      	ldr	r5, [pc, #20]	; (2334 <at25dfx_chip_read_buffer+0x4c>)
    2320:	47a8      	blx	r5
    2322:	2000      	movs	r0, #0
    2324:	6823      	ldr	r3, [r4, #0]
    2326:	7118      	strb	r0, [r3, #4]
    2328:	bdfe      	pop	{r1, r2, r3, r4, r5, r6, r7, pc}
    232a:	46c0      	nop			; (mov r8, r8)
    232c:	0000c8f8 	.word	0x0000c8f8
    2330:	00002171 	.word	0x00002171
    2334:	0000228d 	.word	0x0000228d

00002338 <at25dfx_chip_write_buffer>:
    2338:	b5f0      	push	{r4, r5, r6, r7, lr}
    233a:	001d      	movs	r5, r3
    233c:	b085      	sub	sp, #20
    233e:	9102      	str	r1, [sp, #8]
    2340:	9203      	str	r2, [sp, #12]
    2342:	7903      	ldrb	r3, [r0, #4]
    2344:	0004      	movs	r4, r0
    2346:	1869      	adds	r1, r5, r1
    2348:	2200      	movs	r2, #0
    234a:	2b09      	cmp	r3, #9
    234c:	d802      	bhi.n	2354 <at25dfx_chip_write_buffer+0x1c>
    234e:	4a28      	ldr	r2, [pc, #160]	; (23f0 <at25dfx_chip_write_buffer+0xb8>)
    2350:	009b      	lsls	r3, r3, #2
    2352:	589a      	ldr	r2, [r3, r2]
    2354:	2017      	movs	r0, #23
    2356:	4291      	cmp	r1, r2
    2358:	d825      	bhi.n	23a6 <at25dfx_chip_write_buffer+0x6e>
    235a:	6820      	ldr	r0, [r4, #0]
    235c:	4b25      	ldr	r3, [pc, #148]	; (23f4 <at25dfx_chip_write_buffer+0xbc>)
    235e:	4798      	blx	r3
    2360:	2805      	cmp	r0, #5
    2362:	d020      	beq.n	23a6 <at25dfx_chip_write_buffer+0x6e>
    2364:	4b24      	ldr	r3, [pc, #144]	; (23f8 <at25dfx_chip_write_buffer+0xc0>)
    2366:	0020      	movs	r0, r4
    2368:	4798      	blx	r3
    236a:	466b      	mov	r3, sp
    236c:	7a1a      	ldrb	r2, [r3, #8]
    236e:	2380      	movs	r3, #128	; 0x80
    2370:	005b      	lsls	r3, r3, #1
    2372:	1a9b      	subs	r3, r3, r2
    2374:	1c1e      	adds	r6, r3, #0
    2376:	b29b      	uxth	r3, r3
    2378:	42ab      	cmp	r3, r5
    237a:	d900      	bls.n	237e <at25dfx_chip_write_buffer+0x46>
    237c:	1c2e      	adds	r6, r5, #0
    237e:	9b03      	ldr	r3, [sp, #12]
    2380:	b2b6      	uxth	r6, r6
    2382:	9300      	str	r3, [sp, #0]
    2384:	2204      	movs	r2, #4
    2386:	9b02      	ldr	r3, [sp, #8]
    2388:	2102      	movs	r1, #2
    238a:	0020      	movs	r0, r4
    238c:	4f1b      	ldr	r7, [pc, #108]	; (23fc <at25dfx_chip_write_buffer+0xc4>)
    238e:	9601      	str	r6, [sp, #4]
    2390:	47b8      	blx	r7
    2392:	0020      	movs	r0, r4
    2394:	4b1a      	ldr	r3, [pc, #104]	; (2400 <at25dfx_chip_write_buffer+0xc8>)
    2396:	4798      	blx	r3
    2398:	1bad      	subs	r5, r5, r6
    239a:	b2af      	uxth	r7, r5
    239c:	2f00      	cmp	r7, #0
    239e:	d104      	bne.n	23aa <at25dfx_chip_write_buffer+0x72>
    23a0:	2200      	movs	r2, #0
    23a2:	6823      	ldr	r3, [r4, #0]
    23a4:	711a      	strb	r2, [r3, #4]
    23a6:	b005      	add	sp, #20
    23a8:	bdf0      	pop	{r4, r5, r6, r7, pc}
    23aa:	2800      	cmp	r0, #0
    23ac:	d1f8      	bne.n	23a0 <at25dfx_chip_write_buffer+0x68>
    23ae:	4b12      	ldr	r3, [pc, #72]	; (23f8 <at25dfx_chip_write_buffer+0xc0>)
    23b0:	0020      	movs	r0, r4
    23b2:	4798      	blx	r3
    23b4:	9b02      	ldr	r3, [sp, #8]
    23b6:	199b      	adds	r3, r3, r6
    23b8:	9302      	str	r3, [sp, #8]
    23ba:	9b03      	ldr	r3, [sp, #12]
    23bc:	199b      	adds	r3, r3, r6
    23be:	9303      	str	r3, [sp, #12]
    23c0:	2380      	movs	r3, #128	; 0x80
    23c2:	1c3e      	adds	r6, r7, #0
    23c4:	005b      	lsls	r3, r3, #1
    23c6:	429f      	cmp	r7, r3
    23c8:	d901      	bls.n	23ce <at25dfx_chip_write_buffer+0x96>
    23ca:	4b0e      	ldr	r3, [pc, #56]	; (2404 <at25dfx_chip_write_buffer+0xcc>)
    23cc:	881e      	ldrh	r6, [r3, #0]
    23ce:	9b03      	ldr	r3, [sp, #12]
    23d0:	b2b6      	uxth	r6, r6
    23d2:	9300      	str	r3, [sp, #0]
    23d4:	2204      	movs	r2, #4
    23d6:	9b02      	ldr	r3, [sp, #8]
    23d8:	2102      	movs	r1, #2
    23da:	0020      	movs	r0, r4
    23dc:	9601      	str	r6, [sp, #4]
    23de:	4d07      	ldr	r5, [pc, #28]	; (23fc <at25dfx_chip_write_buffer+0xc4>)
    23e0:	47a8      	blx	r5
    23e2:	1bbf      	subs	r7, r7, r6
    23e4:	0020      	movs	r0, r4
    23e6:	4b06      	ldr	r3, [pc, #24]	; (2400 <at25dfx_chip_write_buffer+0xc8>)
    23e8:	4798      	blx	r3
    23ea:	b2bf      	uxth	r7, r7
    23ec:	e7d6      	b.n	239c <at25dfx_chip_write_buffer+0x64>
    23ee:	46c0      	nop			; (mov r8, r8)
    23f0:	0000c8f8 	.word	0x0000c8f8
    23f4:	00002171 	.word	0x00002171
    23f8:	00002275 	.word	0x00002275
    23fc:	00002221 	.word	0x00002221
    2400:	00002199 	.word	0x00002199
    2404:	0000c8f4 	.word	0x0000c8f4

00002408 <at25dfx_chip_erase_block>:
    2408:	b5f7      	push	{r0, r1, r2, r4, r5, r6, r7, lr}
    240a:	7903      	ldrb	r3, [r0, #4]
    240c:	0004      	movs	r4, r0
    240e:	000e      	movs	r6, r1
    2410:	0017      	movs	r7, r2
    2412:	2017      	movs	r0, #23
    2414:	2b09      	cmp	r3, #9
    2416:	d81e      	bhi.n	2456 <at25dfx_chip_erase_block+0x4e>
    2418:	4a0f      	ldr	r2, [pc, #60]	; (2458 <at25dfx_chip_erase_block+0x50>)
    241a:	009b      	lsls	r3, r3, #2
    241c:	589b      	ldr	r3, [r3, r2]
    241e:	4299      	cmp	r1, r3
    2420:	d219      	bcs.n	2456 <at25dfx_chip_erase_block+0x4e>
    2422:	6820      	ldr	r0, [r4, #0]
    2424:	4b0d      	ldr	r3, [pc, #52]	; (245c <at25dfx_chip_erase_block+0x54>)
    2426:	4798      	blx	r3
    2428:	2805      	cmp	r0, #5
    242a:	d014      	beq.n	2456 <at25dfx_chip_erase_block+0x4e>
    242c:	2500      	movs	r5, #0
    242e:	0020      	movs	r0, r4
    2430:	4b0b      	ldr	r3, [pc, #44]	; (2460 <at25dfx_chip_erase_block+0x58>)
    2432:	4798      	blx	r3
    2434:	0029      	movs	r1, r5
    2436:	2f02      	cmp	r7, #2
    2438:	d801      	bhi.n	243e <at25dfx_chip_erase_block+0x36>
    243a:	4b0a      	ldr	r3, [pc, #40]	; (2464 <at25dfx_chip_erase_block+0x5c>)
    243c:	5dd9      	ldrb	r1, [r3, r7]
    243e:	0033      	movs	r3, r6
    2440:	2204      	movs	r2, #4
    2442:	0020      	movs	r0, r4
    2444:	9501      	str	r5, [sp, #4]
    2446:	9500      	str	r5, [sp, #0]
    2448:	4e07      	ldr	r6, [pc, #28]	; (2468 <at25dfx_chip_erase_block+0x60>)
    244a:	47b0      	blx	r6
    244c:	4b07      	ldr	r3, [pc, #28]	; (246c <at25dfx_chip_erase_block+0x64>)
    244e:	0020      	movs	r0, r4
    2450:	4798      	blx	r3
    2452:	6823      	ldr	r3, [r4, #0]
    2454:	711d      	strb	r5, [r3, #4]
    2456:	bdfe      	pop	{r1, r2, r3, r4, r5, r6, r7, pc}
    2458:	0000c8f8 	.word	0x0000c8f8
    245c:	00002171 	.word	0x00002171
    2460:	00002275 	.word	0x00002275
    2464:	0000c920 	.word	0x0000c920
    2468:	00002221 	.word	0x00002221
    246c:	00002199 	.word	0x00002199

00002470 <at25dfx_chip_set_global_sector_protect>:
    2470:	b530      	push	{r4, r5, lr}
    2472:	4b10      	ldr	r3, [pc, #64]	; (24b4 <at25dfx_chip_set_global_sector_protect+0x44>)
    2474:	b085      	sub	sp, #20
    2476:	0005      	movs	r5, r0
    2478:	6800      	ldr	r0, [r0, #0]
    247a:	000c      	movs	r4, r1
    247c:	4798      	blx	r3
    247e:	2805      	cmp	r0, #5
    2480:	d015      	beq.n	24ae <at25dfx_chip_set_global_sector_protect+0x3e>
    2482:	0028      	movs	r0, r5
    2484:	4b0c      	ldr	r3, [pc, #48]	; (24b8 <at25dfx_chip_set_global_sector_protect+0x48>)
    2486:	1e62      	subs	r2, r4, #1
    2488:	4194      	sbcs	r4, r2
    248a:	4798      	blx	r3
    248c:	233c      	movs	r3, #60	; 0x3c
    248e:	220f      	movs	r2, #15
    2490:	2101      	movs	r1, #1
    2492:	4264      	negs	r4, r4
    2494:	4023      	ands	r3, r4
    2496:	446a      	add	r2, sp
    2498:	7013      	strb	r3, [r2, #0]
    249a:	0028      	movs	r0, r5
    249c:	9200      	str	r2, [sp, #0]
    249e:	2300      	movs	r3, #0
    24a0:	9101      	str	r1, [sp, #4]
    24a2:	000a      	movs	r2, r1
    24a4:	4c05      	ldr	r4, [pc, #20]	; (24bc <at25dfx_chip_set_global_sector_protect+0x4c>)
    24a6:	47a0      	blx	r4
    24a8:	2000      	movs	r0, #0
    24aa:	682b      	ldr	r3, [r5, #0]
    24ac:	7118      	strb	r0, [r3, #4]
    24ae:	b005      	add	sp, #20
    24b0:	bd30      	pop	{r4, r5, pc}
    24b2:	46c0      	nop			; (mov r8, r8)
    24b4:	00002171 	.word	0x00002171
    24b8:	00002275 	.word	0x00002275
    24bc:	00002221 	.word	0x00002221

000024c0 <at25dfx_chip_set_sector_protect>:
    24c0:	b573      	push	{r0, r1, r4, r5, r6, lr}
    24c2:	7903      	ldrb	r3, [r0, #4]
    24c4:	0005      	movs	r5, r0
    24c6:	000e      	movs	r6, r1
    24c8:	0014      	movs	r4, r2
    24ca:	2017      	movs	r0, #23
    24cc:	2b09      	cmp	r3, #9
    24ce:	d81b      	bhi.n	2508 <at25dfx_chip_set_sector_protect+0x48>
    24d0:	4a0e      	ldr	r2, [pc, #56]	; (250c <at25dfx_chip_set_sector_protect+0x4c>)
    24d2:	009b      	lsls	r3, r3, #2
    24d4:	589b      	ldr	r3, [r3, r2]
    24d6:	4299      	cmp	r1, r3
    24d8:	d216      	bcs.n	2508 <at25dfx_chip_set_sector_protect+0x48>
    24da:	6828      	ldr	r0, [r5, #0]
    24dc:	4b0c      	ldr	r3, [pc, #48]	; (2510 <at25dfx_chip_set_sector_protect+0x50>)
    24de:	4798      	blx	r3
    24e0:	2805      	cmp	r0, #5
    24e2:	d011      	beq.n	2508 <at25dfx_chip_set_sector_protect+0x48>
    24e4:	0028      	movs	r0, r5
    24e6:	4b0b      	ldr	r3, [pc, #44]	; (2514 <at25dfx_chip_set_sector_protect+0x54>)
    24e8:	4798      	blx	r3
    24ea:	2136      	movs	r1, #54	; 0x36
    24ec:	2c00      	cmp	r4, #0
    24ee:	d100      	bne.n	24f2 <at25dfx_chip_set_sector_protect+0x32>
    24f0:	3103      	adds	r1, #3
    24f2:	2400      	movs	r4, #0
    24f4:	0033      	movs	r3, r6
    24f6:	0028      	movs	r0, r5
    24f8:	9401      	str	r4, [sp, #4]
    24fa:	9400      	str	r4, [sp, #0]
    24fc:	2204      	movs	r2, #4
    24fe:	4e06      	ldr	r6, [pc, #24]	; (2518 <at25dfx_chip_set_sector_protect+0x58>)
    2500:	47b0      	blx	r6
    2502:	0020      	movs	r0, r4
    2504:	682b      	ldr	r3, [r5, #0]
    2506:	711c      	strb	r4, [r3, #4]
    2508:	bd76      	pop	{r1, r2, r4, r5, r6, pc}
    250a:	46c0      	nop			; (mov r8, r8)
    250c:	0000c8f8 	.word	0x0000c8f8
    2510:	00002171 	.word	0x00002171
    2514:	00002275 	.word	0x00002275
    2518:	00002221 	.word	0x00002221

0000251c <at25dfx_chip_sleep>:
    251c:	b573      	push	{r0, r1, r4, r5, r6, lr}
    251e:	4b09      	ldr	r3, [pc, #36]	; (2544 <at25dfx_chip_sleep+0x28>)
    2520:	0005      	movs	r5, r0
    2522:	6800      	ldr	r0, [r0, #0]
    2524:	4798      	blx	r3
    2526:	2805      	cmp	r0, #5
    2528:	d00b      	beq.n	2542 <at25dfx_chip_sleep+0x26>
    252a:	2400      	movs	r4, #0
    252c:	0028      	movs	r0, r5
    252e:	0023      	movs	r3, r4
    2530:	9401      	str	r4, [sp, #4]
    2532:	9400      	str	r4, [sp, #0]
    2534:	2201      	movs	r2, #1
    2536:	21b9      	movs	r1, #185	; 0xb9
    2538:	4e03      	ldr	r6, [pc, #12]	; (2548 <at25dfx_chip_sleep+0x2c>)
    253a:	47b0      	blx	r6
    253c:	0020      	movs	r0, r4
    253e:	682b      	ldr	r3, [r5, #0]
    2540:	711c      	strb	r4, [r3, #4]
    2542:	bd76      	pop	{r1, r2, r4, r5, r6, pc}
    2544:	00002171 	.word	0x00002171
    2548:	00002221 	.word	0x00002221

0000254c <at25dfx_chip_wake>:
    254c:	b573      	push	{r0, r1, r4, r5, r6, lr}
    254e:	4b09      	ldr	r3, [pc, #36]	; (2574 <at25dfx_chip_wake+0x28>)
    2550:	0005      	movs	r5, r0
    2552:	6800      	ldr	r0, [r0, #0]
    2554:	4798      	blx	r3
    2556:	2805      	cmp	r0, #5
    2558:	d00b      	beq.n	2572 <at25dfx_chip_wake+0x26>
    255a:	2400      	movs	r4, #0
    255c:	0028      	movs	r0, r5
    255e:	0023      	movs	r3, r4
    2560:	9401      	str	r4, [sp, #4]
    2562:	9400      	str	r4, [sp, #0]
    2564:	2201      	movs	r2, #1
    2566:	21ab      	movs	r1, #171	; 0xab
    2568:	4e03      	ldr	r6, [pc, #12]	; (2578 <at25dfx_chip_wake+0x2c>)
    256a:	47b0      	blx	r6
    256c:	0020      	movs	r0, r4
    256e:	682b      	ldr	r3, [r5, #0]
    2570:	711c      	strb	r4, [r3, #4]
    2572:	bd76      	pop	{r1, r2, r4, r5, r6, pc}
    2574:	00002171 	.word	0x00002171
    2578:	00002221 	.word	0x00002221

0000257c <_crc32_recalculate_bytes_helper>:
    257c:	2301      	movs	r3, #1
    257e:	b510      	push	{r4, lr}
    2580:	4048      	eors	r0, r1
    2582:	4906      	ldr	r1, [pc, #24]	; (259c <_crc32_recalculate_bytes_helper+0x20>)
    2584:	00d2      	lsls	r2, r2, #3
    2586:	2a00      	cmp	r2, #0
    2588:	d100      	bne.n	258c <_crc32_recalculate_bytes_helper+0x10>
    258a:	bd10      	pop	{r4, pc}
    258c:	0004      	movs	r4, r0
    258e:	0840      	lsrs	r0, r0, #1
    2590:	401c      	ands	r4, r3
    2592:	d000      	beq.n	2596 <_crc32_recalculate_bytes_helper+0x1a>
    2594:	4048      	eors	r0, r1
    2596:	3a01      	subs	r2, #1
    2598:	e7f5      	b.n	2586 <_crc32_recalculate_bytes_helper+0xa>
    259a:	46c0      	nop			; (mov r8, r8)
    259c:	edb88320 	.word	0xedb88320

000025a0 <crc32_recalculate>:
    25a0:	b5f7      	push	{r0, r1, r2, r4, r5, r6, r7, lr}
    25a2:	2303      	movs	r3, #3
    25a4:	000c      	movs	r4, r1
    25a6:	0005      	movs	r5, r0
    25a8:	0017      	movs	r7, r2
    25aa:	6812      	ldr	r2, [r2, #0]
    25ac:	439d      	bics	r5, r3
    25ae:	43d1      	mvns	r1, r2
    25b0:	0022      	movs	r2, r4
    25b2:	429c      	cmp	r4, r3
    25b4:	d901      	bls.n	25ba <crc32_recalculate+0x1a>
    25b6:	4242      	negs	r2, r0
    25b8:	401a      	ands	r2, r3
    25ba:	2a00      	cmp	r2, #0
    25bc:	d00a      	beq.n	25d4 <crc32_recalculate+0x34>
    25be:	00d3      	lsls	r3, r2, #3
    25c0:	6828      	ldr	r0, [r5, #0]
    25c2:	425b      	negs	r3, r3
    25c4:	3320      	adds	r3, #32
    25c6:	40d8      	lsrs	r0, r3
    25c8:	4b16      	ldr	r3, [pc, #88]	; (2624 <crc32_recalculate+0x84>)
    25ca:	1aa4      	subs	r4, r4, r2
    25cc:	4798      	blx	r3
    25ce:	1d2e      	adds	r6, r5, #4
    25d0:	0001      	movs	r1, r0
    25d2:	0035      	movs	r5, r6
    25d4:	2303      	movs	r3, #3
    25d6:	0022      	movs	r2, r4
    25d8:	439a      	bics	r2, r3
    25da:	d00b      	beq.n	25f4 <crc32_recalculate+0x54>
    25dc:	002e      	movs	r6, r5
    25de:	1aa3      	subs	r3, r4, r2
    25e0:	08a4      	lsrs	r4, r4, #2
    25e2:	9301      	str	r3, [sp, #4]
    25e4:	9400      	str	r4, [sp, #0]
    25e6:	9b00      	ldr	r3, [sp, #0]
    25e8:	1e5a      	subs	r2, r3, #1
    25ea:	9200      	str	r2, [sp, #0]
    25ec:	d214      	bcs.n	2618 <crc32_recalculate+0x78>
    25ee:	00a4      	lsls	r4, r4, #2
    25f0:	192d      	adds	r5, r5, r4
    25f2:	9c01      	ldr	r4, [sp, #4]
    25f4:	2c00      	cmp	r4, #0
    25f6:	d00b      	beq.n	2610 <crc32_recalculate+0x70>
    25f8:	2201      	movs	r2, #1
    25fa:	00e3      	lsls	r3, r4, #3
    25fc:	425b      	negs	r3, r3
    25fe:	3320      	adds	r3, #32
    2600:	4252      	negs	r2, r2
    2602:	40da      	lsrs	r2, r3
    2604:	6828      	ldr	r0, [r5, #0]
    2606:	4b07      	ldr	r3, [pc, #28]	; (2624 <crc32_recalculate+0x84>)
    2608:	4010      	ands	r0, r2
    260a:	0022      	movs	r2, r4
    260c:	4798      	blx	r3
    260e:	0001      	movs	r1, r0
    2610:	43c9      	mvns	r1, r1
    2612:	2000      	movs	r0, #0
    2614:	6039      	str	r1, [r7, #0]
    2616:	bdfe      	pop	{r1, r2, r3, r4, r5, r6, r7, pc}
    2618:	2204      	movs	r2, #4
    261a:	ce01      	ldmia	r6!, {r0}
    261c:	4b01      	ldr	r3, [pc, #4]	; (2624 <crc32_recalculate+0x84>)
    261e:	4798      	blx	r3
    2620:	0001      	movs	r1, r0
    2622:	e7e0      	b.n	25e6 <crc32_recalculate+0x46>
    2624:	0000257d 	.word	0x0000257d

00002628 <delay_init>:
    2628:	b570      	push	{r4, r5, r6, lr}
    262a:	4b09      	ldr	r3, [pc, #36]	; (2650 <delay_init+0x28>)
    262c:	2000      	movs	r0, #0
    262e:	4798      	blx	r3
    2630:	21fa      	movs	r1, #250	; 0xfa
    2632:	4c08      	ldr	r4, [pc, #32]	; (2654 <delay_init+0x2c>)
    2634:	0089      	lsls	r1, r1, #2
    2636:	0005      	movs	r5, r0
    2638:	47a0      	blx	r4
    263a:	4b07      	ldr	r3, [pc, #28]	; (2658 <delay_init+0x30>)
    263c:	4907      	ldr	r1, [pc, #28]	; (265c <delay_init+0x34>)
    263e:	6018      	str	r0, [r3, #0]
    2640:	0028      	movs	r0, r5
    2642:	47a0      	blx	r4
    2644:	2205      	movs	r2, #5
    2646:	4b06      	ldr	r3, [pc, #24]	; (2660 <delay_init+0x38>)
    2648:	6018      	str	r0, [r3, #0]
    264a:	4b06      	ldr	r3, [pc, #24]	; (2664 <delay_init+0x3c>)
    264c:	601a      	str	r2, [r3, #0]
    264e:	bd70      	pop	{r4, r5, r6, pc}
    2650:	0000763d 	.word	0x0000763d
    2654:	00009539 	.word	0x00009539
    2658:	20000000 	.word	0x20000000
    265c:	000f4240 	.word	0x000f4240
    2660:	20000004 	.word	0x20000004
    2664:	e000e010 	.word	0xe000e010

00002668 <delay_cycles_us>:
    2668:	b530      	push	{r4, r5, lr}
    266a:	2480      	movs	r4, #128	; 0x80
    266c:	2100      	movs	r1, #0
    266e:	4b07      	ldr	r3, [pc, #28]	; (268c <delay_cycles_us+0x24>)
    2670:	0264      	lsls	r4, r4, #9
    2672:	681a      	ldr	r2, [r3, #0]
    2674:	4b06      	ldr	r3, [pc, #24]	; (2690 <delay_cycles_us+0x28>)
    2676:	3801      	subs	r0, #1
    2678:	d200      	bcs.n	267c <delay_cycles_us+0x14>
    267a:	bd30      	pop	{r4, r5, pc}
    267c:	2a00      	cmp	r2, #0
    267e:	d0fa      	beq.n	2676 <delay_cycles_us+0xe>
    2680:	605a      	str	r2, [r3, #4]
    2682:	6099      	str	r1, [r3, #8]
    2684:	681d      	ldr	r5, [r3, #0]
    2686:	4225      	tst	r5, r4
    2688:	d0fc      	beq.n	2684 <delay_cycles_us+0x1c>
    268a:	e7f4      	b.n	2676 <delay_cycles_us+0xe>
    268c:	20000004 	.word	0x20000004
    2690:	e000e010 	.word	0xe000e010

00002694 <delay_cycles_ms>:
    2694:	b530      	push	{r4, r5, lr}
    2696:	2480      	movs	r4, #128	; 0x80
    2698:	2100      	movs	r1, #0
    269a:	4b07      	ldr	r3, [pc, #28]	; (26b8 <delay_cycles_ms+0x24>)
    269c:	0264      	lsls	r4, r4, #9
    269e:	681a      	ldr	r2, [r3, #0]
    26a0:	4b06      	ldr	r3, [pc, #24]	; (26bc <delay_cycles_ms+0x28>)
    26a2:	3801      	subs	r0, #1
    26a4:	d200      	bcs.n	26a8 <delay_cycles_ms+0x14>
    26a6:	bd30      	pop	{r4, r5, pc}
    26a8:	2a00      	cmp	r2, #0
    26aa:	d0fa      	beq.n	26a2 <delay_cycles_ms+0xe>
    26ac:	605a      	str	r2, [r3, #4]
    26ae:	6099      	str	r1, [r3, #8]
    26b0:	681d      	ldr	r5, [r3, #0]
    26b2:	4225      	tst	r5, r4
    26b4:	d0fc      	beq.n	26b0 <delay_cycles_ms+0x1c>
    26b6:	e7f4      	b.n	26a2 <delay_cycles_ms+0xe>
    26b8:	20000000 	.word	0x20000000
    26bc:	e000e010 	.word	0xe000e010

000026c0 <chip_isr>:
    26c0:	b510      	push	{r4, lr}
    26c2:	4b03      	ldr	r3, [pc, #12]	; (26d0 <chip_isr+0x10>)
    26c4:	681b      	ldr	r3, [r3, #0]
    26c6:	2b00      	cmp	r3, #0
    26c8:	d000      	beq.n	26cc <chip_isr+0xc>
    26ca:	4798      	blx	r3
    26cc:	bd10      	pop	{r4, pc}
    26ce:	46c0      	nop			; (mov r8, r8)
    26d0:	20000218 	.word	0x20000218

000026d4 <nm_bsp_sleep>:
    26d4:	b510      	push	{r4, lr}
    26d6:	0004      	movs	r4, r0
    26d8:	2c00      	cmp	r4, #0
    26da:	d100      	bne.n	26de <nm_bsp_sleep+0xa>
    26dc:	bd10      	pop	{r4, pc}
    26de:	2001      	movs	r0, #1
    26e0:	4b01      	ldr	r3, [pc, #4]	; (26e8 <nm_bsp_sleep+0x14>)
    26e2:	4798      	blx	r3
    26e4:	3c01      	subs	r4, #1
    26e6:	e7f7      	b.n	26d8 <nm_bsp_sleep+0x4>
    26e8:	00002695 	.word	0x00002695

000026ec <nm_bsp_reset>:
    26ec:	b5f8      	push	{r3, r4, r5, r6, r7, lr}
    26ee:	2780      	movs	r7, #128	; 0x80
    26f0:	2580      	movs	r5, #128	; 0x80
    26f2:	4c06      	ldr	r4, [pc, #24]	; (270c <nm_bsp_reset+0x20>)
    26f4:	057f      	lsls	r7, r7, #21
    26f6:	052d      	lsls	r5, r5, #20
    26f8:	6167      	str	r7, [r4, #20]
    26fa:	4e05      	ldr	r6, [pc, #20]	; (2710 <nm_bsp_reset+0x24>)
    26fc:	6165      	str	r5, [r4, #20]
    26fe:	2001      	movs	r0, #1
    2700:	47b0      	blx	r6
    2702:	61a7      	str	r7, [r4, #24]
    2704:	200a      	movs	r0, #10
    2706:	47b0      	blx	r6
    2708:	61a5      	str	r5, [r4, #24]
    270a:	bdf8      	pop	{r3, r4, r5, r6, r7, pc}
    270c:	41004400 	.word	0x41004400
    2710:	000026d5 	.word	0x000026d5

00002714 <nm_bsp_init>:
    2714:	b573      	push	{r0, r1, r4, r5, r6, lr}
    2716:	2300      	movs	r3, #0
    2718:	2501      	movs	r5, #1
    271a:	ac01      	add	r4, sp, #4
    271c:	4a14      	ldr	r2, [pc, #80]	; (2770 <nm_bsp_init+0x5c>)
    271e:	4e15      	ldr	r6, [pc, #84]	; (2774 <nm_bsp_init+0x60>)
    2720:	0021      	movs	r1, r4
    2722:	201b      	movs	r0, #27
    2724:	6013      	str	r3, [r2, #0]
    2726:	70a3      	strb	r3, [r4, #2]
    2728:	7065      	strb	r5, [r4, #1]
    272a:	7025      	strb	r5, [r4, #0]
    272c:	47b0      	blx	r6
    272e:	0021      	movs	r1, r4
    2730:	201c      	movs	r0, #28
    2732:	47b0      	blx	r6
    2734:	0021      	movs	r1, r4
    2736:	2028      	movs	r0, #40	; 0x28
    2738:	47b0      	blx	r6
    273a:	2280      	movs	r2, #128	; 0x80
    273c:	4b0e      	ldr	r3, [pc, #56]	; (2778 <nm_bsp_init+0x64>)
    273e:	0552      	lsls	r2, r2, #21
    2740:	615a      	str	r2, [r3, #20]
    2742:	2280      	movs	r2, #128	; 0x80
    2744:	0512      	lsls	r2, r2, #20
    2746:	615a      	str	r2, [r3, #20]
    2748:	4b0c      	ldr	r3, [pc, #48]	; (277c <nm_bsp_init+0x68>)
    274a:	681a      	ldr	r2, [r3, #0]
    274c:	422a      	tst	r2, r5
    274e:	d002      	beq.n	2756 <nm_bsp_init+0x42>
    2750:	681b      	ldr	r3, [r3, #0]
    2752:	079b      	lsls	r3, r3, #30
    2754:	d401      	bmi.n	275a <nm_bsp_init+0x46>
    2756:	4b0a      	ldr	r3, [pc, #40]	; (2780 <nm_bsp_init+0x6c>)
    2758:	4798      	blx	r3
    275a:	4b0a      	ldr	r3, [pc, #40]	; (2784 <nm_bsp_init+0x70>)
    275c:	4798      	blx	r3
    275e:	2201      	movs	r2, #1
    2760:	4b09      	ldr	r3, [pc, #36]	; (2788 <nm_bsp_init+0x74>)
    2762:	701a      	strb	r2, [r3, #0]
    2764:	f3bf 8f5f 	dmb	sy
    2768:	b662      	cpsie	i
    276a:	2000      	movs	r0, #0
    276c:	bd76      	pop	{r1, r2, r4, r5, r6, pc}
    276e:	46c0      	nop			; (mov r8, r8)
    2770:	20000218 	.word	0x20000218
    2774:	000062a1 	.word	0x000062a1
    2778:	41004400 	.word	0x41004400
    277c:	e000e010 	.word	0xe000e010
    2780:	00002629 	.word	0x00002629
    2784:	000026ed 	.word	0x000026ed
    2788:	20000024 	.word	0x20000024

0000278c <nm_bsp_register_isr>:
    278c:	b530      	push	{r4, r5, lr}
    278e:	4b0f      	ldr	r3, [pc, #60]	; (27cc <nm_bsp_register_isr+0x40>)
    2790:	b085      	sub	sp, #20
    2792:	ac01      	add	r4, sp, #4
    2794:	6018      	str	r0, [r3, #0]
    2796:	0020      	movs	r0, r4
    2798:	4b0d      	ldr	r3, [pc, #52]	; (27d0 <nm_bsp_register_isr+0x44>)
    279a:	4798      	blx	r3
    279c:	2329      	movs	r3, #41	; 0x29
    279e:	2500      	movs	r5, #0
    27a0:	9301      	str	r3, [sp, #4]
    27a2:	3b28      	subs	r3, #40	; 0x28
    27a4:	7223      	strb	r3, [r4, #8]
    27a6:	3301      	adds	r3, #1
    27a8:	72e3      	strb	r3, [r4, #11]
    27aa:	0021      	movs	r1, r4
    27ac:	2009      	movs	r0, #9
    27ae:	4b09      	ldr	r3, [pc, #36]	; (27d4 <nm_bsp_register_isr+0x48>)
    27b0:	6065      	str	r5, [r4, #4]
    27b2:	4798      	blx	r3
    27b4:	002a      	movs	r2, r5
    27b6:	2109      	movs	r1, #9
    27b8:	4b07      	ldr	r3, [pc, #28]	; (27d8 <nm_bsp_register_isr+0x4c>)
    27ba:	4808      	ldr	r0, [pc, #32]	; (27dc <nm_bsp_register_isr+0x50>)
    27bc:	4798      	blx	r3
    27be:	0029      	movs	r1, r5
    27c0:	4b07      	ldr	r3, [pc, #28]	; (27e0 <nm_bsp_register_isr+0x54>)
    27c2:	2009      	movs	r0, #9
    27c4:	4798      	blx	r3
    27c6:	b005      	add	sp, #20
    27c8:	bd30      	pop	{r4, r5, pc}
    27ca:	46c0      	nop			; (mov r8, r8)
    27cc:	20000218 	.word	0x20000218
    27d0:	000051b1 	.word	0x000051b1
    27d4:	000051c5 	.word	0x000051c5
    27d8:	00005075 	.word	0x00005075
    27dc:	000026c1 	.word	0x000026c1
    27e0:	0000509d 	.word	0x0000509d

000027e4 <nm_bsp_interrupt_ctrl>:
    27e4:	b510      	push	{r4, lr}
    27e6:	1e01      	subs	r1, r0, #0
    27e8:	d004      	beq.n	27f4 <nm_bsp_interrupt_ctrl+0x10>
    27ea:	2100      	movs	r1, #0
    27ec:	2009      	movs	r0, #9
    27ee:	4b03      	ldr	r3, [pc, #12]	; (27fc <nm_bsp_interrupt_ctrl+0x18>)
    27f0:	4798      	blx	r3
    27f2:	bd10      	pop	{r4, pc}
    27f4:	2009      	movs	r0, #9
    27f6:	4b02      	ldr	r3, [pc, #8]	; (2800 <nm_bsp_interrupt_ctrl+0x1c>)
    27f8:	e7fa      	b.n	27f0 <nm_bsp_interrupt_ctrl+0xc>
    27fa:	46c0      	nop			; (mov r8, r8)
    27fc:	0000509d 	.word	0x0000509d
    2800:	000050bd 	.word	0x000050bd

00002804 <nm_bus_init>:
    2804:	b5f0      	push	{r4, r5, r6, r7, lr}
    2806:	b08f      	sub	sp, #60	; 0x3c
    2808:	466b      	mov	r3, sp
    280a:	2500      	movs	r5, #0
    280c:	2401      	movs	r4, #1
    280e:	200e      	movs	r0, #14
    2810:	4e2d      	ldr	r6, [pc, #180]	; (28c8 <nm_bus_init+0xc4>)
    2812:	705c      	strb	r4, [r3, #1]
    2814:	709d      	strb	r5, [r3, #2]
    2816:	701c      	strb	r4, [r3, #0]
    2818:	4669      	mov	r1, sp
    281a:	4b2c      	ldr	r3, [pc, #176]	; (28cc <nm_bus_init+0xc8>)
    281c:	7030      	strb	r0, [r6, #0]
    281e:	7075      	strb	r5, [r6, #1]
    2820:	70b5      	strb	r5, [r6, #2]
    2822:	4798      	blx	r3
    2824:	7832      	ldrb	r2, [r6, #0]
    2826:	0953      	lsrs	r3, r2, #5
    2828:	09d1      	lsrs	r1, r2, #7
    282a:	42a9      	cmp	r1, r5
    282c:	d149      	bne.n	28c2 <nm_bus_init+0xbe>
    282e:	271f      	movs	r7, #31
    2830:	0020      	movs	r0, r4
    2832:	403a      	ands	r2, r7
    2834:	4090      	lsls	r0, r2
    2836:	0002      	movs	r2, r0
    2838:	4825      	ldr	r0, [pc, #148]	; (28d0 <nm_bus_init+0xcc>)
    283a:	01db      	lsls	r3, r3, #7
    283c:	181b      	adds	r3, r3, r0
    283e:	619a      	str	r2, [r3, #24]
    2840:	466b      	mov	r3, sp
    2842:	701c      	strb	r4, [r3, #0]
    2844:	23c0      	movs	r3, #192	; 0xc0
    2846:	039b      	lsls	r3, r3, #14
    2848:	9303      	str	r3, [sp, #12]
    284a:	466b      	mov	r3, sp
    284c:	7419      	strb	r1, [r3, #16]
    284e:	7459      	strb	r1, [r3, #17]
    2850:	7519      	strb	r1, [r3, #20]
    2852:	749c      	strb	r4, [r3, #18]
    2854:	74dc      	strb	r4, [r3, #19]
    2856:	3305      	adds	r3, #5
    2858:	77d9      	strb	r1, [r3, #31]
    285a:	220c      	movs	r2, #12
    285c:	4b1d      	ldr	r3, [pc, #116]	; (28d4 <nm_bus_init+0xd0>)
    285e:	a806      	add	r0, sp, #24
    2860:	9101      	str	r1, [sp, #4]
    2862:	9102      	str	r1, [sp, #8]
    2864:	4798      	blx	r3
    2866:	4b1c      	ldr	r3, [pc, #112]	; (28d8 <nm_bus_init+0xd4>)
    2868:	4e1c      	ldr	r6, [pc, #112]	; (28dc <nm_bus_init+0xd8>)
    286a:	930a      	str	r3, [sp, #40]	; 0x28
    286c:	4b1c      	ldr	r3, [pc, #112]	; (28e0 <nm_bus_init+0xdc>)
    286e:	466a      	mov	r2, sp
    2870:	930b      	str	r3, [sp, #44]	; 0x2c
    2872:	2301      	movs	r3, #1
    2874:	425b      	negs	r3, r3
    2876:	930c      	str	r3, [sp, #48]	; 0x30
    2878:	4b1a      	ldr	r3, [pc, #104]	; (28e4 <nm_bus_init+0xe0>)
    287a:	491b      	ldr	r1, [pc, #108]	; (28e8 <nm_bus_init+0xe4>)
    287c:	930d      	str	r3, [sp, #52]	; 0x34
    287e:	4b1b      	ldr	r3, [pc, #108]	; (28ec <nm_bus_init+0xe8>)
    2880:	0030      	movs	r0, r6
    2882:	9306      	str	r3, [sp, #24]
    2884:	4b1a      	ldr	r3, [pc, #104]	; (28f0 <nm_bus_init+0xec>)
    2886:	4798      	blx	r3
    2888:	42a8      	cmp	r0, r5
    288a:	d117      	bne.n	28bc <nm_bus_init+0xb8>
    288c:	6835      	ldr	r5, [r6, #0]
    288e:	4b19      	ldr	r3, [pc, #100]	; (28f4 <nm_bus_init+0xf0>)
    2890:	0028      	movs	r0, r5
    2892:	4798      	blx	r3
    2894:	4007      	ands	r7, r0
    2896:	40bc      	lsls	r4, r7
    2898:	4b17      	ldr	r3, [pc, #92]	; (28f8 <nm_bus_init+0xf4>)
    289a:	601c      	str	r4, [r3, #0]
    289c:	6833      	ldr	r3, [r6, #0]
    289e:	69dc      	ldr	r4, [r3, #28]
    28a0:	2c00      	cmp	r4, #0
    28a2:	d1fc      	bne.n	289e <nm_bus_init+0x9a>
    28a4:	2302      	movs	r3, #2
    28a6:	682a      	ldr	r2, [r5, #0]
    28a8:	4313      	orrs	r3, r2
    28aa:	602b      	str	r3, [r5, #0]
    28ac:	4b13      	ldr	r3, [pc, #76]	; (28fc <nm_bus_init+0xf8>)
    28ae:	4798      	blx	r3
    28b0:	2001      	movs	r0, #1
    28b2:	4b13      	ldr	r3, [pc, #76]	; (2900 <nm_bus_init+0xfc>)
    28b4:	4798      	blx	r3
    28b6:	0020      	movs	r0, r4
    28b8:	b00f      	add	sp, #60	; 0x3c
    28ba:	bdf0      	pop	{r4, r5, r6, r7, pc}
    28bc:	2006      	movs	r0, #6
    28be:	4240      	negs	r0, r0
    28c0:	e7fa      	b.n	28b8 <nm_bus_init+0xb4>
    28c2:	61ad      	str	r5, [r5, #24]
    28c4:	deff      	udf	#255	; 0xff
    28c6:	46c0      	nop			; (mov r8, r8)
    28c8:	20001704 	.word	0x20001704
    28cc:	000062a1 	.word	0x000062a1
    28d0:	41004400 	.word	0x41004400
    28d4:	0000b20b 	.word	0x0000b20b
    28d8:	000c0002 	.word	0x000c0002
    28dc:	20001708 	.word	0x20001708
    28e0:	000d0002 	.word	0x000d0002
    28e4:	000f0002 	.word	0x000f0002
    28e8:	42001000 	.word	0x42001000
    28ec:	00b71b00 	.word	0x00b71b00
    28f0:	0000675d 	.word	0x0000675d
    28f4:	00006661 	.word	0x00006661
    28f8:	e000e100 	.word	0xe000e100
    28fc:	000026ed 	.word	0x000026ed
    2900:	000026d5 	.word	0x000026d5

00002904 <nm_bus_ioctl>:
    2904:	b5f0      	push	{r4, r5, r6, r7, lr}
    2906:	b085      	sub	sp, #20
    2908:	2803      	cmp	r0, #3
    290a:	d119      	bne.n	2940 <nm_bus_ioctl+0x3c>
    290c:	2700      	movs	r7, #0
    290e:	ab02      	add	r3, sp, #8
    2910:	684e      	ldr	r6, [r1, #4]
    2912:	3307      	adds	r3, #7
    2914:	890c      	ldrh	r4, [r1, #8]
    2916:	680d      	ldr	r5, [r1, #0]
    2918:	701f      	strb	r7, [r3, #0]
    291a:	42be      	cmp	r6, r7
    291c:	d104      	bne.n	2928 <nm_bus_ioctl+0x24>
    291e:	42bd      	cmp	r5, r7
    2920:	d11c      	bne.n	295c <nm_bus_ioctl+0x58>
    2922:	200f      	movs	r0, #15
    2924:	4240      	negs	r0, r0
    2926:	e063      	b.n	29f0 <nm_bus_ioctl+0xec>
    2928:	2c00      	cmp	r4, #0
    292a:	d0fa      	beq.n	2922 <nm_bus_ioctl+0x1e>
    292c:	2d00      	cmp	r5, #0
    292e:	d101      	bne.n	2934 <nm_bus_ioctl+0x30>
    2930:	2701      	movs	r7, #1
    2932:	001d      	movs	r5, r3
    2934:	2300      	movs	r3, #0
    2936:	9300      	str	r3, [sp, #0]
    2938:	e016      	b.n	2968 <nm_bus_ioctl+0x64>
    293a:	6a9a      	ldr	r2, [r3, #40]	; 0x28
    293c:	b2d2      	uxtb	r2, r2
    293e:	e03e      	b.n	29be <nm_bus_ioctl+0xba>
    2940:	220e      	movs	r2, #14
    2942:	492c      	ldr	r1, [pc, #176]	; (29f4 <nm_bus_ioctl+0xf0>)
    2944:	32ff      	adds	r2, #255	; 0xff
    2946:	4b2c      	ldr	r3, [pc, #176]	; (29f8 <nm_bus_ioctl+0xf4>)
    2948:	482c      	ldr	r0, [pc, #176]	; (29fc <nm_bus_ioctl+0xf8>)
    294a:	4798      	blx	r3
    294c:	4b2c      	ldr	r3, [pc, #176]	; (2a00 <nm_bus_ioctl+0xfc>)
    294e:	482d      	ldr	r0, [pc, #180]	; (2a04 <nm_bus_ioctl+0x100>)
    2950:	4798      	blx	r3
    2952:	200d      	movs	r0, #13
    2954:	4b2c      	ldr	r3, [pc, #176]	; (2a08 <nm_bus_ioctl+0x104>)
    2956:	4798      	blx	r3
    2958:	2001      	movs	r0, #1
    295a:	e7e3      	b.n	2924 <nm_bus_ioctl+0x20>
    295c:	2c00      	cmp	r4, #0
    295e:	d0e0      	beq.n	2922 <nm_bus_ioctl+0x1e>
    2960:	2201      	movs	r2, #1
    2962:	0037      	movs	r7, r6
    2964:	001e      	movs	r6, r3
    2966:	9200      	str	r2, [sp, #0]
    2968:	4928      	ldr	r1, [pc, #160]	; (2a0c <nm_bus_ioctl+0x108>)
    296a:	4b29      	ldr	r3, [pc, #164]	; (2a10 <nm_bus_ioctl+0x10c>)
    296c:	2201      	movs	r2, #1
    296e:	4829      	ldr	r0, [pc, #164]	; (2a14 <nm_bus_ioctl+0x110>)
    2970:	4798      	blx	r3
    2972:	2301      	movs	r3, #1
    2974:	2104      	movs	r1, #4
    2976:	469c      	mov	ip, r3
    2978:	782b      	ldrb	r3, [r5, #0]
    297a:	9301      	str	r3, [sp, #4]
    297c:	4b25      	ldr	r3, [pc, #148]	; (2a14 <nm_bus_ioctl+0x110>)
    297e:	681b      	ldr	r3, [r3, #0]
    2980:	4662      	mov	r2, ip
    2982:	7e18      	ldrb	r0, [r3, #24]
    2984:	4210      	tst	r0, r2
    2986:	d0fb      	beq.n	2980 <nm_bus_ioctl+0x7c>
    2988:	4662      	mov	r2, ip
    298a:	7e18      	ldrb	r0, [r3, #24]
    298c:	4210      	tst	r0, r2
    298e:	d0fb      	beq.n	2988 <nm_bus_ioctl+0x84>
    2990:	9a01      	ldr	r2, [sp, #4]
    2992:	629a      	str	r2, [r3, #40]	; 0x28
    2994:	7e1a      	ldrb	r2, [r3, #24]
    2996:	420a      	tst	r2, r1
    2998:	d0fc      	beq.n	2994 <nm_bus_ioctl+0x90>
    299a:	4a1e      	ldr	r2, [pc, #120]	; (2a14 <nm_bus_ioctl+0x110>)
    299c:	7992      	ldrb	r2, [r2, #6]
    299e:	9201      	str	r2, [sp, #4]
    29a0:	7e1a      	ldrb	r2, [r3, #24]
    29a2:	420a      	tst	r2, r1
    29a4:	d0fc      	beq.n	29a0 <nm_bus_ioctl+0x9c>
    29a6:	8b5a      	ldrh	r2, [r3, #26]
    29a8:	2000      	movs	r0, #0
    29aa:	420a      	tst	r2, r1
    29ac:	d001      	beq.n	29b2 <nm_bus_ioctl+0xae>
    29ae:	8359      	strh	r1, [r3, #26]
    29b0:	301e      	adds	r0, #30
    29b2:	9a01      	ldr	r2, [sp, #4]
    29b4:	2a01      	cmp	r2, #1
    29b6:	d1c0      	bne.n	293a <nm_bus_ioctl+0x36>
    29b8:	6a9a      	ldr	r2, [r3, #40]	; 0x28
    29ba:	05d2      	lsls	r2, r2, #23
    29bc:	0dd2      	lsrs	r2, r2, #23
    29be:	2800      	cmp	r0, #0
    29c0:	d1ee      	bne.n	29a0 <nm_bus_ioctl+0x9c>
    29c2:	9b00      	ldr	r3, [sp, #0]
    29c4:	7032      	strb	r2, [r6, #0]
    29c6:	425a      	negs	r2, r3
    29c8:	4153      	adcs	r3, r2
    29ca:	18f6      	adds	r6, r6, r3
    29cc:	427b      	negs	r3, r7
    29ce:	417b      	adcs	r3, r7
    29d0:	3c01      	subs	r4, #1
    29d2:	b2a4      	uxth	r4, r4
    29d4:	18ed      	adds	r5, r5, r3
    29d6:	2c00      	cmp	r4, #0
    29d8:	d1ce      	bne.n	2978 <nm_bus_ioctl+0x74>
    29da:	2302      	movs	r3, #2
    29dc:	480d      	ldr	r0, [pc, #52]	; (2a14 <nm_bus_ioctl+0x110>)
    29de:	6801      	ldr	r1, [r0, #0]
    29e0:	7e0a      	ldrb	r2, [r1, #24]
    29e2:	421a      	tst	r2, r3
    29e4:	d0fc      	beq.n	29e0 <nm_bus_ioctl+0xdc>
    29e6:	2200      	movs	r2, #0
    29e8:	4908      	ldr	r1, [pc, #32]	; (2a0c <nm_bus_ioctl+0x108>)
    29ea:	4b09      	ldr	r3, [pc, #36]	; (2a10 <nm_bus_ioctl+0x10c>)
    29ec:	4798      	blx	r3
    29ee:	2000      	movs	r0, #0
    29f0:	b005      	add	sp, #20
    29f2:	bdf0      	pop	{r4, r5, r6, r7, pc}
    29f4:	0000c923 	.word	0x0000c923
    29f8:	0000b36d 	.word	0x0000b36d
    29fc:	0000c930 	.word	0x0000c930
    2a00:	0000b489 	.word	0x0000b489
    2a04:	0000c943 	.word	0x0000c943
    2a08:	0000b3a1 	.word	0x0000b3a1
    2a0c:	20001704 	.word	0x20001704
    2a10:	000069b5 	.word	0x000069b5
    2a14:	20001708 	.word	0x20001708

00002a18 <nm_bus_deinit>:
    2a18:	2300      	movs	r3, #0
    2a1a:	b573      	push	{r0, r1, r4, r5, r6, lr}
    2a1c:	4e14      	ldr	r6, [pc, #80]	; (2a70 <nm_bus_deinit+0x58>)
    2a1e:	ac01      	add	r4, sp, #4
    2a20:	6835      	ldr	r5, [r6, #0]
    2a22:	7023      	strb	r3, [r4, #0]
    2a24:	70a3      	strb	r3, [r4, #2]
    2a26:	7063      	strb	r3, [r4, #1]
    2a28:	0028      	movs	r0, r5
    2a2a:	4b12      	ldr	r3, [pc, #72]	; (2a74 <nm_bus_deinit+0x5c>)
    2a2c:	4798      	blx	r3
    2a2e:	231f      	movs	r3, #31
    2a30:	4018      	ands	r0, r3
    2a32:	3b1e      	subs	r3, #30
    2a34:	4083      	lsls	r3, r0
    2a36:	4a10      	ldr	r2, [pc, #64]	; (2a78 <nm_bus_deinit+0x60>)
    2a38:	67d3      	str	r3, [r2, #124]	; 0x7c
    2a3a:	6833      	ldr	r3, [r6, #0]
    2a3c:	69de      	ldr	r6, [r3, #28]
    2a3e:	2e00      	cmp	r6, #0
    2a40:	d1fc      	bne.n	2a3c <nm_bus_deinit+0x24>
    2a42:	238f      	movs	r3, #143	; 0x8f
    2a44:	2202      	movs	r2, #2
    2a46:	752b      	strb	r3, [r5, #20]
    2a48:	762b      	strb	r3, [r5, #24]
    2a4a:	682b      	ldr	r3, [r5, #0]
    2a4c:	0021      	movs	r1, r4
    2a4e:	4393      	bics	r3, r2
    2a50:	602b      	str	r3, [r5, #0]
    2a52:	200c      	movs	r0, #12
    2a54:	4d09      	ldr	r5, [pc, #36]	; (2a7c <nm_bus_deinit+0x64>)
    2a56:	47a8      	blx	r5
    2a58:	0021      	movs	r1, r4
    2a5a:	200f      	movs	r0, #15
    2a5c:	47a8      	blx	r5
    2a5e:	0021      	movs	r1, r4
    2a60:	200d      	movs	r0, #13
    2a62:	47a8      	blx	r5
    2a64:	0021      	movs	r1, r4
    2a66:	200e      	movs	r0, #14
    2a68:	47a8      	blx	r5
    2a6a:	0030      	movs	r0, r6
    2a6c:	bd76      	pop	{r1, r2, r4, r5, r6, pc}
    2a6e:	46c0      	nop			; (mov r8, r8)
    2a70:	20001708 	.word	0x20001708
    2a74:	00006661 	.word	0x00006661
    2a78:	e000e104 	.word	0xe000e104
    2a7c:	000062a1 	.word	0x000062a1

00002a80 <m2m_memcpy>:
    2a80:	2300      	movs	r3, #0
    2a82:	b510      	push	{r4, lr}
    2a84:	429a      	cmp	r2, r3
    2a86:	d003      	beq.n	2a90 <m2m_memcpy+0x10>
    2a88:	5ccc      	ldrb	r4, [r1, r3]
    2a8a:	54c4      	strb	r4, [r0, r3]
    2a8c:	3301      	adds	r3, #1
    2a8e:	e7f9      	b.n	2a84 <m2m_memcpy+0x4>
    2a90:	bd10      	pop	{r4, pc}

00002a92 <m2m_memset>:
    2a92:	1883      	adds	r3, r0, r2
    2a94:	2a00      	cmp	r2, #0
    2a96:	d003      	beq.n	2aa0 <m2m_memset+0xe>
    2a98:	7001      	strb	r1, [r0, #0]
    2a9a:	3001      	adds	r0, #1
    2a9c:	4298      	cmp	r0, r3
    2a9e:	d1fb      	bne.n	2a98 <m2m_memset+0x6>
    2aa0:	4770      	bx	lr

00002aa2 <m2m_strlen>:
    2aa2:	2300      	movs	r3, #0
    2aa4:	5cc1      	ldrb	r1, [r0, r3]
    2aa6:	b29a      	uxth	r2, r3
    2aa8:	3301      	adds	r3, #1
    2aaa:	2900      	cmp	r1, #0
    2aac:	d1fa      	bne.n	2aa4 <m2m_strlen+0x2>
    2aae:	0010      	movs	r0, r2
    2ab0:	4770      	bx	lr
	...

00002ab4 <isr>:
    2ab4:	4a02      	ldr	r2, [pc, #8]	; (2ac0 <isr+0xc>)
    2ab6:	78d3      	ldrb	r3, [r2, #3]
    2ab8:	3301      	adds	r3, #1
    2aba:	b2db      	uxtb	r3, r3
    2abc:	70d3      	strb	r3, [r2, #3]
    2abe:	4770      	bx	lr
    2ac0:	20001744 	.word	0x20001744

00002ac4 <m2m_hif_cb>:
    2ac4:	4770      	bx	lr
	...

00002ac8 <hif_set_rx_done>:
    2ac8:	b507      	push	{r0, r1, r2, lr}
    2aca:	2200      	movs	r2, #0
    2acc:	4b09      	ldr	r3, [pc, #36]	; (2af4 <hif_set_rx_done+0x2c>)
    2ace:	2001      	movs	r0, #1
    2ad0:	709a      	strb	r2, [r3, #2]
    2ad2:	4b09      	ldr	r3, [pc, #36]	; (2af8 <hif_set_rx_done+0x30>)
    2ad4:	4798      	blx	r3
    2ad6:	a901      	add	r1, sp, #4
    2ad8:	4808      	ldr	r0, [pc, #32]	; (2afc <hif_set_rx_done+0x34>)
    2ada:	4b09      	ldr	r3, [pc, #36]	; (2b00 <hif_set_rx_done+0x38>)
    2adc:	4798      	blx	r3
    2ade:	2800      	cmp	r0, #0
    2ae0:	d106      	bne.n	2af0 <hif_set_rx_done+0x28>
    2ae2:	2102      	movs	r1, #2
    2ae4:	9b01      	ldr	r3, [sp, #4]
    2ae6:	4805      	ldr	r0, [pc, #20]	; (2afc <hif_set_rx_done+0x34>)
    2ae8:	4319      	orrs	r1, r3
    2aea:	4b06      	ldr	r3, [pc, #24]	; (2b04 <hif_set_rx_done+0x3c>)
    2aec:	9101      	str	r1, [sp, #4]
    2aee:	4798      	blx	r3
    2af0:	bd0e      	pop	{r1, r2, r3, pc}
    2af2:	46c0      	nop			; (mov r8, r8)
    2af4:	20001744 	.word	0x20001744
    2af8:	000027e5 	.word	0x000027e5
    2afc:	00001070 	.word	0x00001070
    2b00:	00003b2d 	.word	0x00003b2d
    2b04:	00003b39 	.word	0x00003b39

00002b08 <hif_chip_wake>:
    2b08:	2000      	movs	r0, #0
    2b0a:	b510      	push	{r4, lr}
    2b0c:	4c0a      	ldr	r4, [pc, #40]	; (2b38 <hif_chip_wake+0x30>)
    2b0e:	78a3      	ldrb	r3, [r4, #2]
    2b10:	4283      	cmp	r3, r0
    2b12:	d107      	bne.n	2b24 <hif_chip_wake+0x1c>
    2b14:	7863      	ldrb	r3, [r4, #1]
    2b16:	4283      	cmp	r3, r0
    2b18:	d005      	beq.n	2b26 <hif_chip_wake+0x1e>
    2b1a:	2000      	movs	r0, #0
    2b1c:	7863      	ldrb	r3, [r4, #1]
    2b1e:	3301      	adds	r3, #1
    2b20:	b2db      	uxtb	r3, r3
    2b22:	7063      	strb	r3, [r4, #1]
    2b24:	bd10      	pop	{r4, pc}
    2b26:	7823      	ldrb	r3, [r4, #0]
    2b28:	2b00      	cmp	r3, #0
    2b2a:	d0f6      	beq.n	2b1a <hif_chip_wake+0x12>
    2b2c:	4b03      	ldr	r3, [pc, #12]	; (2b3c <hif_chip_wake+0x34>)
    2b2e:	4798      	blx	r3
    2b30:	2800      	cmp	r0, #0
    2b32:	d0f2      	beq.n	2b1a <hif_chip_wake+0x12>
    2b34:	e7f6      	b.n	2b24 <hif_chip_wake+0x1c>
    2b36:	46c0      	nop			; (mov r8, r8)
    2b38:	20001744 	.word	0x20001744
    2b3c:	0000385d 	.word	0x0000385d

00002b40 <hif_chip_sleep_sc>:
    2b40:	4a04      	ldr	r2, [pc, #16]	; (2b54 <hif_chip_sleep_sc+0x14>)
    2b42:	7853      	ldrb	r3, [r2, #1]
    2b44:	2b00      	cmp	r3, #0
    2b46:	d003      	beq.n	2b50 <hif_chip_sleep_sc+0x10>
    2b48:	7853      	ldrb	r3, [r2, #1]
    2b4a:	3b01      	subs	r3, #1
    2b4c:	b2db      	uxtb	r3, r3
    2b4e:	7053      	strb	r3, [r2, #1]
    2b50:	2000      	movs	r0, #0
    2b52:	4770      	bx	lr
    2b54:	20001744 	.word	0x20001744

00002b58 <hif_chip_sleep>:
    2b58:	b510      	push	{r4, lr}
    2b5a:	4b09      	ldr	r3, [pc, #36]	; (2b80 <hif_chip_sleep+0x28>)
    2b5c:	785a      	ldrb	r2, [r3, #1]
    2b5e:	2a00      	cmp	r2, #0
    2b60:	d003      	beq.n	2b6a <hif_chip_sleep+0x12>
    2b62:	785a      	ldrb	r2, [r3, #1]
    2b64:	3a01      	subs	r2, #1
    2b66:	b2d2      	uxtb	r2, r2
    2b68:	705a      	strb	r2, [r3, #1]
    2b6a:	2000      	movs	r0, #0
    2b6c:	785a      	ldrb	r2, [r3, #1]
    2b6e:	4282      	cmp	r2, r0
    2b70:	d104      	bne.n	2b7c <hif_chip_sleep+0x24>
    2b72:	781b      	ldrb	r3, [r3, #0]
    2b74:	4283      	cmp	r3, r0
    2b76:	d001      	beq.n	2b7c <hif_chip_sleep+0x24>
    2b78:	4b02      	ldr	r3, [pc, #8]	; (2b84 <hif_chip_sleep+0x2c>)
    2b7a:	4798      	blx	r3
    2b7c:	bd10      	pop	{r4, pc}
    2b7e:	46c0      	nop			; (mov r8, r8)
    2b80:	20001744 	.word	0x20001744
    2b84:	000037fd 	.word	0x000037fd

00002b88 <hif_send>:
    2b88:	b5f0      	push	{r4, r5, r6, r7, lr}
    2b8a:	b08b      	sub	sp, #44	; 0x2c
    2b8c:	001f      	movs	r7, r3
    2b8e:	ab10      	add	r3, sp, #64	; 0x40
    2b90:	9202      	str	r2, [sp, #8]
    2b92:	cb04      	ldmia	r3!, {r2}
    2b94:	0006      	movs	r6, r0
    2b96:	9200      	str	r2, [sp, #0]
    2b98:	227f      	movs	r2, #127	; 0x7f
    2b9a:	881b      	ldrh	r3, [r3, #0]
    2b9c:	400a      	ands	r2, r1
    2b9e:	9301      	str	r3, [sp, #4]
    2ba0:	ab12      	add	r3, sp, #72	; 0x48
    2ba2:	881b      	ldrh	r3, [r3, #0]
    2ba4:	000d      	movs	r5, r1
    2ba6:	9303      	str	r3, [sp, #12]
    2ba8:	ab06      	add	r3, sp, #24
    2baa:	705a      	strb	r2, [r3, #1]
    2bac:	2208      	movs	r2, #8
    2bae:	7018      	strb	r0, [r3, #0]
    2bb0:	805a      	strh	r2, [r3, #2]
    2bb2:	9a00      	ldr	r2, [sp, #0]
    2bb4:	2a00      	cmp	r2, #0
    2bb6:	d047      	beq.n	2c48 <hif_send+0xc0>
    2bb8:	9901      	ldr	r1, [sp, #4]
    2bba:	885a      	ldrh	r2, [r3, #2]
    2bbc:	1852      	adds	r2, r2, r1
    2bbe:	9903      	ldr	r1, [sp, #12]
    2bc0:	188a      	adds	r2, r1, r2
    2bc2:	b292      	uxth	r2, r2
    2bc4:	805a      	strh	r2, [r3, #2]
    2bc6:	4b5b      	ldr	r3, [pc, #364]	; (2d34 <hif_send+0x1ac>)
    2bc8:	4798      	blx	r3
    2bca:	1e04      	subs	r4, r0, #0
    2bcc:	d000      	beq.n	2bd0 <hif_send+0x48>
    2bce:	e0a3      	b.n	2d18 <hif_send+0x190>
    2bd0:	ab04      	add	r3, sp, #16
    2bd2:	9008      	str	r0, [sp, #32]
    2bd4:	80d8      	strh	r0, [r3, #6]
    2bd6:	9007      	str	r0, [sp, #28]
    2bd8:	9b07      	ldr	r3, [sp, #28]
    2bda:	022d      	lsls	r5, r5, #8
    2bdc:	431e      	orrs	r6, r3
    2bde:	9607      	str	r6, [sp, #28]
    2be0:	9b07      	ldr	r3, [sp, #28]
    2be2:	4855      	ldr	r0, [pc, #340]	; (2d38 <hif_send+0x1b0>)
    2be4:	431d      	orrs	r5, r3
    2be6:	9507      	str	r5, [sp, #28]
    2be8:	ab06      	add	r3, sp, #24
    2bea:	885b      	ldrh	r3, [r3, #2]
    2bec:	9a07      	ldr	r2, [sp, #28]
    2bee:	041b      	lsls	r3, r3, #16
    2bf0:	4313      	orrs	r3, r2
    2bf2:	9307      	str	r3, [sp, #28]
    2bf4:	9907      	ldr	r1, [sp, #28]
    2bf6:	4d51      	ldr	r5, [pc, #324]	; (2d3c <hif_send+0x1b4>)
    2bf8:	47a8      	blx	r5
    2bfa:	1e04      	subs	r4, r0, #0
    2bfc:	d146      	bne.n	2c8c <hif_send+0x104>
    2bfe:	2302      	movs	r3, #2
    2c00:	9007      	str	r0, [sp, #28]
    2c02:	9a07      	ldr	r2, [sp, #28]
    2c04:	484e      	ldr	r0, [pc, #312]	; (2d40 <hif_send+0x1b8>)
    2c06:	4313      	orrs	r3, r2
    2c08:	9307      	str	r3, [sp, #28]
    2c0a:	9907      	ldr	r1, [sp, #28]
    2c0c:	47a8      	blx	r5
    2c0e:	1e04      	subs	r4, r0, #0
    2c10:	d13c      	bne.n	2c8c <hif_send+0x104>
    2c12:	26fa      	movs	r6, #250	; 0xfa
    2c14:	ab04      	add	r3, sp, #16
    2c16:	9008      	str	r0, [sp, #32]
    2c18:	0076      	lsls	r6, r6, #1
    2c1a:	80d8      	strh	r0, [r3, #6]
    2c1c:	ab04      	add	r3, sp, #16
    2c1e:	1d9c      	adds	r4, r3, #6
    2c20:	8822      	ldrh	r2, [r4, #0]
    2c22:	4b48      	ldr	r3, [pc, #288]	; (2d44 <hif_send+0x1bc>)
    2c24:	429a      	cmp	r2, r3
    2c26:	d805      	bhi.n	2c34 <hif_send+0xac>
    2c28:	a907      	add	r1, sp, #28
    2c2a:	4845      	ldr	r0, [pc, #276]	; (2d40 <hif_send+0x1b8>)
    2c2c:	4b46      	ldr	r3, [pc, #280]	; (2d48 <hif_send+0x1c0>)
    2c2e:	4798      	blx	r3
    2c30:	2800      	cmp	r0, #0
    2c32:	d00c      	beq.n	2c4e <hif_send+0xc6>
    2c34:	9b08      	ldr	r3, [sp, #32]
    2c36:	2b00      	cmp	r3, #0
    2c38:	d130      	bne.n	2c9c <hif_send+0x114>
    2c3a:	4b44      	ldr	r3, [pc, #272]	; (2d4c <hif_send+0x1c4>)
    2c3c:	2403      	movs	r4, #3
    2c3e:	4798      	blx	r3
    2c40:	4264      	negs	r4, r4
    2c42:	0020      	movs	r0, r4
    2c44:	b00b      	add	sp, #44	; 0x2c
    2c46:	bdf0      	pop	{r4, r5, r6, r7, pc}
    2c48:	885a      	ldrh	r2, [r3, #2]
    2c4a:	19d2      	adds	r2, r2, r7
    2c4c:	e7b9      	b.n	2bc2 <hif_send+0x3a>
    2c4e:	23f4      	movs	r3, #244	; 0xf4
    2c50:	8822      	ldrh	r2, [r4, #0]
    2c52:	33ff      	adds	r3, #255	; 0xff
    2c54:	429a      	cmp	r2, r3
    2c56:	d90e      	bls.n	2c76 <hif_send+0xee>
    2c58:	8823      	ldrh	r3, [r4, #0]
    2c5a:	42b3      	cmp	r3, r6
    2c5c:	d808      	bhi.n	2c70 <hif_send+0xe8>
    2c5e:	4b3c      	ldr	r3, [pc, #240]	; (2d50 <hif_send+0x1c8>)
    2c60:	483c      	ldr	r0, [pc, #240]	; (2d54 <hif_send+0x1cc>)
    2c62:	4798      	blx	r3
    2c64:	4b3c      	ldr	r3, [pc, #240]	; (2d58 <hif_send+0x1d0>)
    2c66:	483d      	ldr	r0, [pc, #244]	; (2d5c <hif_send+0x1d4>)
    2c68:	4798      	blx	r3
    2c6a:	200d      	movs	r0, #13
    2c6c:	4b3c      	ldr	r3, [pc, #240]	; (2d60 <hif_send+0x1d8>)
    2c6e:	4798      	blx	r3
    2c70:	2001      	movs	r0, #1
    2c72:	4b3c      	ldr	r3, [pc, #240]	; (2d64 <hif_send+0x1dc>)
    2c74:	4798      	blx	r3
    2c76:	2302      	movs	r3, #2
    2c78:	9d07      	ldr	r5, [sp, #28]
    2c7a:	401d      	ands	r5, r3
    2c7c:	d109      	bne.n	2c92 <hif_send+0x10a>
    2c7e:	a908      	add	r1, sp, #32
    2c80:	4839      	ldr	r0, [pc, #228]	; (2d68 <hif_send+0x1e0>)
    2c82:	4b31      	ldr	r3, [pc, #196]	; (2d48 <hif_send+0x1c0>)
    2c84:	4798      	blx	r3
    2c86:	1e04      	subs	r4, r0, #0
    2c88:	d0d4      	beq.n	2c34 <hif_send+0xac>
    2c8a:	9508      	str	r5, [sp, #32]
    2c8c:	4b37      	ldr	r3, [pc, #220]	; (2d6c <hif_send+0x1e4>)
    2c8e:	4798      	blx	r3
    2c90:	e7d7      	b.n	2c42 <hif_send+0xba>
    2c92:	8823      	ldrh	r3, [r4, #0]
    2c94:	3301      	adds	r3, #1
    2c96:	b29b      	uxth	r3, r3
    2c98:	8023      	strh	r3, [r4, #0]
    2c9a:	e7bf      	b.n	2c1c <hif_send+0x94>
    2c9c:	9b08      	ldr	r3, [sp, #32]
    2c9e:	a906      	add	r1, sp, #24
    2ca0:	9309      	str	r3, [sp, #36]	; 0x24
    2ca2:	884b      	ldrh	r3, [r1, #2]
    2ca4:	2208      	movs	r2, #8
    2ca6:	b29b      	uxth	r3, r3
    2ca8:	804b      	strh	r3, [r1, #2]
    2caa:	9809      	ldr	r0, [sp, #36]	; 0x24
    2cac:	4d30      	ldr	r5, [pc, #192]	; (2d70 <hif_send+0x1e8>)
    2cae:	47a8      	blx	r5
    2cb0:	1e04      	subs	r4, r0, #0
    2cb2:	d1eb      	bne.n	2c8c <hif_send+0x104>
    2cb4:	9b09      	ldr	r3, [sp, #36]	; 0x24
    2cb6:	3308      	adds	r3, #8
    2cb8:	9309      	str	r3, [sp, #36]	; 0x24
    2cba:	9b02      	ldr	r3, [sp, #8]
    2cbc:	2b00      	cmp	r3, #0
    2cbe:	d008      	beq.n	2cd2 <hif_send+0x14a>
    2cc0:	9809      	ldr	r0, [sp, #36]	; 0x24
    2cc2:	003a      	movs	r2, r7
    2cc4:	0019      	movs	r1, r3
    2cc6:	47a8      	blx	r5
    2cc8:	1e04      	subs	r4, r0, #0
    2cca:	d1df      	bne.n	2c8c <hif_send+0x104>
    2ccc:	9b09      	ldr	r3, [sp, #36]	; 0x24
    2cce:	18fb      	adds	r3, r7, r3
    2cd0:	9309      	str	r3, [sp, #36]	; 0x24
    2cd2:	9b00      	ldr	r3, [sp, #0]
    2cd4:	2b00      	cmp	r3, #0
    2cd6:	d00e      	beq.n	2cf6 <hif_send+0x16e>
    2cd8:	9b03      	ldr	r3, [sp, #12]
    2cda:	9a09      	ldr	r2, [sp, #36]	; 0x24
    2cdc:	1bdb      	subs	r3, r3, r7
    2cde:	189b      	adds	r3, r3, r2
    2ce0:	9309      	str	r3, [sp, #36]	; 0x24
    2ce2:	9809      	ldr	r0, [sp, #36]	; 0x24
    2ce4:	9a01      	ldr	r2, [sp, #4]
    2ce6:	9900      	ldr	r1, [sp, #0]
    2ce8:	47a8      	blx	r5
    2cea:	1e04      	subs	r4, r0, #0
    2cec:	d1ce      	bne.n	2c8c <hif_send+0x104>
    2cee:	9b09      	ldr	r3, [sp, #36]	; 0x24
    2cf0:	9a01      	ldr	r2, [sp, #4]
    2cf2:	18d3      	adds	r3, r2, r3
    2cf4:	9309      	str	r3, [sp, #36]	; 0x24
    2cf6:	9b08      	ldr	r3, [sp, #32]
    2cf8:	481e      	ldr	r0, [pc, #120]	; (2d74 <hif_send+0x1ec>)
    2cfa:	009b      	lsls	r3, r3, #2
    2cfc:	9307      	str	r3, [sp, #28]
    2cfe:	2302      	movs	r3, #2
    2d00:	9a07      	ldr	r2, [sp, #28]
    2d02:	4313      	orrs	r3, r2
    2d04:	9307      	str	r3, [sp, #28]
    2d06:	9907      	ldr	r1, [sp, #28]
    2d08:	4b0c      	ldr	r3, [pc, #48]	; (2d3c <hif_send+0x1b4>)
    2d0a:	4798      	blx	r3
    2d0c:	1e04      	subs	r4, r0, #0
    2d0e:	d1bd      	bne.n	2c8c <hif_send+0x104>
    2d10:	4b0e      	ldr	r3, [pc, #56]	; (2d4c <hif_send+0x1c4>)
    2d12:	4798      	blx	r3
    2d14:	0004      	movs	r4, r0
    2d16:	e794      	b.n	2c42 <hif_send+0xba>
    2d18:	22cb      	movs	r2, #203	; 0xcb
    2d1a:	4917      	ldr	r1, [pc, #92]	; (2d78 <hif_send+0x1f0>)
    2d1c:	0052      	lsls	r2, r2, #1
    2d1e:	4b0c      	ldr	r3, [pc, #48]	; (2d50 <hif_send+0x1c8>)
    2d20:	4816      	ldr	r0, [pc, #88]	; (2d7c <hif_send+0x1f4>)
    2d22:	4798      	blx	r3
    2d24:	4b0c      	ldr	r3, [pc, #48]	; (2d58 <hif_send+0x1d0>)
    2d26:	4816      	ldr	r0, [pc, #88]	; (2d80 <hif_send+0x1f8>)
    2d28:	4798      	blx	r3
    2d2a:	4b0d      	ldr	r3, [pc, #52]	; (2d60 <hif_send+0x1d8>)
    2d2c:	200d      	movs	r0, #13
    2d2e:	4798      	blx	r3
    2d30:	e787      	b.n	2c42 <hif_send+0xba>
    2d32:	46c0      	nop			; (mov r8, r8)
    2d34:	00002b09 	.word	0x00002b09
    2d38:	0000108c 	.word	0x0000108c
    2d3c:	00003b39 	.word	0x00003b39
    2d40:	00001078 	.word	0x00001078
    2d44:	000003e7 	.word	0x000003e7
    2d48:	00003b2d 	.word	0x00003b2d
    2d4c:	00002b59 	.word	0x00002b59
    2d50:	0000b36d 	.word	0x0000b36d
    2d54:	0000cc1e 	.word	0x0000cc1e
    2d58:	0000b489 	.word	0x0000b489
    2d5c:	0000cc2a 	.word	0x0000cc2a
    2d60:	0000b3a1 	.word	0x0000b3a1
    2d64:	000026d5 	.word	0x000026d5
    2d68:	00150400 	.word	0x00150400
    2d6c:	00002b41 	.word	0x00002b41
    2d70:	00003b85 	.word	0x00003b85
    2d74:	0000106c 	.word	0x0000106c
    2d78:	0000c956 	.word	0x0000c956
    2d7c:	0000c930 	.word	0x0000c930
    2d80:	0000cc3a 	.word	0x0000cc3a

00002d84 <hif_handle_isr>:
    2d84:	b5f0      	push	{r4, r5, r6, r7, lr}
    2d86:	b089      	sub	sp, #36	; 0x24
    2d88:	4d97      	ldr	r5, [pc, #604]	; (2fe8 <hif_handle_isr+0x264>)
    2d8a:	78e8      	ldrb	r0, [r5, #3]
    2d8c:	b2c0      	uxtb	r0, r0
    2d8e:	2800      	cmp	r0, #0
    2d90:	d101      	bne.n	2d96 <hif_handle_isr+0x12>
    2d92:	b009      	add	sp, #36	; 0x24
    2d94:	bdf0      	pop	{r4, r5, r6, r7, pc}
    2d96:	78eb      	ldrb	r3, [r5, #3]
    2d98:	3b01      	subs	r3, #1
    2d9a:	b2db      	uxtb	r3, r3
    2d9c:	70eb      	strb	r3, [r5, #3]
    2d9e:	a905      	add	r1, sp, #20
    2da0:	4892      	ldr	r0, [pc, #584]	; (2fec <hif_handle_isr+0x268>)
    2da2:	4c93      	ldr	r4, [pc, #588]	; (2ff0 <hif_handle_isr+0x26c>)
    2da4:	47a0      	blx	r4
    2da6:	1e06      	subs	r6, r0, #0
    2da8:	d000      	beq.n	2dac <hif_handle_isr+0x28>
    2daa:	e110      	b.n	2fce <hif_handle_isr+0x24a>
    2dac:	2701      	movs	r7, #1
    2dae:	9b05      	ldr	r3, [sp, #20]
    2db0:	423b      	tst	r3, r7
    2db2:	d100      	bne.n	2db6 <hif_handle_isr+0x32>
    2db4:	e0fd      	b.n	2fb2 <hif_handle_isr+0x22e>
    2db6:	4b8f      	ldr	r3, [pc, #572]	; (2ff4 <hif_handle_isr+0x270>)
    2db8:	4798      	blx	r3
    2dba:	9905      	ldr	r1, [sp, #20]
    2dbc:	488b      	ldr	r0, [pc, #556]	; (2fec <hif_handle_isr+0x268>)
    2dbe:	43b9      	bics	r1, r7
    2dc0:	4b8d      	ldr	r3, [pc, #564]	; (2ff8 <hif_handle_isr+0x274>)
    2dc2:	9105      	str	r1, [sp, #20]
    2dc4:	4798      	blx	r3
    2dc6:	1e06      	subs	r6, r0, #0
    2dc8:	d11b      	bne.n	2e02 <hif_handle_isr+0x7e>
    2dca:	9b05      	ldr	r3, [sp, #20]
    2dcc:	70af      	strb	r7, [r5, #2]
    2dce:	049b      	lsls	r3, r3, #18
    2dd0:	0d1b      	lsrs	r3, r3, #20
    2dd2:	9303      	str	r3, [sp, #12]
    2dd4:	d100      	bne.n	2dd8 <hif_handle_isr+0x54>
    2dd6:	e0de      	b.n	2f96 <hif_handle_isr+0x212>
    2dd8:	9007      	str	r0, [sp, #28]
    2dda:	a907      	add	r1, sp, #28
    2ddc:	4887      	ldr	r0, [pc, #540]	; (2ffc <hif_handle_isr+0x278>)
    2dde:	47a0      	blx	r4
    2de0:	1e06      	subs	r6, r0, #0
    2de2:	d01a      	beq.n	2e1a <hif_handle_isr+0x96>
    2de4:	22c8      	movs	r2, #200	; 0xc8
    2de6:	4986      	ldr	r1, [pc, #536]	; (3000 <hif_handle_isr+0x27c>)
    2de8:	32ff      	adds	r2, #255	; 0xff
    2dea:	4886      	ldr	r0, [pc, #536]	; (3004 <hif_handle_isr+0x280>)
    2dec:	4b86      	ldr	r3, [pc, #536]	; (3008 <hif_handle_isr+0x284>)
    2dee:	4798      	blx	r3
    2df0:	4886      	ldr	r0, [pc, #536]	; (300c <hif_handle_isr+0x288>)
    2df2:	4b87      	ldr	r3, [pc, #540]	; (3010 <hif_handle_isr+0x28c>)
    2df4:	4798      	blx	r3
    2df6:	4b87      	ldr	r3, [pc, #540]	; (3014 <hif_handle_isr+0x290>)
    2df8:	200d      	movs	r0, #13
    2dfa:	4798      	blx	r3
    2dfc:	0038      	movs	r0, r7
    2dfe:	4b7d      	ldr	r3, [pc, #500]	; (2ff4 <hif_handle_isr+0x270>)
    2e00:	4798      	blx	r3
    2e02:	4a85      	ldr	r2, [pc, #532]	; (3018 <hif_handle_isr+0x294>)
    2e04:	4c80      	ldr	r4, [pc, #512]	; (3008 <hif_handle_isr+0x284>)
    2e06:	4985      	ldr	r1, [pc, #532]	; (301c <hif_handle_isr+0x298>)
    2e08:	487e      	ldr	r0, [pc, #504]	; (3004 <hif_handle_isr+0x280>)
    2e0a:	47a0      	blx	r4
    2e0c:	0031      	movs	r1, r6
    2e0e:	4884      	ldr	r0, [pc, #528]	; (3020 <hif_handle_isr+0x29c>)
    2e10:	47a0      	blx	r4
    2e12:	4b80      	ldr	r3, [pc, #512]	; (3014 <hif_handle_isr+0x290>)
    2e14:	200d      	movs	r0, #13
    2e16:	4798      	blx	r3
    2e18:	e7c1      	b.n	2d9e <hif_handle_isr+0x1a>
    2e1a:	9b07      	ldr	r3, [sp, #28]
    2e1c:	ac06      	add	r4, sp, #24
    2e1e:	606b      	str	r3, [r5, #4]
    2e20:	9b03      	ldr	r3, [sp, #12]
    2e22:	2204      	movs	r2, #4
    2e24:	60ab      	str	r3, [r5, #8]
    2e26:	0021      	movs	r1, r4
    2e28:	4b7e      	ldr	r3, [pc, #504]	; (3024 <hif_handle_isr+0x2a0>)
    2e2a:	9807      	ldr	r0, [sp, #28]
    2e2c:	4798      	blx	r3
    2e2e:	8863      	ldrh	r3, [r4, #2]
    2e30:	0006      	movs	r6, r0
    2e32:	b29b      	uxth	r3, r3
    2e34:	8063      	strh	r3, [r4, #2]
    2e36:	2800      	cmp	r0, #0
    2e38:	d007      	beq.n	2e4a <hif_handle_isr+0xc6>
    2e3a:	22d2      	movs	r2, #210	; 0xd2
    2e3c:	4970      	ldr	r1, [pc, #448]	; (3000 <hif_handle_isr+0x27c>)
    2e3e:	32ff      	adds	r2, #255	; 0xff
    2e40:	4870      	ldr	r0, [pc, #448]	; (3004 <hif_handle_isr+0x280>)
    2e42:	4b71      	ldr	r3, [pc, #452]	; (3008 <hif_handle_isr+0x284>)
    2e44:	4798      	blx	r3
    2e46:	4878      	ldr	r0, [pc, #480]	; (3028 <hif_handle_isr+0x2a4>)
    2e48:	e7d3      	b.n	2df2 <hif_handle_isr+0x6e>
    2e4a:	8863      	ldrh	r3, [r4, #2]
    2e4c:	9a03      	ldr	r2, [sp, #12]
    2e4e:	429a      	cmp	r2, r3
    2e50:	d01b      	beq.n	2e8a <hif_handle_isr+0x106>
    2e52:	8863      	ldrh	r3, [r4, #2]
    2e54:	1ad3      	subs	r3, r2, r3
    2e56:	2b04      	cmp	r3, #4
    2e58:	dd17      	ble.n	2e8a <hif_handle_isr+0x106>
    2e5a:	22ed      	movs	r2, #237	; 0xed
    2e5c:	4968      	ldr	r1, [pc, #416]	; (3000 <hif_handle_isr+0x27c>)
    2e5e:	0052      	lsls	r2, r2, #1
    2e60:	4e69      	ldr	r6, [pc, #420]	; (3008 <hif_handle_isr+0x284>)
    2e62:	4868      	ldr	r0, [pc, #416]	; (3004 <hif_handle_isr+0x280>)
    2e64:	47b0      	blx	r6
    2e66:	8862      	ldrh	r2, [r4, #2]
    2e68:	7823      	ldrb	r3, [r4, #0]
    2e6a:	7861      	ldrb	r1, [r4, #1]
    2e6c:	b292      	uxth	r2, r2
    2e6e:	b2db      	uxtb	r3, r3
    2e70:	9100      	str	r1, [sp, #0]
    2e72:	486e      	ldr	r0, [pc, #440]	; (302c <hif_handle_isr+0x2a8>)
    2e74:	9903      	ldr	r1, [sp, #12]
    2e76:	47b0      	blx	r6
    2e78:	4b66      	ldr	r3, [pc, #408]	; (3014 <hif_handle_isr+0x290>)
    2e7a:	200d      	movs	r0, #13
    2e7c:	4798      	blx	r3
    2e7e:	0038      	movs	r0, r7
    2e80:	4b5c      	ldr	r3, [pc, #368]	; (2ff4 <hif_handle_isr+0x270>)
    2e82:	4798      	blx	r3
    2e84:	2606      	movs	r6, #6
    2e86:	4276      	negs	r6, r6
    2e88:	e7bb      	b.n	2e02 <hif_handle_isr+0x7e>
    2e8a:	7823      	ldrb	r3, [r4, #0]
    2e8c:	2b01      	cmp	r3, #1
    2e8e:	d130      	bne.n	2ef2 <hif_handle_isr+0x16e>
    2e90:	68eb      	ldr	r3, [r5, #12]
    2e92:	2b00      	cmp	r3, #0
    2e94:	d020      	beq.n	2ed8 <hif_handle_isr+0x154>
    2e96:	68eb      	ldr	r3, [r5, #12]
    2e98:	7860      	ldrb	r0, [r4, #1]
    2e9a:	8861      	ldrh	r1, [r4, #2]
    2e9c:	9a07      	ldr	r2, [sp, #28]
    2e9e:	3908      	subs	r1, #8
    2ea0:	b2c0      	uxtb	r0, r0
    2ea2:	3208      	adds	r2, #8
    2ea4:	b289      	uxth	r1, r1
    2ea6:	4798      	blx	r3
    2ea8:	78ab      	ldrb	r3, [r5, #2]
    2eaa:	2b00      	cmp	r3, #0
    2eac:	d100      	bne.n	2eb0 <hif_handle_isr+0x12c>
    2eae:	e76b      	b.n	2d88 <hif_handle_isr+0x4>
    2eb0:	4e55      	ldr	r6, [pc, #340]	; (3008 <hif_handle_isr+0x284>)
    2eb2:	4a5f      	ldr	r2, [pc, #380]	; (3030 <hif_handle_isr+0x2ac>)
    2eb4:	4952      	ldr	r1, [pc, #328]	; (3000 <hif_handle_isr+0x27c>)
    2eb6:	4853      	ldr	r0, [pc, #332]	; (3004 <hif_handle_isr+0x280>)
    2eb8:	47b0      	blx	r6
    2eba:	7821      	ldrb	r1, [r4, #0]
    2ebc:	7862      	ldrb	r2, [r4, #1]
    2ebe:	b2c9      	uxtb	r1, r1
    2ec0:	b2d2      	uxtb	r2, r2
    2ec2:	485c      	ldr	r0, [pc, #368]	; (3034 <hif_handle_isr+0x2b0>)
    2ec4:	47b0      	blx	r6
    2ec6:	4b53      	ldr	r3, [pc, #332]	; (3014 <hif_handle_isr+0x290>)
    2ec8:	200d      	movs	r0, #13
    2eca:	4798      	blx	r3
    2ecc:	4b5a      	ldr	r3, [pc, #360]	; (3038 <hif_handle_isr+0x2b4>)
    2ece:	4798      	blx	r3
    2ed0:	1e06      	subs	r6, r0, #0
    2ed2:	d100      	bne.n	2ed6 <hif_handle_isr+0x152>
    2ed4:	e758      	b.n	2d88 <hif_handle_isr+0x4>
    2ed6:	e794      	b.n	2e02 <hif_handle_isr+0x7e>
    2ed8:	22f3      	movs	r2, #243	; 0xf3
    2eda:	4949      	ldr	r1, [pc, #292]	; (3000 <hif_handle_isr+0x27c>)
    2edc:	0052      	lsls	r2, r2, #1
    2ede:	4849      	ldr	r0, [pc, #292]	; (3004 <hif_handle_isr+0x280>)
    2ee0:	4b49      	ldr	r3, [pc, #292]	; (3008 <hif_handle_isr+0x284>)
    2ee2:	4798      	blx	r3
    2ee4:	4855      	ldr	r0, [pc, #340]	; (303c <hif_handle_isr+0x2b8>)
    2ee6:	4b4a      	ldr	r3, [pc, #296]	; (3010 <hif_handle_isr+0x28c>)
    2ee8:	4798      	blx	r3
    2eea:	4b4a      	ldr	r3, [pc, #296]	; (3014 <hif_handle_isr+0x290>)
    2eec:	200d      	movs	r0, #13
    2eee:	4798      	blx	r3
    2ef0:	e7da      	b.n	2ea8 <hif_handle_isr+0x124>
    2ef2:	7823      	ldrb	r3, [r4, #0]
    2ef4:	2b02      	cmp	r3, #2
    2ef6:	d10c      	bne.n	2f12 <hif_handle_isr+0x18e>
    2ef8:	692b      	ldr	r3, [r5, #16]
    2efa:	2b00      	cmp	r3, #0
    2efc:	d001      	beq.n	2f02 <hif_handle_isr+0x17e>
    2efe:	692b      	ldr	r3, [r5, #16]
    2f00:	e7ca      	b.n	2e98 <hif_handle_isr+0x114>
    2f02:	22f7      	movs	r2, #247	; 0xf7
    2f04:	493e      	ldr	r1, [pc, #248]	; (3000 <hif_handle_isr+0x27c>)
    2f06:	0052      	lsls	r2, r2, #1
    2f08:	483e      	ldr	r0, [pc, #248]	; (3004 <hif_handle_isr+0x280>)
    2f0a:	4b3f      	ldr	r3, [pc, #252]	; (3008 <hif_handle_isr+0x284>)
    2f0c:	4798      	blx	r3
    2f0e:	484c      	ldr	r0, [pc, #304]	; (3040 <hif_handle_isr+0x2bc>)
    2f10:	e7e9      	b.n	2ee6 <hif_handle_isr+0x162>
    2f12:	7823      	ldrb	r3, [r4, #0]
    2f14:	2b04      	cmp	r3, #4
    2f16:	d10c      	bne.n	2f32 <hif_handle_isr+0x1ae>
    2f18:	696b      	ldr	r3, [r5, #20]
    2f1a:	2b00      	cmp	r3, #0
    2f1c:	d001      	beq.n	2f22 <hif_handle_isr+0x19e>
    2f1e:	696b      	ldr	r3, [r5, #20]
    2f20:	e7ba      	b.n	2e98 <hif_handle_isr+0x114>
    2f22:	22fb      	movs	r2, #251	; 0xfb
    2f24:	4936      	ldr	r1, [pc, #216]	; (3000 <hif_handle_isr+0x27c>)
    2f26:	0052      	lsls	r2, r2, #1
    2f28:	4836      	ldr	r0, [pc, #216]	; (3004 <hif_handle_isr+0x280>)
    2f2a:	4b37      	ldr	r3, [pc, #220]	; (3008 <hif_handle_isr+0x284>)
    2f2c:	4798      	blx	r3
    2f2e:	4845      	ldr	r0, [pc, #276]	; (3044 <hif_handle_isr+0x2c0>)
    2f30:	e7d9      	b.n	2ee6 <hif_handle_isr+0x162>
    2f32:	7823      	ldrb	r3, [r4, #0]
    2f34:	2b06      	cmp	r3, #6
    2f36:	d10b      	bne.n	2f50 <hif_handle_isr+0x1cc>
    2f38:	6a2b      	ldr	r3, [r5, #32]
    2f3a:	2b00      	cmp	r3, #0
    2f3c:	d001      	beq.n	2f42 <hif_handle_isr+0x1be>
    2f3e:	6a2b      	ldr	r3, [r5, #32]
    2f40:	e7aa      	b.n	2e98 <hif_handle_isr+0x114>
    2f42:	4a41      	ldr	r2, [pc, #260]	; (3048 <hif_handle_isr+0x2c4>)
    2f44:	492e      	ldr	r1, [pc, #184]	; (3000 <hif_handle_isr+0x27c>)
    2f46:	482f      	ldr	r0, [pc, #188]	; (3004 <hif_handle_isr+0x280>)
    2f48:	4b2f      	ldr	r3, [pc, #188]	; (3008 <hif_handle_isr+0x284>)
    2f4a:	4798      	blx	r3
    2f4c:	483f      	ldr	r0, [pc, #252]	; (304c <hif_handle_isr+0x2c8>)
    2f4e:	e7ca      	b.n	2ee6 <hif_handle_isr+0x162>
    2f50:	7823      	ldrb	r3, [r4, #0]
    2f52:	2b07      	cmp	r3, #7
    2f54:	d10b      	bne.n	2f6e <hif_handle_isr+0x1ea>
    2f56:	69ab      	ldr	r3, [r5, #24]
    2f58:	2b00      	cmp	r3, #0
    2f5a:	d001      	beq.n	2f60 <hif_handle_isr+0x1dc>
    2f5c:	69ab      	ldr	r3, [r5, #24]
    2f5e:	e79b      	b.n	2e98 <hif_handle_isr+0x114>
    2f60:	4a3b      	ldr	r2, [pc, #236]	; (3050 <hif_handle_isr+0x2cc>)
    2f62:	4927      	ldr	r1, [pc, #156]	; (3000 <hif_handle_isr+0x27c>)
    2f64:	4827      	ldr	r0, [pc, #156]	; (3004 <hif_handle_isr+0x280>)
    2f66:	4b28      	ldr	r3, [pc, #160]	; (3008 <hif_handle_isr+0x284>)
    2f68:	4798      	blx	r3
    2f6a:	483a      	ldr	r0, [pc, #232]	; (3054 <hif_handle_isr+0x2d0>)
    2f6c:	e7bb      	b.n	2ee6 <hif_handle_isr+0x162>
    2f6e:	7823      	ldrb	r3, [r4, #0]
    2f70:	2b05      	cmp	r3, #5
    2f72:	d104      	bne.n	2f7e <hif_handle_isr+0x1fa>
    2f74:	6a6b      	ldr	r3, [r5, #36]	; 0x24
    2f76:	2b00      	cmp	r3, #0
    2f78:	d096      	beq.n	2ea8 <hif_handle_isr+0x124>
    2f7a:	6a6b      	ldr	r3, [r5, #36]	; 0x24
    2f7c:	e78c      	b.n	2e98 <hif_handle_isr+0x114>
    2f7e:	4a36      	ldr	r2, [pc, #216]	; (3058 <hif_handle_isr+0x2d4>)
    2f80:	491f      	ldr	r1, [pc, #124]	; (3000 <hif_handle_isr+0x27c>)
    2f82:	4b21      	ldr	r3, [pc, #132]	; (3008 <hif_handle_isr+0x284>)
    2f84:	481f      	ldr	r0, [pc, #124]	; (3004 <hif_handle_isr+0x280>)
    2f86:	4798      	blx	r3
    2f88:	4b21      	ldr	r3, [pc, #132]	; (3010 <hif_handle_isr+0x28c>)
    2f8a:	4834      	ldr	r0, [pc, #208]	; (305c <hif_handle_isr+0x2d8>)
    2f8c:	4798      	blx	r3
    2f8e:	4b21      	ldr	r3, [pc, #132]	; (3014 <hif_handle_isr+0x290>)
    2f90:	200d      	movs	r0, #13
    2f92:	4798      	blx	r3
    2f94:	e776      	b.n	2e84 <hif_handle_isr+0x100>
    2f96:	2287      	movs	r2, #135	; 0x87
    2f98:	4919      	ldr	r1, [pc, #100]	; (3000 <hif_handle_isr+0x27c>)
    2f9a:	0092      	lsls	r2, r2, #2
    2f9c:	4b1a      	ldr	r3, [pc, #104]	; (3008 <hif_handle_isr+0x284>)
    2f9e:	4819      	ldr	r0, [pc, #100]	; (3004 <hif_handle_isr+0x280>)
    2fa0:	4798      	blx	r3
    2fa2:	4b1b      	ldr	r3, [pc, #108]	; (3010 <hif_handle_isr+0x28c>)
    2fa4:	482e      	ldr	r0, [pc, #184]	; (3060 <hif_handle_isr+0x2dc>)
    2fa6:	4798      	blx	r3
    2fa8:	200d      	movs	r0, #13
    2faa:	4b1a      	ldr	r3, [pc, #104]	; (3014 <hif_handle_isr+0x290>)
    2fac:	4798      	blx	r3
    2fae:	2602      	movs	r6, #2
    2fb0:	e769      	b.n	2e86 <hif_handle_isr+0x102>
    2fb2:	2289      	movs	r2, #137	; 0x89
    2fb4:	4912      	ldr	r1, [pc, #72]	; (3000 <hif_handle_isr+0x27c>)
    2fb6:	0092      	lsls	r2, r2, #2
    2fb8:	4c13      	ldr	r4, [pc, #76]	; (3008 <hif_handle_isr+0x284>)
    2fba:	4812      	ldr	r0, [pc, #72]	; (3004 <hif_handle_isr+0x280>)
    2fbc:	47a0      	blx	r4
    2fbe:	9905      	ldr	r1, [sp, #20]
    2fc0:	4828      	ldr	r0, [pc, #160]	; (3064 <hif_handle_isr+0x2e0>)
    2fc2:	47a0      	blx	r4
    2fc4:	200d      	movs	r0, #13
    2fc6:	4b13      	ldr	r3, [pc, #76]	; (3014 <hif_handle_isr+0x290>)
    2fc8:	4798      	blx	r3
    2fca:	260c      	movs	r6, #12
    2fcc:	e75b      	b.n	2e86 <hif_handle_isr+0x102>
    2fce:	4a26      	ldr	r2, [pc, #152]	; (3068 <hif_handle_isr+0x2e4>)
    2fd0:	490b      	ldr	r1, [pc, #44]	; (3000 <hif_handle_isr+0x27c>)
    2fd2:	4b0d      	ldr	r3, [pc, #52]	; (3008 <hif_handle_isr+0x284>)
    2fd4:	480b      	ldr	r0, [pc, #44]	; (3004 <hif_handle_isr+0x280>)
    2fd6:	4798      	blx	r3
    2fd8:	4b0d      	ldr	r3, [pc, #52]	; (3010 <hif_handle_isr+0x28c>)
    2fda:	4824      	ldr	r0, [pc, #144]	; (306c <hif_handle_isr+0x2e8>)
    2fdc:	4798      	blx	r3
    2fde:	4b0d      	ldr	r3, [pc, #52]	; (3014 <hif_handle_isr+0x290>)
    2fe0:	200d      	movs	r0, #13
    2fe2:	4798      	blx	r3
    2fe4:	e70d      	b.n	2e02 <hif_handle_isr+0x7e>
    2fe6:	46c0      	nop			; (mov r8, r8)
    2fe8:	20001744 	.word	0x20001744
    2fec:	00001070 	.word	0x00001070
    2ff0:	00003b2d 	.word	0x00003b2d
    2ff4:	000027e5 	.word	0x000027e5
    2ff8:	00003b39 	.word	0x00003b39
    2ffc:	00001084 	.word	0x00001084
    3000:	0000c95f 	.word	0x0000c95f
    3004:	0000c930 	.word	0x0000c930
    3008:	0000b36d 	.word	0x0000b36d
    300c:	0000c992 	.word	0x0000c992
    3010:	0000b489 	.word	0x0000b489
    3014:	0000b3a1 	.word	0x0000b3a1
    3018:	0000024a 	.word	0x0000024a
    301c:	0000c967 	.word	0x0000c967
    3020:	0000cb3e 	.word	0x0000cb3e
    3024:	00003b45 	.word	0x00003b45
    3028:	0000c9b6 	.word	0x0000c9b6
    302c:	0000c9cd 	.word	0x0000c9cd
    3030:	00000215 	.word	0x00000215
    3034:	0000cac6 	.word	0x0000cac6
    3038:	00002ac9 	.word	0x00002ac9
    303c:	0000ca0b 	.word	0x0000ca0b
    3040:	0000ca2b 	.word	0x0000ca2b
    3044:	0000ca4d 	.word	0x0000ca4d
    3048:	000001ff 	.word	0x000001ff
    304c:	0000ca6c 	.word	0x0000ca6c
    3050:	00000206 	.word	0x00000206
    3054:	0000ca8e 	.word	0x0000ca8e
    3058:	0000020f 	.word	0x0000020f
    305c:	0000caaf 	.word	0x0000caaf
    3060:	0000caf2 	.word	0x0000caf2
    3064:	0000cb03 	.word	0x0000cb03
    3068:	0000022d 	.word	0x0000022d
    306c:	0000cb1d 	.word	0x0000cb1d

00003070 <hif_receive>:
    3070:	b5f8      	push	{r3, r4, r5, r6, r7, lr}
    3072:	0017      	movs	r7, r2
    3074:	001d      	movs	r5, r3
    3076:	2800      	cmp	r0, #0
    3078:	d003      	beq.n	3082 <hif_receive+0x12>
    307a:	2900      	cmp	r1, #0
    307c:	d001      	beq.n	3082 <hif_receive+0x12>
    307e:	2a00      	cmp	r2, #0
    3080:	d10d      	bne.n	309e <hif_receive+0x2e>
    3082:	2d00      	cmp	r5, #0
    3084:	d002      	beq.n	308c <hif_receive+0x1c>
    3086:	4b1e      	ldr	r3, [pc, #120]	; (3100 <hif_receive+0x90>)
    3088:	4798      	blx	r3
    308a:	e01a      	b.n	30c2 <hif_receive+0x52>
    308c:	4a1d      	ldr	r2, [pc, #116]	; (3104 <hif_receive+0x94>)
    308e:	491e      	ldr	r1, [pc, #120]	; (3108 <hif_receive+0x98>)
    3090:	481e      	ldr	r0, [pc, #120]	; (310c <hif_receive+0x9c>)
    3092:	4b1f      	ldr	r3, [pc, #124]	; (3110 <hif_receive+0xa0>)
    3094:	4798      	blx	r3
    3096:	481f      	ldr	r0, [pc, #124]	; (3114 <hif_receive+0xa4>)
    3098:	4b1f      	ldr	r3, [pc, #124]	; (3118 <hif_receive+0xa8>)
    309a:	4798      	blx	r3
    309c:	e00c      	b.n	30b8 <hif_receive+0x48>
    309e:	4c1f      	ldr	r4, [pc, #124]	; (311c <hif_receive+0xac>)
    30a0:	68a3      	ldr	r3, [r4, #8]
    30a2:	429a      	cmp	r2, r3
    30a4:	d90e      	bls.n	30c4 <hif_receive+0x54>
    30a6:	4a1e      	ldr	r2, [pc, #120]	; (3120 <hif_receive+0xb0>)
    30a8:	4917      	ldr	r1, [pc, #92]	; (3108 <hif_receive+0x98>)
    30aa:	4818      	ldr	r0, [pc, #96]	; (310c <hif_receive+0x9c>)
    30ac:	4d18      	ldr	r5, [pc, #96]	; (3110 <hif_receive+0xa0>)
    30ae:	47a8      	blx	r5
    30b0:	68a2      	ldr	r2, [r4, #8]
    30b2:	0039      	movs	r1, r7
    30b4:	481b      	ldr	r0, [pc, #108]	; (3124 <hif_receive+0xb4>)
    30b6:	47a8      	blx	r5
    30b8:	200d      	movs	r0, #13
    30ba:	4b1b      	ldr	r3, [pc, #108]	; (3128 <hif_receive+0xb8>)
    30bc:	4798      	blx	r3
    30be:	200c      	movs	r0, #12
    30c0:	4240      	negs	r0, r0
    30c2:	bdf8      	pop	{r3, r4, r5, r6, r7, pc}
    30c4:	6863      	ldr	r3, [r4, #4]
    30c6:	4298      	cmp	r0, r3
    30c8:	d305      	bcc.n	30d6 <hif_receive+0x66>
    30ca:	6863      	ldr	r3, [r4, #4]
    30cc:	1886      	adds	r6, r0, r2
    30ce:	68a2      	ldr	r2, [r4, #8]
    30d0:	189b      	adds	r3, r3, r2
    30d2:	429e      	cmp	r6, r3
    30d4:	d906      	bls.n	30e4 <hif_receive+0x74>
    30d6:	4a15      	ldr	r2, [pc, #84]	; (312c <hif_receive+0xbc>)
    30d8:	490b      	ldr	r1, [pc, #44]	; (3108 <hif_receive+0x98>)
    30da:	480c      	ldr	r0, [pc, #48]	; (310c <hif_receive+0x9c>)
    30dc:	4b0c      	ldr	r3, [pc, #48]	; (3110 <hif_receive+0xa0>)
    30de:	4798      	blx	r3
    30e0:	4813      	ldr	r0, [pc, #76]	; (3130 <hif_receive+0xc0>)
    30e2:	e7d9      	b.n	3098 <hif_receive+0x28>
    30e4:	003a      	movs	r2, r7
    30e6:	4b13      	ldr	r3, [pc, #76]	; (3134 <hif_receive+0xc4>)
    30e8:	4798      	blx	r3
    30ea:	2800      	cmp	r0, #0
    30ec:	d1e9      	bne.n	30c2 <hif_receive+0x52>
    30ee:	6863      	ldr	r3, [r4, #4]
    30f0:	68a2      	ldr	r2, [r4, #8]
    30f2:	189b      	adds	r3, r3, r2
    30f4:	429e      	cmp	r6, r3
    30f6:	d0c6      	beq.n	3086 <hif_receive+0x16>
    30f8:	2d00      	cmp	r5, #0
    30fa:	d1c4      	bne.n	3086 <hif_receive+0x16>
    30fc:	e7e1      	b.n	30c2 <hif_receive+0x52>
    30fe:	46c0      	nop			; (mov r8, r8)
    3100:	00002ac9 	.word	0x00002ac9
    3104:	0000026b 	.word	0x0000026b
    3108:	0000c976 	.word	0x0000c976
    310c:	0000c930 	.word	0x0000c930
    3110:	0000b36d 	.word	0x0000b36d
    3114:	0000cb6d 	.word	0x0000cb6d
    3118:	0000b489 	.word	0x0000b489
    311c:	20001744 	.word	0x20001744
    3120:	00000273 	.word	0x00000273
    3124:	0000cb8c 	.word	0x0000cb8c
    3128:	0000b3a1 	.word	0x0000b3a1
    312c:	00000279 	.word	0x00000279
    3130:	0000cbd1 	.word	0x0000cbd1
    3134:	00003b45 	.word	0x00003b45

00003138 <hif_register_cb>:
    3138:	b570      	push	{r4, r5, r6, lr}
    313a:	0005      	movs	r5, r0
    313c:	3801      	subs	r0, #1
    313e:	2806      	cmp	r0, #6
    3140:	d815      	bhi.n	316e <hif_register_cb+0x36>
    3142:	4b12      	ldr	r3, [pc, #72]	; (318c <hif_register_cb+0x54>)
    3144:	f006 f9ee 	bl	9524 <__gnu_thumb1_case_uqi>
    3148:	090b0407 	.word	0x090b0407
    314c:	0d11      	.short	0x0d11
    314e:	0f          	.byte	0x0f
    314f:	00          	.byte	0x00
    3150:	6119      	str	r1, [r3, #16]
    3152:	2000      	movs	r0, #0
    3154:	bd70      	pop	{r4, r5, r6, pc}
    3156:	60d9      	str	r1, [r3, #12]
    3158:	e7fb      	b.n	3152 <hif_register_cb+0x1a>
    315a:	6159      	str	r1, [r3, #20]
    315c:	e7f9      	b.n	3152 <hif_register_cb+0x1a>
    315e:	61d9      	str	r1, [r3, #28]
    3160:	e7f7      	b.n	3152 <hif_register_cb+0x1a>
    3162:	6219      	str	r1, [r3, #32]
    3164:	e7f5      	b.n	3152 <hif_register_cb+0x1a>
    3166:	6199      	str	r1, [r3, #24]
    3168:	e7f3      	b.n	3152 <hif_register_cb+0x1a>
    316a:	6259      	str	r1, [r3, #36]	; 0x24
    316c:	e7f1      	b.n	3152 <hif_register_cb+0x1a>
    316e:	4a08      	ldr	r2, [pc, #32]	; (3190 <hif_register_cb+0x58>)
    3170:	4908      	ldr	r1, [pc, #32]	; (3194 <hif_register_cb+0x5c>)
    3172:	4c09      	ldr	r4, [pc, #36]	; (3198 <hif_register_cb+0x60>)
    3174:	4809      	ldr	r0, [pc, #36]	; (319c <hif_register_cb+0x64>)
    3176:	47a0      	blx	r4
    3178:	0029      	movs	r1, r5
    317a:	4809      	ldr	r0, [pc, #36]	; (31a0 <hif_register_cb+0x68>)
    317c:	47a0      	blx	r4
    317e:	200d      	movs	r0, #13
    3180:	4b08      	ldr	r3, [pc, #32]	; (31a4 <hif_register_cb+0x6c>)
    3182:	4798      	blx	r3
    3184:	200c      	movs	r0, #12
    3186:	4240      	negs	r0, r0
    3188:	e7e4      	b.n	3154 <hif_register_cb+0x1c>
    318a:	46c0      	nop			; (mov r8, r8)
    318c:	20001744 	.word	0x20001744
    3190:	000002b1 	.word	0x000002b1
    3194:	0000c982 	.word	0x0000c982
    3198:	0000b36d 	.word	0x0000b36d
    319c:	0000c930 	.word	0x0000c930
    31a0:	0000cc14 	.word	0x0000cc14
    31a4:	0000b3a1 	.word	0x0000b3a1

000031a8 <hif_init>:
    31a8:	b510      	push	{r4, lr}
    31aa:	2228      	movs	r2, #40	; 0x28
    31ac:	2100      	movs	r1, #0
    31ae:	4806      	ldr	r0, [pc, #24]	; (31c8 <hif_init+0x20>)
    31b0:	4b06      	ldr	r3, [pc, #24]	; (31cc <hif_init+0x24>)
    31b2:	4798      	blx	r3
    31b4:	4806      	ldr	r0, [pc, #24]	; (31d0 <hif_init+0x28>)
    31b6:	4b07      	ldr	r3, [pc, #28]	; (31d4 <hif_init+0x2c>)
    31b8:	4798      	blx	r3
    31ba:	4907      	ldr	r1, [pc, #28]	; (31d8 <hif_init+0x30>)
    31bc:	2003      	movs	r0, #3
    31be:	4b07      	ldr	r3, [pc, #28]	; (31dc <hif_init+0x34>)
    31c0:	4798      	blx	r3
    31c2:	2000      	movs	r0, #0
    31c4:	bd10      	pop	{r4, pc}
    31c6:	46c0      	nop			; (mov r8, r8)
    31c8:	20001744 	.word	0x20001744
    31cc:	00002a93 	.word	0x00002a93
    31d0:	00002ab5 	.word	0x00002ab5
    31d4:	0000278d 	.word	0x0000278d
    31d8:	00002ac5 	.word	0x00002ac5
    31dc:	00003139 	.word	0x00003139

000031e0 <m2m_wifi_cb>:
    31e0:	b5f0      	push	{r4, r5, r6, r7, lr}
    31e2:	0004      	movs	r4, r0
    31e4:	b09d      	sub	sp, #116	; 0x74
    31e6:	0015      	movs	r5, r2
    31e8:	282c      	cmp	r0, #44	; 0x2c
    31ea:	d102      	bne.n	31f2 <m2m_wifi_cb+0x12>
    31ec:	2300      	movs	r3, #0
    31ee:	2204      	movs	r2, #4
    31f0:	e003      	b.n	31fa <m2m_wifi_cb+0x1a>
    31f2:	281b      	cmp	r0, #27
    31f4:	d10e      	bne.n	3214 <m2m_wifi_cb+0x34>
    31f6:	2300      	movs	r3, #0
    31f8:	2208      	movs	r2, #8
    31fa:	0028      	movs	r0, r5
    31fc:	a903      	add	r1, sp, #12
    31fe:	4d57      	ldr	r5, [pc, #348]	; (335c <m2m_wifi_cb+0x17c>)
    3200:	47a8      	blx	r5
    3202:	2800      	cmp	r0, #0
    3204:	d13c      	bne.n	3280 <m2m_wifi_cb+0xa0>
    3206:	4b56      	ldr	r3, [pc, #344]	; (3360 <m2m_wifi_cb+0x180>)
    3208:	a903      	add	r1, sp, #12
    320a:	681b      	ldr	r3, [r3, #0]
    320c:	2b00      	cmp	r3, #0
    320e:	d037      	beq.n	3280 <m2m_wifi_cb+0xa0>
    3210:	0020      	movs	r0, r4
    3212:	e04d      	b.n	32b0 <m2m_wifi_cb+0xd0>
    3214:	2806      	cmp	r0, #6
    3216:	d102      	bne.n	321e <m2m_wifi_cb+0x3e>
    3218:	2301      	movs	r3, #1
    321a:	2230      	movs	r2, #48	; 0x30
    321c:	e7ed      	b.n	31fa <m2m_wifi_cb+0x1a>
    321e:	280e      	cmp	r0, #14
    3220:	d02e      	beq.n	3280 <m2m_wifi_cb+0xa0>
    3222:	2832      	cmp	r0, #50	; 0x32
    3224:	d102      	bne.n	322c <m2m_wifi_cb+0x4c>
    3226:	2300      	movs	r3, #0
    3228:	2214      	movs	r2, #20
    322a:	e7e6      	b.n	31fa <m2m_wifi_cb+0x1a>
    322c:	282f      	cmp	r0, #47	; 0x2f
    322e:	d107      	bne.n	3240 <m2m_wifi_cb+0x60>
    3230:	4b4c      	ldr	r3, [pc, #304]	; (3364 <m2m_wifi_cb+0x184>)
    3232:	2264      	movs	r2, #100	; 0x64
    3234:	2100      	movs	r1, #0
    3236:	a803      	add	r0, sp, #12
    3238:	4798      	blx	r3
    323a:	2300      	movs	r3, #0
    323c:	2264      	movs	r2, #100	; 0x64
    323e:	e7dc      	b.n	31fa <m2m_wifi_cb+0x1a>
    3240:	2834      	cmp	r0, #52	; 0x34
    3242:	d11f      	bne.n	3284 <m2m_wifi_cb+0xa4>
    3244:	0028      	movs	r0, r5
    3246:	2300      	movs	r3, #0
    3248:	4d44      	ldr	r5, [pc, #272]	; (335c <m2m_wifi_cb+0x17c>)
    324a:	2204      	movs	r2, #4
    324c:	a903      	add	r1, sp, #12
    324e:	47a8      	blx	r5
    3250:	1e05      	subs	r5, r0, #0
    3252:	d115      	bne.n	3280 <m2m_wifi_cb+0xa0>
    3254:	27ff      	movs	r7, #255	; 0xff
    3256:	4e44      	ldr	r6, [pc, #272]	; (3368 <m2m_wifi_cb+0x188>)
    3258:	4844      	ldr	r0, [pc, #272]	; (336c <m2m_wifi_cb+0x18c>)
    325a:	47b0      	blx	r6
    325c:	9803      	ldr	r0, [sp, #12]
    325e:	0e01      	lsrs	r1, r0, #24
    3260:	0a03      	lsrs	r3, r0, #8
    3262:	0c02      	lsrs	r2, r0, #16
    3264:	4038      	ands	r0, r7
    3266:	403b      	ands	r3, r7
    3268:	403a      	ands	r2, r7
    326a:	9000      	str	r0, [sp, #0]
    326c:	4840      	ldr	r0, [pc, #256]	; (3370 <m2m_wifi_cb+0x190>)
    326e:	47b0      	blx	r6
    3270:	4b40      	ldr	r3, [pc, #256]	; (3374 <m2m_wifi_cb+0x194>)
    3272:	200d      	movs	r0, #13
    3274:	4798      	blx	r3
    3276:	4b3a      	ldr	r3, [pc, #232]	; (3360 <m2m_wifi_cb+0x180>)
    3278:	0029      	movs	r1, r5
    327a:	681b      	ldr	r3, [r3, #0]
    327c:	2b00      	cmp	r3, #0
    327e:	d1c7      	bne.n	3210 <m2m_wifi_cb+0x30>
    3280:	b01d      	add	sp, #116	; 0x74
    3282:	bdf0      	pop	{r4, r5, r6, r7, pc}
    3284:	2811      	cmp	r0, #17
    3286:	d115      	bne.n	32b4 <m2m_wifi_cb+0xd4>
    3288:	2300      	movs	r3, #0
    328a:	4a3b      	ldr	r2, [pc, #236]	; (3378 <m2m_wifi_cb+0x198>)
    328c:	ac03      	add	r4, sp, #12
    328e:	7013      	strb	r3, [r2, #0]
    3290:	0028      	movs	r0, r5
    3292:	2204      	movs	r2, #4
    3294:	0021      	movs	r1, r4
    3296:	4d31      	ldr	r5, [pc, #196]	; (335c <m2m_wifi_cb+0x17c>)
    3298:	47a8      	blx	r5
    329a:	2800      	cmp	r0, #0
    329c:	d1f0      	bne.n	3280 <m2m_wifi_cb+0xa0>
    329e:	4b37      	ldr	r3, [pc, #220]	; (337c <m2m_wifi_cb+0x19c>)
    32a0:	7822      	ldrb	r2, [r4, #0]
    32a2:	701a      	strb	r2, [r3, #0]
    32a4:	4b2e      	ldr	r3, [pc, #184]	; (3360 <m2m_wifi_cb+0x180>)
    32a6:	681b      	ldr	r3, [r3, #0]
    32a8:	2b00      	cmp	r3, #0
    32aa:	d0e9      	beq.n	3280 <m2m_wifi_cb+0xa0>
    32ac:	0021      	movs	r1, r4
    32ae:	3011      	adds	r0, #17
    32b0:	4798      	blx	r3
    32b2:	e7e5      	b.n	3280 <m2m_wifi_cb+0xa0>
    32b4:	2813      	cmp	r0, #19
    32b6:	d10e      	bne.n	32d6 <m2m_wifi_cb+0xf6>
    32b8:	2300      	movs	r3, #0
    32ba:	222c      	movs	r2, #44	; 0x2c
    32bc:	a903      	add	r1, sp, #12
    32be:	0028      	movs	r0, r5
    32c0:	4c26      	ldr	r4, [pc, #152]	; (335c <m2m_wifi_cb+0x17c>)
    32c2:	47a0      	blx	r4
    32c4:	2800      	cmp	r0, #0
    32c6:	d1db      	bne.n	3280 <m2m_wifi_cb+0xa0>
    32c8:	4b25      	ldr	r3, [pc, #148]	; (3360 <m2m_wifi_cb+0x180>)
    32ca:	681b      	ldr	r3, [r3, #0]
    32cc:	2b00      	cmp	r3, #0
    32ce:	d0d7      	beq.n	3280 <m2m_wifi_cb+0xa0>
    32d0:	a903      	add	r1, sp, #12
    32d2:	3013      	adds	r0, #19
    32d4:	e7ec      	b.n	32b0 <m2m_wifi_cb+0xd0>
    32d6:	2804      	cmp	r0, #4
    32d8:	d10e      	bne.n	32f8 <m2m_wifi_cb+0x118>
    32da:	2300      	movs	r3, #0
    32dc:	2204      	movs	r2, #4
    32de:	a903      	add	r1, sp, #12
    32e0:	0028      	movs	r0, r5
    32e2:	4c1e      	ldr	r4, [pc, #120]	; (335c <m2m_wifi_cb+0x17c>)
    32e4:	47a0      	blx	r4
    32e6:	2800      	cmp	r0, #0
    32e8:	d1ca      	bne.n	3280 <m2m_wifi_cb+0xa0>
    32ea:	4b1d      	ldr	r3, [pc, #116]	; (3360 <m2m_wifi_cb+0x180>)
    32ec:	681b      	ldr	r3, [r3, #0]
    32ee:	2b00      	cmp	r3, #0
    32f0:	d0c6      	beq.n	3280 <m2m_wifi_cb+0xa0>
    32f2:	a903      	add	r1, sp, #12
    32f4:	3004      	adds	r0, #4
    32f6:	e7db      	b.n	32b0 <m2m_wifi_cb+0xd0>
    32f8:	2865      	cmp	r0, #101	; 0x65
    32fa:	d100      	bne.n	32fe <m2m_wifi_cb+0x11e>
    32fc:	e776      	b.n	31ec <m2m_wifi_cb+0xc>
    32fe:	2809      	cmp	r0, #9
    3300:	d101      	bne.n	3306 <m2m_wifi_cb+0x126>
    3302:	2301      	movs	r3, #1
    3304:	e79a      	b.n	323c <m2m_wifi_cb+0x5c>
    3306:	282a      	cmp	r0, #42	; 0x2a
    3308:	d101      	bne.n	330e <m2m_wifi_cb+0x12e>
    330a:	2301      	movs	r3, #1
    330c:	e76f      	b.n	31ee <m2m_wifi_cb+0xe>
    330e:	2820      	cmp	r0, #32
    3310:	d116      	bne.n	3340 <m2m_wifi_cb+0x160>
    3312:	ae03      	add	r6, sp, #12
    3314:	2300      	movs	r3, #0
    3316:	2208      	movs	r2, #8
    3318:	0031      	movs	r1, r6
    331a:	0028      	movs	r0, r5
    331c:	4f0f      	ldr	r7, [pc, #60]	; (335c <m2m_wifi_cb+0x17c>)
    331e:	47b8      	blx	r7
    3320:	2800      	cmp	r0, #0
    3322:	d1ad      	bne.n	3280 <m2m_wifi_cb+0xa0>
    3324:	0028      	movs	r0, r5
    3326:	88b2      	ldrh	r2, [r6, #4]
    3328:	3008      	adds	r0, #8
    332a:	2301      	movs	r3, #1
    332c:	9903      	ldr	r1, [sp, #12]
    332e:	47b8      	blx	r7
    3330:	2800      	cmp	r0, #0
    3332:	d1a5      	bne.n	3280 <m2m_wifi_cb+0xa0>
    3334:	4b0a      	ldr	r3, [pc, #40]	; (3360 <m2m_wifi_cb+0x180>)
    3336:	681b      	ldr	r3, [r3, #0]
    3338:	2b00      	cmp	r3, #0
    333a:	d0a1      	beq.n	3280 <m2m_wifi_cb+0xa0>
    333c:	0031      	movs	r1, r6
    333e:	e767      	b.n	3210 <m2m_wifi_cb+0x30>
    3340:	2295      	movs	r2, #149	; 0x95
    3342:	4d09      	ldr	r5, [pc, #36]	; (3368 <m2m_wifi_cb+0x188>)
    3344:	0052      	lsls	r2, r2, #1
    3346:	490e      	ldr	r1, [pc, #56]	; (3380 <m2m_wifi_cb+0x1a0>)
    3348:	480e      	ldr	r0, [pc, #56]	; (3384 <m2m_wifi_cb+0x1a4>)
    334a:	47a8      	blx	r5
    334c:	0021      	movs	r1, r4
    334e:	480e      	ldr	r0, [pc, #56]	; (3388 <m2m_wifi_cb+0x1a8>)
    3350:	47a8      	blx	r5
    3352:	4b08      	ldr	r3, [pc, #32]	; (3374 <m2m_wifi_cb+0x194>)
    3354:	200d      	movs	r0, #13
    3356:	4798      	blx	r3
    3358:	e792      	b.n	3280 <m2m_wifi_cb+0xa0>
    335a:	46c0      	nop			; (mov r8, r8)
    335c:	00003071 	.word	0x00003071
    3360:	2000021c 	.word	0x2000021c
    3364:	00002a93 	.word	0x00002a93
    3368:	0000b36d 	.word	0x0000b36d
    336c:	0000cc1e 	.word	0x0000cc1e
    3370:	0000cc84 	.word	0x0000cc84
    3374:	0000b3a1 	.word	0x0000b3a1
    3378:	20000221 	.word	0x20000221
    337c:	20000220 	.word	0x20000220
    3380:	0000cc56 	.word	0x0000cc56
    3384:	0000c930 	.word	0x0000c930
    3388:	0000cca4 	.word	0x0000cca4

0000338c <m2m_wifi_init>:
    338c:	230f      	movs	r3, #15
    338e:	b5f0      	push	{r4, r5, r6, r7, lr}
    3390:	2601      	movs	r6, #1
    3392:	b08f      	sub	sp, #60	; 0x3c
    3394:	446b      	add	r3, sp
    3396:	701e      	strb	r6, [r3, #0]
    3398:	2800      	cmp	r0, #0
    339a:	d05e      	beq.n	345a <m2m_wifi_init+0xce>
    339c:	2400      	movs	r4, #0
    339e:	6801      	ldr	r1, [r0, #0]
    33a0:	4a2f      	ldr	r2, [pc, #188]	; (3460 <m2m_wifi_init+0xd4>)
    33a2:	0018      	movs	r0, r3
    33a4:	6011      	str	r1, [r2, #0]
    33a6:	4a2f      	ldr	r2, [pc, #188]	; (3464 <m2m_wifi_init+0xd8>)
    33a8:	4b2f      	ldr	r3, [pc, #188]	; (3468 <m2m_wifi_init+0xdc>)
    33aa:	7014      	strb	r4, [r2, #0]
    33ac:	4798      	blx	r3
    33ae:	0005      	movs	r5, r0
    33b0:	42a0      	cmp	r0, r4
    33b2:	d14b      	bne.n	344c <m2m_wifi_init+0xc0>
    33b4:	4b2d      	ldr	r3, [pc, #180]	; (346c <m2m_wifi_init+0xe0>)
    33b6:	4798      	blx	r3
    33b8:	0005      	movs	r5, r0
    33ba:	42a0      	cmp	r0, r4
    33bc:	d149      	bne.n	3452 <m2m_wifi_init+0xc6>
    33be:	492c      	ldr	r1, [pc, #176]	; (3470 <m2m_wifi_init+0xe4>)
    33c0:	0030      	movs	r0, r6
    33c2:	4b2c      	ldr	r3, [pc, #176]	; (3474 <m2m_wifi_init+0xe8>)
    33c4:	ae04      	add	r6, sp, #16
    33c6:	4798      	blx	r3
    33c8:	4b2b      	ldr	r3, [pc, #172]	; (3478 <m2m_wifi_init+0xec>)
    33ca:	0030      	movs	r0, r6
    33cc:	4798      	blx	r3
    33ce:	4c2b      	ldr	r4, [pc, #172]	; (347c <m2m_wifi_init+0xf0>)
    33d0:	0005      	movs	r5, r0
    33d2:	482b      	ldr	r0, [pc, #172]	; (3480 <m2m_wifi_init+0xf4>)
    33d4:	47a0      	blx	r4
    33d6:	8c30      	ldrh	r0, [r6, #32]
    33d8:	79b3      	ldrb	r3, [r6, #6]
    33da:	7972      	ldrb	r2, [r6, #5]
    33dc:	7931      	ldrb	r1, [r6, #4]
    33de:	9000      	str	r0, [sp, #0]
    33e0:	4828      	ldr	r0, [pc, #160]	; (3484 <m2m_wifi_init+0xf8>)
    33e2:	47a0      	blx	r4
    33e4:	4f28      	ldr	r7, [pc, #160]	; (3488 <m2m_wifi_init+0xfc>)
    33e6:	200d      	movs	r0, #13
    33e8:	47b8      	blx	r7
    33ea:	4825      	ldr	r0, [pc, #148]	; (3480 <m2m_wifi_init+0xf4>)
    33ec:	47a0      	blx	r4
    33ee:	2226      	movs	r2, #38	; 0x26
    33f0:	211a      	movs	r1, #26
    33f2:	446a      	add	r2, sp
    33f4:	4469      	add	r1, sp
    33f6:	4825      	ldr	r0, [pc, #148]	; (348c <m2m_wifi_init+0x100>)
    33f8:	47a0      	blx	r4
    33fa:	200d      	movs	r0, #13
    33fc:	47b8      	blx	r7
    33fe:	4820      	ldr	r0, [pc, #128]	; (3480 <m2m_wifi_init+0xf4>)
    3400:	47a0      	blx	r4
    3402:	7a73      	ldrb	r3, [r6, #9]
    3404:	7a32      	ldrb	r2, [r6, #8]
    3406:	79f1      	ldrb	r1, [r6, #7]
    3408:	4821      	ldr	r0, [pc, #132]	; (3490 <m2m_wifi_init+0x104>)
    340a:	47a0      	blx	r4
    340c:	200d      	movs	r0, #13
    340e:	47b8      	blx	r7
    3410:	481b      	ldr	r0, [pc, #108]	; (3480 <m2m_wifi_init+0xf4>)
    3412:	47a0      	blx	r4
    3414:	2302      	movs	r3, #2
    3416:	2205      	movs	r2, #5
    3418:	2113      	movs	r1, #19
    341a:	481e      	ldr	r0, [pc, #120]	; (3494 <m2m_wifi_init+0x108>)
    341c:	47a0      	blx	r4
    341e:	200d      	movs	r0, #13
    3420:	47b8      	blx	r7
    3422:	4817      	ldr	r0, [pc, #92]	; (3480 <m2m_wifi_init+0xf4>)
    3424:	47a0      	blx	r4
    3426:	4a1c      	ldr	r2, [pc, #112]	; (3498 <m2m_wifi_init+0x10c>)
    3428:	491c      	ldr	r1, [pc, #112]	; (349c <m2m_wifi_init+0x110>)
    342a:	481d      	ldr	r0, [pc, #116]	; (34a0 <m2m_wifi_init+0x114>)
    342c:	47a0      	blx	r4
    342e:	200d      	movs	r0, #13
    3430:	47b8      	blx	r7
    3432:	002b      	movs	r3, r5
    3434:	330d      	adds	r3, #13
    3436:	d109      	bne.n	344c <m2m_wifi_init+0xc0>
    3438:	22ee      	movs	r2, #238	; 0xee
    343a:	491a      	ldr	r1, [pc, #104]	; (34a4 <m2m_wifi_init+0x118>)
    343c:	32ff      	adds	r2, #255	; 0xff
    343e:	481a      	ldr	r0, [pc, #104]	; (34a8 <m2m_wifi_init+0x11c>)
    3440:	47a0      	blx	r4
    3442:	481a      	ldr	r0, [pc, #104]	; (34ac <m2m_wifi_init+0x120>)
    3444:	4b1a      	ldr	r3, [pc, #104]	; (34b0 <m2m_wifi_init+0x124>)
    3446:	4798      	blx	r3
    3448:	200d      	movs	r0, #13
    344a:	47b8      	blx	r7
    344c:	0028      	movs	r0, r5
    344e:	b00f      	add	sp, #60	; 0x3c
    3450:	bdf0      	pop	{r4, r5, r6, r7, pc}
    3452:	0020      	movs	r0, r4
    3454:	4b17      	ldr	r3, [pc, #92]	; (34b4 <m2m_wifi_init+0x128>)
    3456:	4798      	blx	r3
    3458:	e7f8      	b.n	344c <m2m_wifi_init+0xc0>
    345a:	250c      	movs	r5, #12
    345c:	426d      	negs	r5, r5
    345e:	e7f5      	b.n	344c <m2m_wifi_init+0xc0>
    3460:	2000021c 	.word	0x2000021c
    3464:	20000221 	.word	0x20000221
    3468:	00003c89 	.word	0x00003c89
    346c:	000031a9 	.word	0x000031a9
    3470:	000031e1 	.word	0x000031e1
    3474:	00003139 	.word	0x00003139
    3478:	00003bc5 	.word	0x00003bc5
    347c:	0000b36d 	.word	0x0000b36d
    3480:	0000cc1e 	.word	0x0000cc1e
    3484:	0000cd52 	.word	0x0000cd52
    3488:	0000b3a1 	.word	0x0000b3a1
    348c:	0000cd77 	.word	0x0000cd77
    3490:	0000cd92 	.word	0x0000cd92
    3494:	0000cdb6 	.word	0x0000cdb6
    3498:	0000cdcc 	.word	0x0000cdcc
    349c:	0000cdd5 	.word	0x0000cdd5
    34a0:	0000cde1 	.word	0x0000cde1
    34a4:	0000cc62 	.word	0x0000cc62
    34a8:	0000c930 	.word	0x0000c930
    34ac:	0000cdf8 	.word	0x0000cdf8
    34b0:	0000b489 	.word	0x0000b489
    34b4:	00003d55 	.word	0x00003d55

000034b8 <m2m_wifi_handle_events>:
    34b8:	b510      	push	{r4, lr}
    34ba:	4b01      	ldr	r3, [pc, #4]	; (34c0 <m2m_wifi_handle_events+0x8>)
    34bc:	4798      	blx	r3
    34be:	bd10      	pop	{r4, pc}
    34c0:	00002d85 	.word	0x00002d85

000034c4 <m2m_wifi_connect_sc>:
    34c4:	b5f0      	push	{r4, r5, r6, r7, lr}
    34c6:	b0a5      	sub	sp, #148	; 0x94
    34c8:	001c      	movs	r4, r3
    34ca:	ab2a      	add	r3, sp, #168	; 0xa8
    34cc:	881b      	ldrh	r3, [r3, #0]
    34ce:	9006      	str	r0, [sp, #24]
    34d0:	9305      	str	r3, [sp, #20]
    34d2:	ab2b      	add	r3, sp, #172	; 0xac
    34d4:	781b      	ldrb	r3, [r3, #0]
    34d6:	000f      	movs	r7, r1
    34d8:	0016      	movs	r6, r2
    34da:	9307      	str	r3, [sp, #28]
    34dc:	2a01      	cmp	r2, #1
    34de:	d109      	bne.n	34f4 <m2m_wifi_connect_sc+0x30>
    34e0:	1e7b      	subs	r3, r7, #1
    34e2:	2b1f      	cmp	r3, #31
    34e4:	d937      	bls.n	3556 <m2m_wifi_connect_sc+0x92>
    34e6:	4a5d      	ldr	r2, [pc, #372]	; (365c <m2m_wifi_connect_sc+0x198>)
    34e8:	495d      	ldr	r1, [pc, #372]	; (3660 <m2m_wifi_connect_sc+0x19c>)
    34ea:	485e      	ldr	r0, [pc, #376]	; (3664 <m2m_wifi_connect_sc+0x1a0>)
    34ec:	4b5e      	ldr	r3, [pc, #376]	; (3668 <m2m_wifi_connect_sc+0x1a4>)
    34ee:	4798      	blx	r3
    34f0:	485e      	ldr	r0, [pc, #376]	; (366c <m2m_wifi_connect_sc+0x1a8>)
    34f2:	e007      	b.n	3504 <m2m_wifi_connect_sc+0x40>
    34f4:	2c00      	cmp	r4, #0
    34f6:	d10e      	bne.n	3516 <m2m_wifi_connect_sc+0x52>
    34f8:	4a5d      	ldr	r2, [pc, #372]	; (3670 <m2m_wifi_connect_sc+0x1ac>)
    34fa:	4959      	ldr	r1, [pc, #356]	; (3660 <m2m_wifi_connect_sc+0x19c>)
    34fc:	4859      	ldr	r0, [pc, #356]	; (3664 <m2m_wifi_connect_sc+0x1a0>)
    34fe:	4b5a      	ldr	r3, [pc, #360]	; (3668 <m2m_wifi_connect_sc+0x1a4>)
    3500:	4798      	blx	r3
    3502:	485c      	ldr	r0, [pc, #368]	; (3674 <m2m_wifi_connect_sc+0x1b0>)
    3504:	4b5c      	ldr	r3, [pc, #368]	; (3678 <m2m_wifi_connect_sc+0x1b4>)
    3506:	4798      	blx	r3
    3508:	200d      	movs	r0, #13
    350a:	4b5c      	ldr	r3, [pc, #368]	; (367c <m2m_wifi_connect_sc+0x1b8>)
    350c:	4798      	blx	r3
    350e:	200c      	movs	r0, #12
    3510:	4240      	negs	r0, r0
    3512:	b025      	add	sp, #148	; 0x94
    3514:	bdf0      	pop	{r4, r5, r6, r7, pc}
    3516:	2a02      	cmp	r2, #2
    3518:	d1e2      	bne.n	34e0 <m2m_wifi_connect_sc+0x1c>
    351a:	0020      	movs	r0, r4
    351c:	4b58      	ldr	r3, [pc, #352]	; (3680 <m2m_wifi_connect_sc+0x1bc>)
    351e:	4798      	blx	r3
    3520:	2840      	cmp	r0, #64	; 0x40
    3522:	d1dd      	bne.n	34e0 <m2m_wifi_connect_sc+0x1c>
    3524:	0021      	movs	r1, r4
    3526:	0022      	movs	r2, r4
    3528:	3140      	adds	r1, #64	; 0x40
    352a:	7813      	ldrb	r3, [r2, #0]
    352c:	0018      	movs	r0, r3
    352e:	3830      	subs	r0, #48	; 0x30
    3530:	2836      	cmp	r0, #54	; 0x36
    3532:	d805      	bhi.n	3540 <m2m_wifi_connect_sc+0x7c>
    3534:	380a      	subs	r0, #10
    3536:	2806      	cmp	r0, #6
    3538:	d902      	bls.n	3540 <m2m_wifi_connect_sc+0x7c>
    353a:	3b47      	subs	r3, #71	; 0x47
    353c:	2b19      	cmp	r3, #25
    353e:	d806      	bhi.n	354e <m2m_wifi_connect_sc+0x8a>
    3540:	4a50      	ldr	r2, [pc, #320]	; (3684 <m2m_wifi_connect_sc+0x1c0>)
    3542:	4947      	ldr	r1, [pc, #284]	; (3660 <m2m_wifi_connect_sc+0x19c>)
    3544:	4847      	ldr	r0, [pc, #284]	; (3664 <m2m_wifi_connect_sc+0x1a0>)
    3546:	4b48      	ldr	r3, [pc, #288]	; (3668 <m2m_wifi_connect_sc+0x1a4>)
    3548:	4798      	blx	r3
    354a:	484f      	ldr	r0, [pc, #316]	; (3688 <m2m_wifi_connect_sc+0x1c4>)
    354c:	e7da      	b.n	3504 <m2m_wifi_connect_sc+0x40>
    354e:	3201      	adds	r2, #1
    3550:	428a      	cmp	r2, r1
    3552:	d1ea      	bne.n	352a <m2m_wifi_connect_sc+0x66>
    3554:	e7c4      	b.n	34e0 <m2m_wifi_connect_sc+0x1c>
    3556:	9b05      	ldr	r3, [sp, #20]
    3558:	3b01      	subs	r3, #1
    355a:	2b0d      	cmp	r3, #13
    355c:	d909      	bls.n	3572 <m2m_wifi_connect_sc+0xae>
    355e:	9b05      	ldr	r3, [sp, #20]
    3560:	2bff      	cmp	r3, #255	; 0xff
    3562:	d006      	beq.n	3572 <m2m_wifi_connect_sc+0xae>
    3564:	4a49      	ldr	r2, [pc, #292]	; (368c <m2m_wifi_connect_sc+0x1c8>)
    3566:	493e      	ldr	r1, [pc, #248]	; (3660 <m2m_wifi_connect_sc+0x19c>)
    3568:	483e      	ldr	r0, [pc, #248]	; (3664 <m2m_wifi_connect_sc+0x1a0>)
    356a:	4b3f      	ldr	r3, [pc, #252]	; (3668 <m2m_wifi_connect_sc+0x1a4>)
    356c:	4798      	blx	r3
    356e:	4848      	ldr	r0, [pc, #288]	; (3690 <m2m_wifi_connect_sc+0x1cc>)
    3570:	e7c8      	b.n	3504 <m2m_wifi_connect_sc+0x40>
    3572:	205a      	movs	r0, #90	; 0x5a
    3574:	ab04      	add	r3, sp, #16
    3576:	ad09      	add	r5, sp, #36	; 0x24
    3578:	003a      	movs	r2, r7
    357a:	9906      	ldr	r1, [sp, #24]
    357c:	18c0      	adds	r0, r0, r3
    357e:	19ef      	adds	r7, r5, r7
    3580:	4b44      	ldr	r3, [pc, #272]	; (3694 <m2m_wifi_connect_sc+0x1d0>)
    3582:	4798      	blx	r3
    3584:	003b      	movs	r3, r7
    3586:	2700      	movs	r7, #0
    3588:	3346      	adds	r3, #70	; 0x46
    358a:	701f      	strb	r7, [r3, #0]
    358c:	231a      	movs	r3, #26
    358e:	aa04      	add	r2, sp, #16
    3590:	189b      	adds	r3, r3, r2
    3592:	466a      	mov	r2, sp
    3594:	8a92      	ldrh	r2, [r2, #20]
    3596:	a904      	add	r1, sp, #16
    3598:	87da      	strh	r2, [r3, #62]	; 0x3e
    359a:	9b07      	ldr	r3, [sp, #28]
    359c:	1e5a      	subs	r2, r3, #1
    359e:	4193      	sbcs	r3, r2
    35a0:	227b      	movs	r2, #123	; 0x7b
    35a2:	1852      	adds	r2, r2, r1
    35a4:	7013      	strb	r3, [r2, #0]
    35a6:	2355      	movs	r3, #85	; 0x55
    35a8:	185b      	adds	r3, r3, r1
    35aa:	701e      	strb	r6, [r3, #0]
    35ac:	2e03      	cmp	r6, #3
    35ae:	d133      	bne.n	3618 <m2m_wifi_connect_sc+0x154>
    35b0:	7823      	ldrb	r3, [r4, #0]
    35b2:	3b01      	subs	r3, #1
    35b4:	b2db      	uxtb	r3, r3
    35b6:	702b      	strb	r3, [r5, #0]
    35b8:	2b03      	cmp	r3, #3
    35ba:	d908      	bls.n	35ce <m2m_wifi_connect_sc+0x10a>
    35bc:	4928      	ldr	r1, [pc, #160]	; (3660 <m2m_wifi_connect_sc+0x19c>)
    35be:	4a36      	ldr	r2, [pc, #216]	; (3698 <m2m_wifi_connect_sc+0x1d4>)
    35c0:	4828      	ldr	r0, [pc, #160]	; (3664 <m2m_wifi_connect_sc+0x1a0>)
    35c2:	4c29      	ldr	r4, [pc, #164]	; (3668 <m2m_wifi_connect_sc+0x1a4>)
    35c4:	47a0      	blx	r4
    35c6:	7829      	ldrb	r1, [r5, #0]
    35c8:	4834      	ldr	r0, [pc, #208]	; (369c <m2m_wifi_connect_sc+0x1d8>)
    35ca:	47a0      	blx	r4
    35cc:	e79c      	b.n	3508 <m2m_wifi_connect_sc+0x44>
    35ce:	7862      	ldrb	r2, [r4, #1]
    35d0:	1e53      	subs	r3, r2, #1
    35d2:	706b      	strb	r3, [r5, #1]
    35d4:	0011      	movs	r1, r2
    35d6:	2310      	movs	r3, #16
    35d8:	4399      	bics	r1, r3
    35da:	290b      	cmp	r1, #11
    35dc:	d008      	beq.n	35f0 <m2m_wifi_connect_sc+0x12c>
    35de:	2296      	movs	r2, #150	; 0x96
    35e0:	491f      	ldr	r1, [pc, #124]	; (3660 <m2m_wifi_connect_sc+0x19c>)
    35e2:	0092      	lsls	r2, r2, #2
    35e4:	481f      	ldr	r0, [pc, #124]	; (3664 <m2m_wifi_connect_sc+0x1a0>)
    35e6:	4c20      	ldr	r4, [pc, #128]	; (3668 <m2m_wifi_connect_sc+0x1a4>)
    35e8:	47a0      	blx	r4
    35ea:	7869      	ldrb	r1, [r5, #1]
    35ec:	482c      	ldr	r0, [pc, #176]	; (36a0 <m2m_wifi_connect_sc+0x1dc>)
    35ee:	e7ec      	b.n	35ca <m2m_wifi_connect_sc+0x106>
    35f0:	2016      	movs	r0, #22
    35f2:	ab04      	add	r3, sp, #16
    35f4:	18c0      	adds	r0, r0, r3
    35f6:	1ca1      	adds	r1, r4, #2
    35f8:	4b26      	ldr	r3, [pc, #152]	; (3694 <m2m_wifi_connect_sc+0x1d0>)
    35fa:	4798      	blx	r3
    35fc:	7863      	ldrb	r3, [r4, #1]
    35fe:	18eb      	adds	r3, r5, r3
    3600:	709f      	strb	r7, [r3, #2]
    3602:	2300      	movs	r3, #0
    3604:	002a      	movs	r2, r5
    3606:	9302      	str	r3, [sp, #8]
    3608:	9301      	str	r3, [sp, #4]
    360a:	9300      	str	r3, [sp, #0]
    360c:	2128      	movs	r1, #40	; 0x28
    360e:	336c      	adds	r3, #108	; 0x6c
    3610:	4c24      	ldr	r4, [pc, #144]	; (36a4 <m2m_wifi_connect_sc+0x1e0>)
    3612:	2001      	movs	r0, #1
    3614:	47a0      	blx	r4
    3616:	e77c      	b.n	3512 <m2m_wifi_connect_sc+0x4e>
    3618:	2e02      	cmp	r6, #2
    361a:	d10e      	bne.n	363a <m2m_wifi_connect_sc+0x176>
    361c:	4b18      	ldr	r3, [pc, #96]	; (3680 <m2m_wifi_connect_sc+0x1bc>)
    361e:	0020      	movs	r0, r4
    3620:	4798      	blx	r3
    3622:	1e43      	subs	r3, r0, #1
    3624:	b29b      	uxth	r3, r3
    3626:	1c42      	adds	r2, r0, #1
    3628:	2b3f      	cmp	r3, #63	; 0x3f
    362a:	d909      	bls.n	3640 <m2m_wifi_connect_sc+0x17c>
    362c:	4a1e      	ldr	r2, [pc, #120]	; (36a8 <m2m_wifi_connect_sc+0x1e4>)
    362e:	490c      	ldr	r1, [pc, #48]	; (3660 <m2m_wifi_connect_sc+0x19c>)
    3630:	480c      	ldr	r0, [pc, #48]	; (3664 <m2m_wifi_connect_sc+0x1a0>)
    3632:	4b0d      	ldr	r3, [pc, #52]	; (3668 <m2m_wifi_connect_sc+0x1a4>)
    3634:	4798      	blx	r3
    3636:	481d      	ldr	r0, [pc, #116]	; (36ac <m2m_wifi_connect_sc+0x1e8>)
    3638:	e764      	b.n	3504 <m2m_wifi_connect_sc+0x40>
    363a:	2e04      	cmp	r6, #4
    363c:	d105      	bne.n	364a <m2m_wifi_connect_sc+0x186>
    363e:	223e      	movs	r2, #62	; 0x3e
    3640:	0021      	movs	r1, r4
    3642:	0028      	movs	r0, r5
    3644:	4b13      	ldr	r3, [pc, #76]	; (3694 <m2m_wifi_connect_sc+0x1d0>)
    3646:	4798      	blx	r3
    3648:	e7db      	b.n	3602 <m2m_wifi_connect_sc+0x13e>
    364a:	2e01      	cmp	r6, #1
    364c:	d0d9      	beq.n	3602 <m2m_wifi_connect_sc+0x13e>
    364e:	4a18      	ldr	r2, [pc, #96]	; (36b0 <m2m_wifi_connect_sc+0x1ec>)
    3650:	4903      	ldr	r1, [pc, #12]	; (3660 <m2m_wifi_connect_sc+0x19c>)
    3652:	4804      	ldr	r0, [pc, #16]	; (3664 <m2m_wifi_connect_sc+0x1a0>)
    3654:	4b04      	ldr	r3, [pc, #16]	; (3668 <m2m_wifi_connect_sc+0x1a4>)
    3656:	4798      	blx	r3
    3658:	4816      	ldr	r0, [pc, #88]	; (36b4 <m2m_wifi_connect_sc+0x1f0>)
    365a:	e753      	b.n	3504 <m2m_wifi_connect_sc+0x40>
    365c:	00000231 	.word	0x00000231
    3660:	0000cc70 	.word	0x0000cc70
    3664:	0000c930 	.word	0x0000c930
    3668:	0000b36d 	.word	0x0000b36d
    366c:	0000ccd5 	.word	0x0000ccd5
    3670:	0000021b 	.word	0x0000021b
    3674:	0000ccb8 	.word	0x0000ccb8
    3678:	0000b489 	.word	0x0000b489
    367c:	0000b3a1 	.word	0x0000b3a1
    3680:	00002aa3 	.word	0x00002aa3
    3684:	00000227 	.word	0x00000227
    3688:	0000ccc9 	.word	0x0000ccc9
    368c:	0000023a 	.word	0x0000023a
    3690:	0000cce6 	.word	0x0000cce6
    3694:	00002a81 	.word	0x00002a81
    3698:	00000251 	.word	0x00000251
    369c:	0000ccf1 	.word	0x0000ccf1
    36a0:	0000cd0b 	.word	0x0000cd0b
    36a4:	00002b89 	.word	0x00002b89
    36a8:	00000267 	.word	0x00000267
    36ac:	0000cd26 	.word	0x0000cd26
    36b0:	00000277 	.word	0x00000277
    36b4:	0000cd3f 	.word	0x0000cd3f

000036b8 <m2m_wifi_connect>:
    36b8:	b537      	push	{r0, r1, r2, r4, r5, lr}
    36ba:	2500      	movs	r5, #0
    36bc:	ac06      	add	r4, sp, #24
    36be:	8824      	ldrh	r4, [r4, #0]
    36c0:	9501      	str	r5, [sp, #4]
    36c2:	9400      	str	r4, [sp, #0]
    36c4:	4c01      	ldr	r4, [pc, #4]	; (36cc <m2m_wifi_connect+0x14>)
    36c6:	47a0      	blx	r4
    36c8:	bd3e      	pop	{r1, r2, r3, r4, r5, pc}
    36ca:	46c0      	nop			; (mov r8, r8)
    36cc:	000034c5 	.word	0x000034c5

000036d0 <m2m_wifi_request_dhcp_client>:
    36d0:	2000      	movs	r0, #0
    36d2:	4770      	bx	lr

000036d4 <chip_apply_conf>:
    36d4:	b537      	push	{r0, r1, r2, r4, r5, lr}
    36d6:	2480      	movs	r4, #128	; 0x80
    36d8:	25a5      	movs	r5, #165	; 0xa5
    36da:	0064      	lsls	r4, r4, #1
    36dc:	4304      	orrs	r4, r0
    36de:	016d      	lsls	r5, r5, #5
    36e0:	0021      	movs	r1, r4
    36e2:	4b07      	ldr	r3, [pc, #28]	; (3700 <chip_apply_conf+0x2c>)
    36e4:	0028      	movs	r0, r5
    36e6:	4798      	blx	r3
    36e8:	2300      	movs	r3, #0
    36ea:	a901      	add	r1, sp, #4
    36ec:	9301      	str	r3, [sp, #4]
    36ee:	0028      	movs	r0, r5
    36f0:	4b04      	ldr	r3, [pc, #16]	; (3704 <chip_apply_conf+0x30>)
    36f2:	4798      	blx	r3
    36f4:	2800      	cmp	r0, #0
    36f6:	d1f3      	bne.n	36e0 <chip_apply_conf+0xc>
    36f8:	9b01      	ldr	r3, [sp, #4]
    36fa:	429c      	cmp	r4, r3
    36fc:	d1f0      	bne.n	36e0 <chip_apply_conf+0xc>
    36fe:	bd3e      	pop	{r1, r2, r3, r4, r5, pc}
    3700:	00003b39 	.word	0x00003b39
    3704:	00003b2d 	.word	0x00003b2d

00003708 <enable_interrupts>:
    3708:	2300      	movs	r3, #0
    370a:	b537      	push	{r0, r1, r2, r4, r5, lr}
    370c:	480f      	ldr	r0, [pc, #60]	; (374c <enable_interrupts+0x44>)
    370e:	a901      	add	r1, sp, #4
    3710:	4d0f      	ldr	r5, [pc, #60]	; (3750 <enable_interrupts+0x48>)
    3712:	9301      	str	r3, [sp, #4]
    3714:	47a8      	blx	r5
    3716:	2800      	cmp	r0, #0
    3718:	d117      	bne.n	374a <enable_interrupts+0x42>
    371a:	2180      	movs	r1, #128	; 0x80
    371c:	9b01      	ldr	r3, [sp, #4]
    371e:	0049      	lsls	r1, r1, #1
    3720:	4319      	orrs	r1, r3
    3722:	480a      	ldr	r0, [pc, #40]	; (374c <enable_interrupts+0x44>)
    3724:	4c0b      	ldr	r4, [pc, #44]	; (3754 <enable_interrupts+0x4c>)
    3726:	9101      	str	r1, [sp, #4]
    3728:	47a0      	blx	r4
    372a:	2800      	cmp	r0, #0
    372c:	d10d      	bne.n	374a <enable_interrupts+0x42>
    372e:	20d0      	movs	r0, #208	; 0xd0
    3730:	a901      	add	r1, sp, #4
    3732:	0140      	lsls	r0, r0, #5
    3734:	47a8      	blx	r5
    3736:	2800      	cmp	r0, #0
    3738:	d107      	bne.n	374a <enable_interrupts+0x42>
    373a:	2180      	movs	r1, #128	; 0x80
    373c:	20d0      	movs	r0, #208	; 0xd0
    373e:	9b01      	ldr	r3, [sp, #4]
    3740:	0249      	lsls	r1, r1, #9
    3742:	4319      	orrs	r1, r3
    3744:	0140      	lsls	r0, r0, #5
    3746:	9101      	str	r1, [sp, #4]
    3748:	47a0      	blx	r4
    374a:	bd3e      	pop	{r1, r2, r3, r4, r5, pc}
    374c:	00001408 	.word	0x00001408
    3750:	00003b2d 	.word	0x00003b2d
    3754:	00003b39 	.word	0x00003b39

00003758 <nmi_get_chipid>:
    3758:	b573      	push	{r0, r1, r4, r5, r6, lr}
    375a:	4c1e      	ldr	r4, [pc, #120]	; (37d4 <nmi_get_chipid+0x7c>)
    375c:	6825      	ldr	r5, [r4, #0]
    375e:	2d00      	cmp	r5, #0
    3760:	d11f      	bne.n	37a2 <nmi_get_chipid+0x4a>
    3762:	2080      	movs	r0, #128	; 0x80
    3764:	0021      	movs	r1, r4
    3766:	0140      	lsls	r0, r0, #5
    3768:	4e1b      	ldr	r6, [pc, #108]	; (37d8 <nmi_get_chipid+0x80>)
    376a:	47b0      	blx	r6
    376c:	2800      	cmp	r0, #0
    376e:	d003      	beq.n	3778 <nmi_get_chipid+0x20>
    3770:	2300      	movs	r3, #0
    3772:	6023      	str	r3, [r4, #0]
    3774:	0028      	movs	r0, r5
    3776:	bd76      	pop	{r1, r2, r4, r5, r6, pc}
    3778:	a901      	add	r1, sp, #4
    377a:	4818      	ldr	r0, [pc, #96]	; (37dc <nmi_get_chipid+0x84>)
    377c:	47b0      	blx	r6
    377e:	2800      	cmp	r0, #0
    3780:	d1f6      	bne.n	3770 <nmi_get_chipid+0x18>
    3782:	6823      	ldr	r3, [r4, #0]
    3784:	4a16      	ldr	r2, [pc, #88]	; (37e0 <nmi_get_chipid+0x88>)
    3786:	4293      	cmp	r3, r2
    3788:	d10d      	bne.n	37a6 <nmi_get_chipid+0x4e>
    378a:	9b01      	ldr	r3, [sp, #4]
    378c:	2b01      	cmp	r3, #1
    378e:	d001      	beq.n	3794 <nmi_get_chipid+0x3c>
    3790:	4b14      	ldr	r3, [pc, #80]	; (37e4 <nmi_get_chipid+0x8c>)
    3792:	6023      	str	r3, [r4, #0]
    3794:	6823      	ldr	r3, [r4, #0]
    3796:	4a14      	ldr	r2, [pc, #80]	; (37e8 <nmi_get_chipid+0x90>)
    3798:	401a      	ands	r2, r3
    379a:	23a0      	movs	r3, #160	; 0xa0
    379c:	02db      	lsls	r3, r3, #11
    379e:	4313      	orrs	r3, r2
    37a0:	6023      	str	r3, [r4, #0]
    37a2:	6825      	ldr	r5, [r4, #0]
    37a4:	e7e6      	b.n	3774 <nmi_get_chipid+0x1c>
    37a6:	4a11      	ldr	r2, [pc, #68]	; (37ec <nmi_get_chipid+0x94>)
    37a8:	4293      	cmp	r3, r2
    37aa:	d108      	bne.n	37be <nmi_get_chipid+0x66>
    37ac:	9b01      	ldr	r3, [sp, #4]
    37ae:	2b03      	cmp	r3, #3
    37b0:	d0f0      	beq.n	3794 <nmi_get_chipid+0x3c>
    37b2:	2b04      	cmp	r3, #4
    37b4:	d101      	bne.n	37ba <nmi_get_chipid+0x62>
    37b6:	4b0e      	ldr	r3, [pc, #56]	; (37f0 <nmi_get_chipid+0x98>)
    37b8:	e7eb      	b.n	3792 <nmi_get_chipid+0x3a>
    37ba:	4b0e      	ldr	r3, [pc, #56]	; (37f4 <nmi_get_chipid+0x9c>)
    37bc:	e7e9      	b.n	3792 <nmi_get_chipid+0x3a>
    37be:	4a0e      	ldr	r2, [pc, #56]	; (37f8 <nmi_get_chipid+0xa0>)
    37c0:	4293      	cmp	r3, r2
    37c2:	d1e7      	bne.n	3794 <nmi_get_chipid+0x3c>
    37c4:	20ec      	movs	r0, #236	; 0xec
    37c6:	0021      	movs	r1, r4
    37c8:	0380      	lsls	r0, r0, #14
    37ca:	47b0      	blx	r6
    37cc:	2800      	cmp	r0, #0
    37ce:	d1cf      	bne.n	3770 <nmi_get_chipid+0x18>
    37d0:	e7e0      	b.n	3794 <nmi_get_chipid+0x3c>
    37d2:	46c0      	nop			; (mov r8, r8)
    37d4:	20000224 	.word	0x20000224
    37d8:	00003b2d 	.word	0x00003b2d
    37dc:	000013f4 	.word	0x000013f4
    37e0:	001002a0 	.word	0x001002a0
    37e4:	001002a1 	.word	0x001002a1
    37e8:	fff0ffff 	.word	0xfff0ffff
    37ec:	001002b0 	.word	0x001002b0
    37f0:	001002b1 	.word	0x001002b1
    37f4:	001002b2 	.word	0x001002b2
    37f8:	001000f0 	.word	0x001000f0

000037fc <chip_sleep>:
    37fc:	b537      	push	{r0, r1, r2, r4, r5, lr}
    37fe:	2501      	movs	r5, #1
    3800:	a901      	add	r1, sp, #4
    3802:	2010      	movs	r0, #16
    3804:	4c13      	ldr	r4, [pc, #76]	; (3854 <chip_sleep+0x58>)
    3806:	47a0      	blx	r4
    3808:	2800      	cmp	r0, #0
    380a:	d110      	bne.n	382e <chip_sleep+0x32>
    380c:	9b01      	ldr	r3, [sp, #4]
    380e:	422b      	tst	r3, r5
    3810:	d1f6      	bne.n	3800 <chip_sleep+0x4>
    3812:	a901      	add	r1, sp, #4
    3814:	3001      	adds	r0, #1
    3816:	47a0      	blx	r4
    3818:	2800      	cmp	r0, #0
    381a:	d108      	bne.n	382e <chip_sleep+0x32>
    381c:	2302      	movs	r3, #2
    381e:	9901      	ldr	r1, [sp, #4]
    3820:	4219      	tst	r1, r3
    3822:	d105      	bne.n	3830 <chip_sleep+0x34>
    3824:	a901      	add	r1, sp, #4
    3826:	200b      	movs	r0, #11
    3828:	47a0      	blx	r4
    382a:	2800      	cmp	r0, #0
    382c:	d008      	beq.n	3840 <chip_sleep+0x44>
    382e:	bd3e      	pop	{r1, r2, r3, r4, r5, pc}
    3830:	4399      	bics	r1, r3
    3832:	2001      	movs	r0, #1
    3834:	4b08      	ldr	r3, [pc, #32]	; (3858 <chip_sleep+0x5c>)
    3836:	9101      	str	r1, [sp, #4]
    3838:	4798      	blx	r3
    383a:	2800      	cmp	r0, #0
    383c:	d0f2      	beq.n	3824 <chip_sleep+0x28>
    383e:	e7f6      	b.n	382e <chip_sleep+0x32>
    3840:	2301      	movs	r3, #1
    3842:	9901      	ldr	r1, [sp, #4]
    3844:	4219      	tst	r1, r3
    3846:	d0f2      	beq.n	382e <chip_sleep+0x32>
    3848:	4399      	bics	r1, r3
    384a:	200b      	movs	r0, #11
    384c:	4b02      	ldr	r3, [pc, #8]	; (3858 <chip_sleep+0x5c>)
    384e:	9101      	str	r1, [sp, #4]
    3850:	4798      	blx	r3
    3852:	e7ec      	b.n	382e <chip_sleep+0x32>
    3854:	00003b2d 	.word	0x00003b2d
    3858:	00003b39 	.word	0x00003b39

0000385c <chip_wake>:
    385c:	2300      	movs	r3, #0
    385e:	b5f7      	push	{r0, r1, r2, r4, r5, r6, r7, lr}
    3860:	200b      	movs	r0, #11
    3862:	4669      	mov	r1, sp
    3864:	4d29      	ldr	r5, [pc, #164]	; (390c <chip_wake+0xb0>)
    3866:	9300      	str	r3, [sp, #0]
    3868:	9301      	str	r3, [sp, #4]
    386a:	47a8      	blx	r5
    386c:	1e04      	subs	r4, r0, #0
    386e:	d108      	bne.n	3882 <chip_wake+0x26>
    3870:	2101      	movs	r1, #1
    3872:	9b00      	ldr	r3, [sp, #0]
    3874:	420b      	tst	r3, r1
    3876:	d006      	beq.n	3886 <chip_wake+0x2a>
    3878:	4669      	mov	r1, sp
    387a:	2001      	movs	r0, #1
    387c:	47a8      	blx	r5
    387e:	1e04      	subs	r4, r0, #0
    3880:	d008      	beq.n	3894 <chip_wake+0x38>
    3882:	0020      	movs	r0, r4
    3884:	bdfe      	pop	{r1, r2, r3, r4, r5, r6, r7, pc}
    3886:	4319      	orrs	r1, r3
    3888:	200b      	movs	r0, #11
    388a:	4b21      	ldr	r3, [pc, #132]	; (3910 <chip_wake+0xb4>)
    388c:	4798      	blx	r3
    388e:	1e04      	subs	r4, r0, #0
    3890:	d0f2      	beq.n	3878 <chip_wake+0x1c>
    3892:	e7f6      	b.n	3882 <chip_wake+0x26>
    3894:	2102      	movs	r1, #2
    3896:	9b00      	ldr	r3, [sp, #0]
    3898:	420b      	tst	r3, r1
    389a:	d014      	beq.n	38c6 <chip_wake+0x6a>
    389c:	2605      	movs	r6, #5
    389e:	2704      	movs	r7, #4
    38a0:	a901      	add	r1, sp, #4
    38a2:	200f      	movs	r0, #15
    38a4:	47a8      	blx	r5
    38a6:	1e04      	subs	r4, r0, #0
    38a8:	d014      	beq.n	38d4 <chip_wake+0x78>
    38aa:	22aa      	movs	r2, #170	; 0xaa
    38ac:	4d19      	ldr	r5, [pc, #100]	; (3914 <chip_wake+0xb8>)
    38ae:	0052      	lsls	r2, r2, #1
    38b0:	4919      	ldr	r1, [pc, #100]	; (3918 <chip_wake+0xbc>)
    38b2:	481a      	ldr	r0, [pc, #104]	; (391c <chip_wake+0xc0>)
    38b4:	47a8      	blx	r5
    38b6:	9a01      	ldr	r2, [sp, #4]
    38b8:	0021      	movs	r1, r4
    38ba:	4819      	ldr	r0, [pc, #100]	; (3920 <chip_wake+0xc4>)
    38bc:	47a8      	blx	r5
    38be:	4b19      	ldr	r3, [pc, #100]	; (3924 <chip_wake+0xc8>)
    38c0:	200d      	movs	r0, #13
    38c2:	4798      	blx	r3
    38c4:	e7dd      	b.n	3882 <chip_wake+0x26>
    38c6:	4319      	orrs	r1, r3
    38c8:	2001      	movs	r0, #1
    38ca:	4b11      	ldr	r3, [pc, #68]	; (3910 <chip_wake+0xb4>)
    38cc:	4798      	blx	r3
    38ce:	1e04      	subs	r4, r0, #0
    38d0:	d0e4      	beq.n	389c <chip_wake+0x40>
    38d2:	e7d6      	b.n	3882 <chip_wake+0x26>
    38d4:	9b01      	ldr	r3, [sp, #4]
    38d6:	423b      	tst	r3, r7
    38d8:	d114      	bne.n	3904 <chip_wake+0xa8>
    38da:	2002      	movs	r0, #2
    38dc:	4b12      	ldr	r3, [pc, #72]	; (3928 <chip_wake+0xcc>)
    38de:	3e01      	subs	r6, #1
    38e0:	4798      	blx	r3
    38e2:	2e00      	cmp	r6, #0
    38e4:	d1dc      	bne.n	38a0 <chip_wake+0x44>
    38e6:	22af      	movs	r2, #175	; 0xaf
    38e8:	2404      	movs	r4, #4
    38ea:	0052      	lsls	r2, r2, #1
    38ec:	490a      	ldr	r1, [pc, #40]	; (3918 <chip_wake+0xbc>)
    38ee:	4b09      	ldr	r3, [pc, #36]	; (3914 <chip_wake+0xb8>)
    38f0:	480a      	ldr	r0, [pc, #40]	; (391c <chip_wake+0xc0>)
    38f2:	4798      	blx	r3
    38f4:	4b0d      	ldr	r3, [pc, #52]	; (392c <chip_wake+0xd0>)
    38f6:	480e      	ldr	r0, [pc, #56]	; (3930 <chip_wake+0xd4>)
    38f8:	4798      	blx	r3
    38fa:	200d      	movs	r0, #13
    38fc:	4b09      	ldr	r3, [pc, #36]	; (3924 <chip_wake+0xc8>)
    38fe:	4798      	blx	r3
    3900:	4264      	negs	r4, r4
    3902:	e7be      	b.n	3882 <chip_wake+0x26>
    3904:	4b0b      	ldr	r3, [pc, #44]	; (3934 <chip_wake+0xd8>)
    3906:	4798      	blx	r3
    3908:	e7bb      	b.n	3882 <chip_wake+0x26>
    390a:	46c0      	nop			; (mov r8, r8)
    390c:	00003b2d 	.word	0x00003b2d
    3910:	00003b39 	.word	0x00003b39
    3914:	0000b36d 	.word	0x0000b36d
    3918:	0000ce12 	.word	0x0000ce12
    391c:	0000c930 	.word	0x0000c930
    3920:	0000ce40 	.word	0x0000ce40
    3924:	0000b3a1 	.word	0x0000b3a1
    3928:	000026d5 	.word	0x000026d5
    392c:	0000b489 	.word	0x0000b489
    3930:	0000ce56 	.word	0x0000ce56
    3934:	00003b15 	.word	0x00003b15

00003938 <wait_for_bootrom>:
    3938:	b570      	push	{r4, r5, r6, lr}
    393a:	0005      	movs	r5, r0
    393c:	4824      	ldr	r0, [pc, #144]	; (39d0 <wait_for_bootrom+0x98>)
    393e:	4c25      	ldr	r4, [pc, #148]	; (39d4 <wait_for_bootrom+0x9c>)
    3940:	47a0      	blx	r4
    3942:	2800      	cmp	r0, #0
    3944:	db03      	blt.n	394e <wait_for_bootrom+0x16>
    3946:	2001      	movs	r0, #1
    3948:	4b23      	ldr	r3, [pc, #140]	; (39d8 <wait_for_bootrom+0xa0>)
    394a:	4798      	blx	r3
    394c:	e7f6      	b.n	393c <wait_for_bootrom+0x4>
    394e:	4823      	ldr	r0, [pc, #140]	; (39dc <wait_for_bootrom+0xa4>)
    3950:	47a0      	blx	r4
    3952:	07c3      	lsls	r3, r0, #31
    3954:	d50b      	bpl.n	396e <wait_for_bootrom+0x36>
    3956:	4c22      	ldr	r4, [pc, #136]	; (39e0 <wait_for_bootrom+0xa8>)
    3958:	2d02      	cmp	r5, #2
    395a:	d111      	bne.n	3980 <wait_for_bootrom+0x48>
    395c:	4921      	ldr	r1, [pc, #132]	; (39e4 <wait_for_bootrom+0xac>)
    395e:	4822      	ldr	r0, [pc, #136]	; (39e8 <wait_for_bootrom+0xb0>)
    3960:	47a0      	blx	r4
    3962:	2180      	movs	r1, #128	; 0x80
    3964:	0349      	lsls	r1, r1, #13
    3966:	4821      	ldr	r0, [pc, #132]	; (39ec <wait_for_bootrom+0xb4>)
    3968:	47a0      	blx	r4
    396a:	2500      	movs	r5, #0
    396c:	e015      	b.n	399a <wait_for_bootrom+0x62>
    396e:	4b1a      	ldr	r3, [pc, #104]	; (39d8 <wait_for_bootrom+0xa0>)
    3970:	2001      	movs	r0, #1
    3972:	4798      	blx	r3
    3974:	481e      	ldr	r0, [pc, #120]	; (39f0 <wait_for_bootrom+0xb8>)
    3976:	47a0      	blx	r4
    3978:	4b1e      	ldr	r3, [pc, #120]	; (39f4 <wait_for_bootrom+0xbc>)
    397a:	4298      	cmp	r0, r3
    397c:	d1f7      	bne.n	396e <wait_for_bootrom+0x36>
    397e:	e7ea      	b.n	3956 <wait_for_bootrom+0x1e>
    3980:	2d03      	cmp	r5, #3
    3982:	d104      	bne.n	398e <wait_for_bootrom+0x56>
    3984:	4917      	ldr	r1, [pc, #92]	; (39e4 <wait_for_bootrom+0xac>)
    3986:	4818      	ldr	r0, [pc, #96]	; (39e8 <wait_for_bootrom+0xb0>)
    3988:	47a0      	blx	r4
    398a:	2100      	movs	r1, #0
    398c:	e7eb      	b.n	3966 <wait_for_bootrom+0x2e>
    398e:	491a      	ldr	r1, [pc, #104]	; (39f8 <wait_for_bootrom+0xc0>)
    3990:	4816      	ldr	r0, [pc, #88]	; (39ec <wait_for_bootrom+0xb4>)
    3992:	2d04      	cmp	r5, #4
    3994:	d1e8      	bne.n	3968 <wait_for_bootrom+0x30>
    3996:	47a0      	blx	r4
    3998:	357c      	adds	r5, #124	; 0x7c
    399a:	4b18      	ldr	r3, [pc, #96]	; (39fc <wait_for_bootrom+0xc4>)
    399c:	4798      	blx	r3
    399e:	4a18      	ldr	r2, [pc, #96]	; (3a00 <wait_for_bootrom+0xc8>)
    39a0:	0500      	lsls	r0, r0, #20
    39a2:	0d00      	lsrs	r0, r0, #20
    39a4:	4b17      	ldr	r3, [pc, #92]	; (3a04 <wait_for_bootrom+0xcc>)
    39a6:	4290      	cmp	r0, r2
    39a8:	d910      	bls.n	39cc <wait_for_bootrom+0x94>
    39aa:	2002      	movs	r0, #2
    39ac:	4328      	orrs	r0, r5
    39ae:	4798      	blx	r3
    39b0:	4d15      	ldr	r5, [pc, #84]	; (3a08 <wait_for_bootrom+0xd0>)
    39b2:	4816      	ldr	r0, [pc, #88]	; (3a0c <wait_for_bootrom+0xd4>)
    39b4:	47a8      	blx	r5
    39b6:	4910      	ldr	r1, [pc, #64]	; (39f8 <wait_for_bootrom+0xc0>)
    39b8:	4815      	ldr	r0, [pc, #84]	; (3a10 <wait_for_bootrom+0xd8>)
    39ba:	47a8      	blx	r5
    39bc:	4b15      	ldr	r3, [pc, #84]	; (3a14 <wait_for_bootrom+0xdc>)
    39be:	200d      	movs	r0, #13
    39c0:	4798      	blx	r3
    39c2:	4915      	ldr	r1, [pc, #84]	; (3a18 <wait_for_bootrom+0xe0>)
    39c4:	480a      	ldr	r0, [pc, #40]	; (39f0 <wait_for_bootrom+0xb8>)
    39c6:	47a0      	blx	r4
    39c8:	2000      	movs	r0, #0
    39ca:	bd70      	pop	{r4, r5, r6, pc}
    39cc:	0028      	movs	r0, r5
    39ce:	e7ee      	b.n	39ae <wait_for_bootrom+0x76>
    39d0:	00001014 	.word	0x00001014
    39d4:	00003b21 	.word	0x00003b21
    39d8:	000026d5 	.word	0x000026d5
    39dc:	000207bc 	.word	0x000207bc
    39e0:	00003b39 	.word	0x00003b39
    39e4:	3c1cd57d 	.word	0x3c1cd57d
    39e8:	000207ac 	.word	0x000207ac
    39ec:	0000108c 	.word	0x0000108c
    39f0:	000c000c 	.word	0x000c000c
    39f4:	10add09e 	.word	0x10add09e
    39f8:	13521352 	.word	0x13521352
    39fc:	00003759 	.word	0x00003759
    3a00:	0000039f 	.word	0x0000039f
    3a04:	000036d5 	.word	0x000036d5
    3a08:	0000b36d 	.word	0x0000b36d
    3a0c:	0000cc1e 	.word	0x0000cc1e
    3a10:	0000ce6f 	.word	0x0000ce6f
    3a14:	0000b3a1 	.word	0x0000b3a1
    3a18:	ef522f61 	.word	0xef522f61

00003a1c <wait_for_firmware_start>:
    3a1c:	b537      	push	{r0, r1, r2, r4, r5, lr}
    3a1e:	4b13      	ldr	r3, [pc, #76]	; (3a6c <wait_for_firmware_start+0x50>)
    3a20:	4c13      	ldr	r4, [pc, #76]	; (3a70 <wait_for_firmware_start+0x54>)
    3a22:	3802      	subs	r0, #2
    3a24:	9300      	str	r3, [sp, #0]
    3a26:	9401      	str	r4, [sp, #4]
    3a28:	2801      	cmp	r0, #1
    3a2a:	d803      	bhi.n	3a34 <wait_for_firmware_start+0x18>
    3a2c:	4b11      	ldr	r3, [pc, #68]	; (3a74 <wait_for_firmware_start+0x58>)
    3a2e:	9300      	str	r3, [sp, #0]
    3a30:	4b11      	ldr	r3, [pc, #68]	; (3a78 <wait_for_firmware_start+0x5c>)
    3a32:	9301      	str	r3, [sp, #4]
    3a34:	2501      	movs	r5, #1
    3a36:	2000      	movs	r0, #0
    3a38:	426d      	negs	r5, r5
    3a3a:	9b01      	ldr	r3, [sp, #4]
    3a3c:	4298      	cmp	r0, r3
    3a3e:	d109      	bne.n	3a54 <wait_for_firmware_start+0x38>
    3a40:	9b01      	ldr	r3, [sp, #4]
    3a42:	2500      	movs	r5, #0
    3a44:	42a3      	cmp	r3, r4
    3a46:	d103      	bne.n	3a50 <wait_for_firmware_start+0x34>
    3a48:	0029      	movs	r1, r5
    3a4a:	4808      	ldr	r0, [pc, #32]	; (3a6c <wait_for_firmware_start+0x50>)
    3a4c:	4b0b      	ldr	r3, [pc, #44]	; (3a7c <wait_for_firmware_start+0x60>)
    3a4e:	4798      	blx	r3
    3a50:	0028      	movs	r0, r5
    3a52:	bd3e      	pop	{r1, r2, r3, r4, r5, pc}
    3a54:	2002      	movs	r0, #2
    3a56:	4b0a      	ldr	r3, [pc, #40]	; (3a80 <wait_for_firmware_start+0x64>)
    3a58:	4798      	blx	r3
    3a5a:	3d01      	subs	r5, #1
    3a5c:	9800      	ldr	r0, [sp, #0]
    3a5e:	4b09      	ldr	r3, [pc, #36]	; (3a84 <wait_for_firmware_start+0x68>)
    3a60:	4798      	blx	r3
    3a62:	2d00      	cmp	r5, #0
    3a64:	d1e9      	bne.n	3a3a <wait_for_firmware_start+0x1e>
    3a66:	2505      	movs	r5, #5
    3a68:	426d      	negs	r5, r5
    3a6a:	e7f1      	b.n	3a50 <wait_for_firmware_start+0x34>
    3a6c:	0000108c 	.word	0x0000108c
    3a70:	02532636 	.word	0x02532636
    3a74:	000207ac 	.word	0x000207ac
    3a78:	d75dc1c3 	.word	0xd75dc1c3
    3a7c:	00003b39 	.word	0x00003b39
    3a80:	000026d5 	.word	0x000026d5
    3a84:	00003b21 	.word	0x00003b21

00003a88 <chip_deinit>:
    3a88:	b513      	push	{r0, r1, r4, lr}
    3a8a:	2300      	movs	r3, #0
    3a8c:	20a0      	movs	r0, #160	; 0xa0
    3a8e:	9301      	str	r3, [sp, #4]
    3a90:	a901      	add	r1, sp, #4
    3a92:	0140      	lsls	r0, r0, #5
    3a94:	4b0e      	ldr	r3, [pc, #56]	; (3ad0 <chip_deinit+0x48>)
    3a96:	4798      	blx	r3
    3a98:	1e04      	subs	r4, r0, #0
    3a9a:	d00c      	beq.n	3ab6 <chip_deinit+0x2e>
    3a9c:	4a0d      	ldr	r2, [pc, #52]	; (3ad4 <chip_deinit+0x4c>)
    3a9e:	490e      	ldr	r1, [pc, #56]	; (3ad8 <chip_deinit+0x50>)
    3aa0:	4b0e      	ldr	r3, [pc, #56]	; (3adc <chip_deinit+0x54>)
    3aa2:	480f      	ldr	r0, [pc, #60]	; (3ae0 <chip_deinit+0x58>)
    3aa4:	4798      	blx	r3
    3aa6:	4b0f      	ldr	r3, [pc, #60]	; (3ae4 <chip_deinit+0x5c>)
    3aa8:	480f      	ldr	r0, [pc, #60]	; (3ae8 <chip_deinit+0x60>)
    3aaa:	4798      	blx	r3
    3aac:	200d      	movs	r0, #13
    3aae:	4b0f      	ldr	r3, [pc, #60]	; (3aec <chip_deinit+0x64>)
    3ab0:	4798      	blx	r3
    3ab2:	0020      	movs	r0, r4
    3ab4:	bd16      	pop	{r1, r2, r4, pc}
    3ab6:	20a0      	movs	r0, #160	; 0xa0
    3ab8:	9b01      	ldr	r3, [sp, #4]
    3aba:	490d      	ldr	r1, [pc, #52]	; (3af0 <chip_deinit+0x68>)
    3abc:	0140      	lsls	r0, r0, #5
    3abe:	4019      	ands	r1, r3
    3ac0:	4b0c      	ldr	r3, [pc, #48]	; (3af4 <chip_deinit+0x6c>)
    3ac2:	9101      	str	r1, [sp, #4]
    3ac4:	4798      	blx	r3
    3ac6:	1e04      	subs	r4, r0, #0
    3ac8:	d0f3      	beq.n	3ab2 <chip_deinit+0x2a>
    3aca:	4a0b      	ldr	r2, [pc, #44]	; (3af8 <chip_deinit+0x70>)
    3acc:	e7e7      	b.n	3a9e <chip_deinit+0x16>
    3ace:	46c0      	nop			; (mov r8, r8)
    3ad0:	00003b2d 	.word	0x00003b2d
    3ad4:	00000205 	.word	0x00000205
    3ad8:	0000ce1c 	.word	0x0000ce1c
    3adc:	0000b36d 	.word	0x0000b36d
    3ae0:	0000c930 	.word	0x0000c930
    3ae4:	0000b489 	.word	0x0000b489
    3ae8:	0000ce28 	.word	0x0000ce28
    3aec:	0000b3a1 	.word	0x0000b3a1
    3af0:	fffffbff 	.word	0xfffffbff
    3af4:	00003b39 	.word	0x00003b39
    3af8:	0000020b 	.word	0x0000020b

00003afc <nm_bus_iface_init>:
    3afc:	b510      	push	{r4, lr}
    3afe:	4b01      	ldr	r3, [pc, #4]	; (3b04 <nm_bus_iface_init+0x8>)
    3b00:	4798      	blx	r3
    3b02:	bd10      	pop	{r4, pc}
    3b04:	00002805 	.word	0x00002805

00003b08 <nm_bus_iface_deinit>:
    3b08:	b510      	push	{r4, lr}
    3b0a:	4b01      	ldr	r3, [pc, #4]	; (3b10 <nm_bus_iface_deinit+0x8>)
    3b0c:	4798      	blx	r3
    3b0e:	bd10      	pop	{r4, pc}
    3b10:	00002a19 	.word	0x00002a19

00003b14 <nm_bus_reset>:
    3b14:	b510      	push	{r4, lr}
    3b16:	4b01      	ldr	r3, [pc, #4]	; (3b1c <nm_bus_reset+0x8>)
    3b18:	4798      	blx	r3
    3b1a:	bd10      	pop	{r4, pc}
    3b1c:	00004349 	.word	0x00004349

00003b20 <nm_read_reg>:
    3b20:	b510      	push	{r4, lr}
    3b22:	4b01      	ldr	r3, [pc, #4]	; (3b28 <nm_read_reg+0x8>)
    3b24:	4798      	blx	r3
    3b26:	bd10      	pop	{r4, pc}
    3b28:	00004379 	.word	0x00004379

00003b2c <nm_read_reg_with_ret>:
    3b2c:	b510      	push	{r4, lr}
    3b2e:	4b01      	ldr	r3, [pc, #4]	; (3b34 <nm_read_reg_with_ret+0x8>)
    3b30:	4798      	blx	r3
    3b32:	bd10      	pop	{r4, pc}
    3b34:	00004389 	.word	0x00004389

00003b38 <nm_write_reg>:
    3b38:	b510      	push	{r4, lr}
    3b3a:	4b01      	ldr	r3, [pc, #4]	; (3b40 <nm_write_reg+0x8>)
    3b3c:	4798      	blx	r3
    3b3e:	bd10      	pop	{r4, pc}
    3b40:	000043a1 	.word	0x000043a1

00003b44 <nm_read_block>:
    3b44:	b5f7      	push	{r0, r1, r2, r4, r5, r6, r7, lr}
    3b46:	0007      	movs	r7, r0
    3b48:	0015      	movs	r5, r2
    3b4a:	0006      	movs	r6, r0
    3b4c:	4b0b      	ldr	r3, [pc, #44]	; (3b7c <nm_read_block+0x38>)
    3b4e:	9101      	str	r1, [sp, #4]
    3b50:	881c      	ldrh	r4, [r3, #0]
    3b52:	3c08      	subs	r4, #8
    3b54:	b2a4      	uxth	r4, r4
    3b56:	9b01      	ldr	r3, [sp, #4]
    3b58:	1bf1      	subs	r1, r6, r7
    3b5a:	1859      	adds	r1, r3, r1
    3b5c:	42a5      	cmp	r5, r4
    3b5e:	d804      	bhi.n	3b6a <nm_read_block+0x26>
    3b60:	b2aa      	uxth	r2, r5
    3b62:	0030      	movs	r0, r6
    3b64:	4b06      	ldr	r3, [pc, #24]	; (3b80 <nm_read_block+0x3c>)
    3b66:	4798      	blx	r3
    3b68:	bdfe      	pop	{r1, r2, r3, r4, r5, r6, r7, pc}
    3b6a:	0022      	movs	r2, r4
    3b6c:	0030      	movs	r0, r6
    3b6e:	4b04      	ldr	r3, [pc, #16]	; (3b80 <nm_read_block+0x3c>)
    3b70:	4798      	blx	r3
    3b72:	2800      	cmp	r0, #0
    3b74:	d1f8      	bne.n	3b68 <nm_read_block+0x24>
    3b76:	1b2d      	subs	r5, r5, r4
    3b78:	1936      	adds	r6, r6, r4
    3b7a:	e7ec      	b.n	3b56 <nm_read_block+0x12>
    3b7c:	20000008 	.word	0x20000008
    3b80:	000044cd 	.word	0x000044cd

00003b84 <nm_write_block>:
    3b84:	b5f7      	push	{r0, r1, r2, r4, r5, r6, r7, lr}
    3b86:	0007      	movs	r7, r0
    3b88:	0015      	movs	r5, r2
    3b8a:	0006      	movs	r6, r0
    3b8c:	4b0b      	ldr	r3, [pc, #44]	; (3bbc <nm_write_block+0x38>)
    3b8e:	9101      	str	r1, [sp, #4]
    3b90:	881c      	ldrh	r4, [r3, #0]
    3b92:	3c08      	subs	r4, #8
    3b94:	b2a4      	uxth	r4, r4
    3b96:	9b01      	ldr	r3, [sp, #4]
    3b98:	1bf1      	subs	r1, r6, r7
    3b9a:	1859      	adds	r1, r3, r1
    3b9c:	42a5      	cmp	r5, r4
    3b9e:	d804      	bhi.n	3baa <nm_write_block+0x26>
    3ba0:	b2aa      	uxth	r2, r5
    3ba2:	0030      	movs	r0, r6
    3ba4:	4b06      	ldr	r3, [pc, #24]	; (3bc0 <nm_write_block+0x3c>)
    3ba6:	4798      	blx	r3
    3ba8:	bdfe      	pop	{r1, r2, r3, r4, r5, r6, r7, pc}
    3baa:	0022      	movs	r2, r4
    3bac:	0030      	movs	r0, r6
    3bae:	4b04      	ldr	r3, [pc, #16]	; (3bc0 <nm_write_block+0x3c>)
    3bb0:	4798      	blx	r3
    3bb2:	2800      	cmp	r0, #0
    3bb4:	d1f8      	bne.n	3ba8 <nm_write_block+0x24>
    3bb6:	1b2d      	subs	r5, r5, r4
    3bb8:	1936      	adds	r6, r6, r4
    3bba:	e7ec      	b.n	3b96 <nm_write_block+0x12>
    3bbc:	20000008 	.word	0x20000008
    3bc0:	000045f9 	.word	0x000045f9

00003bc4 <nm_get_firmware_full_info>:
    3bc4:	b57f      	push	{r0, r1, r2, r3, r4, r5, r6, lr}
    3bc6:	2500      	movs	r5, #0
    3bc8:	0004      	movs	r4, r0
    3bca:	2208      	movs	r2, #8
    3bcc:	0029      	movs	r1, r5
    3bce:	a802      	add	r0, sp, #8
    3bd0:	4b26      	ldr	r3, [pc, #152]	; (3c6c <nm_get_firmware_full_info+0xa8>)
    3bd2:	9501      	str	r5, [sp, #4]
    3bd4:	4798      	blx	r3
    3bd6:	42ac      	cmp	r4, r5
    3bd8:	d102      	bne.n	3be0 <nm_get_firmware_full_info+0x1c>
    3bda:	2000      	movs	r0, #0
    3bdc:	b004      	add	sp, #16
    3bde:	bd70      	pop	{r4, r5, r6, pc}
    3be0:	0029      	movs	r1, r5
    3be2:	0020      	movs	r0, r4
    3be4:	4b22      	ldr	r3, [pc, #136]	; (3c70 <nm_get_firmware_full_info+0xac>)
    3be6:	2228      	movs	r2, #40	; 0x28
    3be8:	4798      	blx	r3
    3bea:	a901      	add	r1, sp, #4
    3bec:	4821      	ldr	r0, [pc, #132]	; (3c74 <nm_get_firmware_full_info+0xb0>)
    3bee:	4b22      	ldr	r3, [pc, #136]	; (3c78 <nm_get_firmware_full_info+0xb4>)
    3bf0:	4798      	blx	r3
    3bf2:	2800      	cmp	r0, #0
    3bf4:	d1f2      	bne.n	3bdc <nm_get_firmware_full_info+0x18>
    3bf6:	9801      	ldr	r0, [sp, #4]
    3bf8:	2800      	cmp	r0, #0
    3bfa:	d102      	bne.n	3c02 <nm_get_firmware_full_info+0x3e>
    3bfc:	200c      	movs	r0, #12
    3bfe:	4240      	negs	r0, r0
    3c00:	e7ec      	b.n	3bdc <nm_get_firmware_full_info+0x18>
    3c02:	25c0      	movs	r5, #192	; 0xc0
    3c04:	02ad      	lsls	r5, r5, #10
    3c06:	4328      	orrs	r0, r5
    3c08:	2208      	movs	r2, #8
    3c0a:	a902      	add	r1, sp, #8
    3c0c:	4e1b      	ldr	r6, [pc, #108]	; (3c7c <nm_get_firmware_full_info+0xb8>)
    3c0e:	47b0      	blx	r6
    3c10:	2800      	cmp	r0, #0
    3c12:	d1e3      	bne.n	3bdc <nm_get_firmware_full_info+0x18>
    3c14:	9803      	ldr	r0, [sp, #12]
    3c16:	b280      	uxth	r0, r0
    3c18:	9001      	str	r0, [sp, #4]
    3c1a:	2800      	cmp	r0, #0
    3c1c:	d0ee      	beq.n	3bfc <nm_get_firmware_full_info+0x38>
    3c1e:	4328      	orrs	r0, r5
    3c20:	2228      	movs	r2, #40	; 0x28
    3c22:	0021      	movs	r1, r4
    3c24:	47b0      	blx	r6
    3c26:	2800      	cmp	r0, #0
    3c28:	d1d8      	bne.n	3bdc <nm_get_firmware_full_info+0x18>
    3c2a:	210f      	movs	r1, #15
    3c2c:	25ff      	movs	r5, #255	; 0xff
    3c2e:	7922      	ldrb	r2, [r4, #4]
    3c30:	79a3      	ldrb	r3, [r4, #6]
    3c32:	7960      	ldrb	r0, [r4, #5]
    3c34:	0212      	lsls	r2, r2, #8
    3c36:	400b      	ands	r3, r1
    3c38:	4313      	orrs	r3, r2
    3c3a:	0100      	lsls	r0, r0, #4
    3c3c:	7a62      	ldrb	r2, [r4, #9]
    3c3e:	4028      	ands	r0, r5
    3c40:	400a      	ands	r2, r1
    3c42:	4303      	orrs	r3, r0
    3c44:	7a21      	ldrb	r1, [r4, #8]
    3c46:	79e0      	ldrb	r0, [r4, #7]
    3c48:	0109      	lsls	r1, r1, #4
    3c4a:	0200      	lsls	r0, r0, #8
    3c4c:	4302      	orrs	r2, r0
    3c4e:	4029      	ands	r1, r5
    3c50:	430a      	orrs	r2, r1
    3c52:	2b00      	cmp	r3, #0
    3c54:	d0d2      	beq.n	3bfc <nm_get_firmware_full_info+0x38>
    3c56:	2a00      	cmp	r2, #0
    3c58:	d0d0      	beq.n	3bfc <nm_get_firmware_full_info+0x38>
    3c5a:	4909      	ldr	r1, [pc, #36]	; (3c80 <nm_get_firmware_full_info+0xbc>)
    3c5c:	428a      	cmp	r2, r1
    3c5e:	d802      	bhi.n	3c66 <nm_get_firmware_full_info+0xa2>
    3c60:	4a08      	ldr	r2, [pc, #32]	; (3c84 <nm_get_firmware_full_info+0xc0>)
    3c62:	4293      	cmp	r3, r2
    3c64:	d8b9      	bhi.n	3bda <nm_get_firmware_full_info+0x16>
    3c66:	200d      	movs	r0, #13
    3c68:	e7c9      	b.n	3bfe <nm_get_firmware_full_info+0x3a>
    3c6a:	46c0      	nop			; (mov r8, r8)
    3c6c:	0000b20b 	.word	0x0000b20b
    3c70:	00002a93 	.word	0x00002a93
    3c74:	000c0008 	.word	0x000c0008
    3c78:	00003b2d 	.word	0x00003b2d
    3c7c:	00003b45 	.word	0x00003b45
    3c80:	00001352 	.word	0x00001352
    3c84:	00001351 	.word	0x00001351

00003c88 <nm_drv_init>:
    3c88:	b5f8      	push	{r3, r4, r5, r6, r7, lr}
    3c8a:	2401      	movs	r4, #1
    3c8c:	2800      	cmp	r0, #0
    3c8e:	d004      	beq.n	3c9a <nm_drv_init+0x12>
    3c90:	7804      	ldrb	r4, [r0, #0]
    3c92:	1e63      	subs	r3, r4, #1
    3c94:	2b03      	cmp	r3, #3
    3c96:	d900      	bls.n	3c9a <nm_drv_init+0x12>
    3c98:	2401      	movs	r4, #1
    3c9a:	2000      	movs	r0, #0
    3c9c:	4b1d      	ldr	r3, [pc, #116]	; (3d14 <nm_drv_init+0x8c>)
    3c9e:	4798      	blx	r3
    3ca0:	4e1d      	ldr	r6, [pc, #116]	; (3d18 <nm_drv_init+0x90>)
    3ca2:	1e05      	subs	r5, r0, #0
    3ca4:	4f1d      	ldr	r7, [pc, #116]	; (3d1c <nm_drv_init+0x94>)
    3ca6:	d00b      	beq.n	3cc0 <nm_drv_init+0x38>
    3ca8:	2228      	movs	r2, #40	; 0x28
    3caa:	491d      	ldr	r1, [pc, #116]	; (3d20 <nm_drv_init+0x98>)
    3cac:	32ff      	adds	r2, #255	; 0xff
    3cae:	481d      	ldr	r0, [pc, #116]	; (3d24 <nm_drv_init+0x9c>)
    3cb0:	47b0      	blx	r6
    3cb2:	481d      	ldr	r0, [pc, #116]	; (3d28 <nm_drv_init+0xa0>)
    3cb4:	4b1d      	ldr	r3, [pc, #116]	; (3d2c <nm_drv_init+0xa4>)
    3cb6:	4798      	blx	r3
    3cb8:	200d      	movs	r0, #13
    3cba:	47b8      	blx	r7
    3cbc:	0028      	movs	r0, r5
    3cbe:	bdf8      	pop	{r3, r4, r5, r6, r7, pc}
    3cc0:	481b      	ldr	r0, [pc, #108]	; (3d30 <nm_drv_init+0xa8>)
    3cc2:	47b0      	blx	r6
    3cc4:	4b1b      	ldr	r3, [pc, #108]	; (3d34 <nm_drv_init+0xac>)
    3cc6:	4798      	blx	r3
    3cc8:	0001      	movs	r1, r0
    3cca:	481b      	ldr	r0, [pc, #108]	; (3d38 <nm_drv_init+0xb0>)
    3ccc:	47b0      	blx	r6
    3cce:	200d      	movs	r0, #13
    3cd0:	47b8      	blx	r7
    3cd2:	4b1a      	ldr	r3, [pc, #104]	; (3d3c <nm_drv_init+0xb4>)
    3cd4:	4798      	blx	r3
    3cd6:	0020      	movs	r0, r4
    3cd8:	4b19      	ldr	r3, [pc, #100]	; (3d40 <nm_drv_init+0xb8>)
    3cda:	4798      	blx	r3
    3cdc:	1e05      	subs	r5, r0, #0
    3cde:	d116      	bne.n	3d0e <nm_drv_init+0x86>
    3ce0:	0020      	movs	r0, r4
    3ce2:	4b18      	ldr	r3, [pc, #96]	; (3d44 <nm_drv_init+0xbc>)
    3ce4:	4798      	blx	r3
    3ce6:	1e05      	subs	r5, r0, #0
    3ce8:	d111      	bne.n	3d0e <nm_drv_init+0x86>
    3cea:	3c02      	subs	r4, #2
    3cec:	2c01      	cmp	r4, #1
    3cee:	d9e5      	bls.n	3cbc <nm_drv_init+0x34>
    3cf0:	4b15      	ldr	r3, [pc, #84]	; (3d48 <nm_drv_init+0xc0>)
    3cf2:	4798      	blx	r3
    3cf4:	1e04      	subs	r4, r0, #0
    3cf6:	d0e1      	beq.n	3cbc <nm_drv_init+0x34>
    3cf8:	2256      	movs	r2, #86	; 0x56
    3cfa:	4909      	ldr	r1, [pc, #36]	; (3d20 <nm_drv_init+0x98>)
    3cfc:	32ff      	adds	r2, #255	; 0xff
    3cfe:	4809      	ldr	r0, [pc, #36]	; (3d24 <nm_drv_init+0x9c>)
    3d00:	47b0      	blx	r6
    3d02:	4b0a      	ldr	r3, [pc, #40]	; (3d2c <nm_drv_init+0xa4>)
    3d04:	4811      	ldr	r0, [pc, #68]	; (3d4c <nm_drv_init+0xc4>)
    3d06:	4798      	blx	r3
    3d08:	200d      	movs	r0, #13
    3d0a:	47b8      	blx	r7
    3d0c:	0025      	movs	r5, r4
    3d0e:	4b10      	ldr	r3, [pc, #64]	; (3d50 <nm_drv_init+0xc8>)
    3d10:	4798      	blx	r3
    3d12:	e7d3      	b.n	3cbc <nm_drv_init+0x34>
    3d14:	00003afd 	.word	0x00003afd
    3d18:	0000b36d 	.word	0x0000b36d
    3d1c:	0000b3a1 	.word	0x0000b3a1
    3d20:	0000ce87 	.word	0x0000ce87
    3d24:	0000c930 	.word	0x0000c930
    3d28:	0000cf19 	.word	0x0000cf19
    3d2c:	0000b489 	.word	0x0000b489
    3d30:	0000cc1e 	.word	0x0000cc1e
    3d34:	00003759 	.word	0x00003759
    3d38:	0000cf34 	.word	0x0000cf34
    3d3c:	000043b9 	.word	0x000043b9
    3d40:	00003939 	.word	0x00003939
    3d44:	00003a1d 	.word	0x00003a1d
    3d48:	00003709 	.word	0x00003709
    3d4c:	0000cefb 	.word	0x0000cefb
    3d50:	00003b09 	.word	0x00003b09

00003d54 <nm_drv_deinit>:
    3d54:	b510      	push	{r4, lr}
    3d56:	4b16      	ldr	r3, [pc, #88]	; (3db0 <nm_drv_deinit+0x5c>)
    3d58:	4798      	blx	r3
    3d5a:	1e04      	subs	r4, r0, #0
    3d5c:	d00d      	beq.n	3d7a <nm_drv_deinit+0x26>
    3d5e:	22b6      	movs	r2, #182	; 0xb6
    3d60:	4914      	ldr	r1, [pc, #80]	; (3db4 <nm_drv_deinit+0x60>)
    3d62:	0052      	lsls	r2, r2, #1
    3d64:	4814      	ldr	r0, [pc, #80]	; (3db8 <nm_drv_deinit+0x64>)
    3d66:	4b15      	ldr	r3, [pc, #84]	; (3dbc <nm_drv_deinit+0x68>)
    3d68:	4798      	blx	r3
    3d6a:	4815      	ldr	r0, [pc, #84]	; (3dc0 <nm_drv_deinit+0x6c>)
    3d6c:	4b15      	ldr	r3, [pc, #84]	; (3dc4 <nm_drv_deinit+0x70>)
    3d6e:	4798      	blx	r3
    3d70:	200d      	movs	r0, #13
    3d72:	4b15      	ldr	r3, [pc, #84]	; (3dc8 <nm_drv_deinit+0x74>)
    3d74:	4798      	blx	r3
    3d76:	0020      	movs	r0, r4
    3d78:	bd10      	pop	{r4, pc}
    3d7a:	4b14      	ldr	r3, [pc, #80]	; (3dcc <nm_drv_deinit+0x78>)
    3d7c:	4798      	blx	r3
    3d7e:	1e04      	subs	r4, r0, #0
    3d80:	d007      	beq.n	3d92 <nm_drv_deinit+0x3e>
    3d82:	2274      	movs	r2, #116	; 0x74
    3d84:	490b      	ldr	r1, [pc, #44]	; (3db4 <nm_drv_deinit+0x60>)
    3d86:	32ff      	adds	r2, #255	; 0xff
    3d88:	480b      	ldr	r0, [pc, #44]	; (3db8 <nm_drv_deinit+0x64>)
    3d8a:	4b0c      	ldr	r3, [pc, #48]	; (3dbc <nm_drv_deinit+0x68>)
    3d8c:	4798      	blx	r3
    3d8e:	4810      	ldr	r0, [pc, #64]	; (3dd0 <nm_drv_deinit+0x7c>)
    3d90:	e7ec      	b.n	3d6c <nm_drv_deinit+0x18>
    3d92:	4b10      	ldr	r3, [pc, #64]	; (3dd4 <nm_drv_deinit+0x80>)
    3d94:	4798      	blx	r3
    3d96:	1e04      	subs	r4, r0, #0
    3d98:	d007      	beq.n	3daa <nm_drv_deinit+0x56>
    3d9a:	227a      	movs	r2, #122	; 0x7a
    3d9c:	4905      	ldr	r1, [pc, #20]	; (3db4 <nm_drv_deinit+0x60>)
    3d9e:	32ff      	adds	r2, #255	; 0xff
    3da0:	4805      	ldr	r0, [pc, #20]	; (3db8 <nm_drv_deinit+0x64>)
    3da2:	4b06      	ldr	r3, [pc, #24]	; (3dbc <nm_drv_deinit+0x68>)
    3da4:	4798      	blx	r3
    3da6:	480c      	ldr	r0, [pc, #48]	; (3dd8 <nm_drv_deinit+0x84>)
    3da8:	e7e0      	b.n	3d6c <nm_drv_deinit+0x18>
    3daa:	4b0c      	ldr	r3, [pc, #48]	; (3ddc <nm_drv_deinit+0x88>)
    3dac:	4798      	blx	r3
    3dae:	e7e2      	b.n	3d76 <nm_drv_deinit+0x22>
    3db0:	00003a89 	.word	0x00003a89
    3db4:	0000ce93 	.word	0x0000ce93
    3db8:	0000c930 	.word	0x0000c930
    3dbc:	0000b36d 	.word	0x0000b36d
    3dc0:	0000cea1 	.word	0x0000cea1
    3dc4:	0000b489 	.word	0x0000b489
    3dc8:	0000b3a1 	.word	0x0000b3a1
    3dcc:	00004f9d 	.word	0x00004f9d
    3dd0:	0000cebe 	.word	0x0000cebe
    3dd4:	00003b09 	.word	0x00003b09
    3dd8:	0000cee1 	.word	0x0000cee1
    3ddc:	0000436d 	.word	0x0000436d

00003de0 <nmi_spi_write>:
    3de0:	b51f      	push	{r0, r1, r2, r3, r4, lr}
    3de2:	2200      	movs	r2, #0
    3de4:	ab01      	add	r3, sp, #4
    3de6:	9001      	str	r0, [sp, #4]
    3de8:	8119      	strh	r1, [r3, #8]
    3dea:	2003      	movs	r0, #3
    3dec:	0019      	movs	r1, r3
    3dee:	4b02      	ldr	r3, [pc, #8]	; (3df8 <nmi_spi_write+0x18>)
    3df0:	9202      	str	r2, [sp, #8]
    3df2:	4798      	blx	r3
    3df4:	b005      	add	sp, #20
    3df6:	bd00      	pop	{pc}
    3df8:	00002905 	.word	0x00002905

00003dfc <nmi_spi_read>:
    3dfc:	b51f      	push	{r0, r1, r2, r3, r4, lr}
    3dfe:	2200      	movs	r2, #0
    3e00:	ab01      	add	r3, sp, #4
    3e02:	9002      	str	r0, [sp, #8]
    3e04:	8119      	strh	r1, [r3, #8]
    3e06:	2003      	movs	r0, #3
    3e08:	0019      	movs	r1, r3
    3e0a:	4b02      	ldr	r3, [pc, #8]	; (3e14 <nmi_spi_read+0x18>)
    3e0c:	9201      	str	r2, [sp, #4]
    3e0e:	4798      	blx	r3
    3e10:	b005      	add	sp, #20
    3e12:	bd00      	pop	{pc}
    3e14:	00002905 	.word	0x00002905

00003e18 <spi_cmd_rsp>:
    3e18:	b5f7      	push	{r0, r1, r2, r4, r5, r6, r7, lr}
    3e1a:	466b      	mov	r3, sp
    3e1c:	0007      	movs	r7, r0
    3e1e:	1ddd      	adds	r5, r3, #7
    3e20:	28cf      	cmp	r0, #207	; 0xcf
    3e22:	d019      	beq.n	3e58 <spi_cmd_rsp+0x40>
    3e24:	0003      	movs	r3, r0
    3e26:	333b      	adds	r3, #59	; 0x3b
    3e28:	b2db      	uxtb	r3, r3
    3e2a:	2b01      	cmp	r3, #1
    3e2c:	d914      	bls.n	3e58 <spi_cmd_rsp+0x40>
    3e2e:	260b      	movs	r6, #11
    3e30:	2101      	movs	r1, #1
    3e32:	0028      	movs	r0, r5
    3e34:	4b1f      	ldr	r3, [pc, #124]	; (3eb4 <spi_cmd_rsp+0x9c>)
    3e36:	4798      	blx	r3
    3e38:	1e04      	subs	r4, r0, #0
    3e3a:	d016      	beq.n	3e6a <spi_cmd_rsp+0x52>
    3e3c:	22b1      	movs	r2, #177	; 0xb1
    3e3e:	491e      	ldr	r1, [pc, #120]	; (3eb8 <spi_cmd_rsp+0xa0>)
    3e40:	0052      	lsls	r2, r2, #1
    3e42:	4b1e      	ldr	r3, [pc, #120]	; (3ebc <spi_cmd_rsp+0xa4>)
    3e44:	481e      	ldr	r0, [pc, #120]	; (3ec0 <spi_cmd_rsp+0xa8>)
    3e46:	4798      	blx	r3
    3e48:	4b1e      	ldr	r3, [pc, #120]	; (3ec4 <spi_cmd_rsp+0xac>)
    3e4a:	481f      	ldr	r0, [pc, #124]	; (3ec8 <spi_cmd_rsp+0xb0>)
    3e4c:	4798      	blx	r3
    3e4e:	200d      	movs	r0, #13
    3e50:	4b1e      	ldr	r3, [pc, #120]	; (3ecc <spi_cmd_rsp+0xb4>)
    3e52:	4798      	blx	r3
    3e54:	2400      	movs	r4, #0
    3e56:	e006      	b.n	3e66 <spi_cmd_rsp+0x4e>
    3e58:	2101      	movs	r1, #1
    3e5a:	0028      	movs	r0, r5
    3e5c:	4b15      	ldr	r3, [pc, #84]	; (3eb4 <spi_cmd_rsp+0x9c>)
    3e5e:	4798      	blx	r3
    3e60:	2400      	movs	r4, #0
    3e62:	42a0      	cmp	r0, r4
    3e64:	d0e3      	beq.n	3e2e <spi_cmd_rsp+0x16>
    3e66:	0020      	movs	r0, r4
    3e68:	bdfe      	pop	{r1, r2, r3, r4, r5, r6, r7, pc}
    3e6a:	782b      	ldrb	r3, [r5, #0]
    3e6c:	42bb      	cmp	r3, r7
    3e6e:	d003      	beq.n	3e78 <spi_cmd_rsp+0x60>
    3e70:	3e01      	subs	r6, #1
    3e72:	b2f6      	uxtb	r6, r6
    3e74:	2e00      	cmp	r6, #0
    3e76:	d1db      	bne.n	3e30 <spi_cmd_rsp+0x18>
    3e78:	260b      	movs	r6, #11
    3e7a:	2101      	movs	r1, #1
    3e7c:	0028      	movs	r0, r5
    3e7e:	4b0d      	ldr	r3, [pc, #52]	; (3eb4 <spi_cmd_rsp+0x9c>)
    3e80:	4798      	blx	r3
    3e82:	2800      	cmp	r0, #0
    3e84:	d00c      	beq.n	3ea0 <spi_cmd_rsp+0x88>
    3e86:	22b8      	movs	r2, #184	; 0xb8
    3e88:	490b      	ldr	r1, [pc, #44]	; (3eb8 <spi_cmd_rsp+0xa0>)
    3e8a:	0052      	lsls	r2, r2, #1
    3e8c:	4b0b      	ldr	r3, [pc, #44]	; (3ebc <spi_cmd_rsp+0xa4>)
    3e8e:	480c      	ldr	r0, [pc, #48]	; (3ec0 <spi_cmd_rsp+0xa8>)
    3e90:	4798      	blx	r3
    3e92:	4b0c      	ldr	r3, [pc, #48]	; (3ec4 <spi_cmd_rsp+0xac>)
    3e94:	480c      	ldr	r0, [pc, #48]	; (3ec8 <spi_cmd_rsp+0xb0>)
    3e96:	4798      	blx	r3
    3e98:	4b0c      	ldr	r3, [pc, #48]	; (3ecc <spi_cmd_rsp+0xb4>)
    3e9a:	200d      	movs	r0, #13
    3e9c:	4798      	blx	r3
    3e9e:	e7e2      	b.n	3e66 <spi_cmd_rsp+0x4e>
    3ea0:	782b      	ldrb	r3, [r5, #0]
    3ea2:	2b00      	cmp	r3, #0
    3ea4:	d003      	beq.n	3eae <spi_cmd_rsp+0x96>
    3ea6:	3e01      	subs	r6, #1
    3ea8:	b2f6      	uxtb	r6, r6
    3eaa:	2e00      	cmp	r6, #0
    3eac:	d1e5      	bne.n	3e7a <spi_cmd_rsp+0x62>
    3eae:	2401      	movs	r4, #1
    3eb0:	e7d9      	b.n	3e66 <spi_cmd_rsp+0x4e>
    3eb2:	46c0      	nop			; (mov r8, r8)
    3eb4:	00003dfd 	.word	0x00003dfd
    3eb8:	0000cf5d 	.word	0x0000cf5d
    3ebc:	0000b36d 	.word	0x0000b36d
    3ec0:	0000c930 	.word	0x0000c930
    3ec4:	0000b489 	.word	0x0000b489
    3ec8:	0000d3d9 	.word	0x0000d3d9
    3ecc:	0000b3a1 	.word	0x0000b3a1

00003ed0 <spi_data_read>:
    3ed0:	2300      	movs	r3, #0
    3ed2:	b5f0      	push	{r4, r5, r6, r7, lr}
    3ed4:	000c      	movs	r4, r1
    3ed6:	b087      	sub	sp, #28
    3ed8:	9002      	str	r0, [sp, #8]
    3eda:	9203      	str	r2, [sp, #12]
    3edc:	9300      	str	r3, [sp, #0]
    3ede:	2280      	movs	r2, #128	; 0x80
    3ee0:	1c23      	adds	r3, r4, #0
    3ee2:	0192      	lsls	r2, r2, #6
    3ee4:	4294      	cmp	r4, r2
    3ee6:	d901      	bls.n	3eec <spi_data_read+0x1c>
    3ee8:	4b31      	ldr	r3, [pc, #196]	; (3fb0 <spi_data_read+0xe0>)
    3eea:	881b      	ldrh	r3, [r3, #0]
    3eec:	250a      	movs	r5, #10
    3eee:	b29b      	uxth	r3, r3
    3ef0:	9301      	str	r3, [sp, #4]
    3ef2:	ab04      	add	r3, sp, #16
    3ef4:	1cdf      	adds	r7, r3, #3
    3ef6:	2101      	movs	r1, #1
    3ef8:	0038      	movs	r0, r7
    3efa:	4b2e      	ldr	r3, [pc, #184]	; (3fb4 <spi_data_read+0xe4>)
    3efc:	4798      	blx	r3
    3efe:	1e06      	subs	r6, r0, #0
    3f00:	d00e      	beq.n	3f20 <spi_data_read+0x50>
    3f02:	4a2d      	ldr	r2, [pc, #180]	; (3fb8 <spi_data_read+0xe8>)
    3f04:	492d      	ldr	r1, [pc, #180]	; (3fbc <spi_data_read+0xec>)
    3f06:	4b2e      	ldr	r3, [pc, #184]	; (3fc0 <spi_data_read+0xf0>)
    3f08:	482e      	ldr	r0, [pc, #184]	; (3fc4 <spi_data_read+0xf4>)
    3f0a:	4798      	blx	r3
    3f0c:	4b2e      	ldr	r3, [pc, #184]	; (3fc8 <spi_data_read+0xf8>)
    3f0e:	482f      	ldr	r0, [pc, #188]	; (3fcc <spi_data_read+0xfc>)
    3f10:	4798      	blx	r3
    3f12:	200d      	movs	r0, #13
    3f14:	4b2e      	ldr	r3, [pc, #184]	; (3fd0 <spi_data_read+0x100>)
    3f16:	4798      	blx	r3
    3f18:	2600      	movs	r6, #0
    3f1a:	0030      	movs	r0, r6
    3f1c:	b007      	add	sp, #28
    3f1e:	bdf0      	pop	{r4, r5, r6, r7, pc}
    3f20:	783b      	ldrb	r3, [r7, #0]
    3f22:	091b      	lsrs	r3, r3, #4
    3f24:	2b0f      	cmp	r3, #15
    3f26:	d02f      	beq.n	3f88 <spi_data_read+0xb8>
    3f28:	3d01      	subs	r5, #1
    3f2a:	b22d      	sxth	r5, r5
    3f2c:	1c6b      	adds	r3, r5, #1
    3f2e:	d1e0      	bne.n	3ef2 <spi_data_read+0x22>
    3f30:	4922      	ldr	r1, [pc, #136]	; (3fbc <spi_data_read+0xec>)
    3f32:	4a28      	ldr	r2, [pc, #160]	; (3fd4 <spi_data_read+0x104>)
    3f34:	4823      	ldr	r0, [pc, #140]	; (3fc4 <spi_data_read+0xf4>)
    3f36:	4c22      	ldr	r4, [pc, #136]	; (3fc0 <spi_data_read+0xf0>)
    3f38:	47a0      	blx	r4
    3f3a:	7839      	ldrb	r1, [r7, #0]
    3f3c:	4826      	ldr	r0, [pc, #152]	; (3fd8 <spi_data_read+0x108>)
    3f3e:	47a0      	blx	r4
    3f40:	4b23      	ldr	r3, [pc, #140]	; (3fd0 <spi_data_read+0x100>)
    3f42:	200d      	movs	r0, #13
    3f44:	4798      	blx	r3
    3f46:	e7e8      	b.n	3f1a <spi_data_read+0x4a>
    3f48:	9b03      	ldr	r3, [sp, #12]
    3f4a:	2b00      	cmp	r3, #0
    3f4c:	d110      	bne.n	3f70 <spi_data_read+0xa0>
    3f4e:	4b23      	ldr	r3, [pc, #140]	; (3fdc <spi_data_read+0x10c>)
    3f50:	781b      	ldrb	r3, [r3, #0]
    3f52:	2b00      	cmp	r3, #0
    3f54:	d10c      	bne.n	3f70 <spi_data_read+0xa0>
    3f56:	2102      	movs	r1, #2
    3f58:	a805      	add	r0, sp, #20
    3f5a:	4b16      	ldr	r3, [pc, #88]	; (3fb4 <spi_data_read+0xe4>)
    3f5c:	4798      	blx	r3
    3f5e:	2800      	cmp	r0, #0
    3f60:	d006      	beq.n	3f70 <spi_data_read+0xa0>
    3f62:	4a1f      	ldr	r2, [pc, #124]	; (3fe0 <spi_data_read+0x110>)
    3f64:	4915      	ldr	r1, [pc, #84]	; (3fbc <spi_data_read+0xec>)
    3f66:	4817      	ldr	r0, [pc, #92]	; (3fc4 <spi_data_read+0xf4>)
    3f68:	4b15      	ldr	r3, [pc, #84]	; (3fc0 <spi_data_read+0xf0>)
    3f6a:	4798      	blx	r3
    3f6c:	481d      	ldr	r0, [pc, #116]	; (3fe4 <spi_data_read+0x114>)
    3f6e:	e01c      	b.n	3faa <spi_data_read+0xda>
    3f70:	9a01      	ldr	r2, [sp, #4]
    3f72:	9b00      	ldr	r3, [sp, #0]
    3f74:	4694      	mov	ip, r2
    3f76:	1aa4      	subs	r4, r4, r2
    3f78:	4463      	add	r3, ip
    3f7a:	b21b      	sxth	r3, r3
    3f7c:	b2a4      	uxth	r4, r4
    3f7e:	9300      	str	r3, [sp, #0]
    3f80:	2c00      	cmp	r4, #0
    3f82:	d1ac      	bne.n	3ede <spi_data_read+0xe>
    3f84:	2601      	movs	r6, #1
    3f86:	e7c8      	b.n	3f1a <spi_data_read+0x4a>
    3f88:	2d00      	cmp	r5, #0
    3f8a:	d0d1      	beq.n	3f30 <spi_data_read+0x60>
    3f8c:	9b02      	ldr	r3, [sp, #8]
    3f8e:	9a00      	ldr	r2, [sp, #0]
    3f90:	9901      	ldr	r1, [sp, #4]
    3f92:	1898      	adds	r0, r3, r2
    3f94:	4b07      	ldr	r3, [pc, #28]	; (3fb4 <spi_data_read+0xe4>)
    3f96:	4798      	blx	r3
    3f98:	2800      	cmp	r0, #0
    3f9a:	d0d5      	beq.n	3f48 <spi_data_read+0x78>
    3f9c:	22c5      	movs	r2, #197	; 0xc5
    3f9e:	4907      	ldr	r1, [pc, #28]	; (3fbc <spi_data_read+0xec>)
    3fa0:	0092      	lsls	r2, r2, #2
    3fa2:	4808      	ldr	r0, [pc, #32]	; (3fc4 <spi_data_read+0xf4>)
    3fa4:	4b06      	ldr	r3, [pc, #24]	; (3fc0 <spi_data_read+0xf0>)
    3fa6:	4798      	blx	r3
    3fa8:	480f      	ldr	r0, [pc, #60]	; (3fe8 <spi_data_read+0x118>)
    3faa:	4b07      	ldr	r3, [pc, #28]	; (3fc8 <spi_data_read+0xf8>)
    3fac:	4798      	blx	r3
    3fae:	e7c7      	b.n	3f40 <spi_data_read+0x70>
    3fb0:	0000cf42 	.word	0x0000cf42
    3fb4:	00003dfd 	.word	0x00003dfd
    3fb8:	000002ff 	.word	0x000002ff
    3fbc:	0000cf69 	.word	0x0000cf69
    3fc0:	0000b36d 	.word	0x0000b36d
    3fc4:	0000c930 	.word	0x0000c930
    3fc8:	0000b489 	.word	0x0000b489
    3fcc:	0000d40b 	.word	0x0000d40b
    3fd0:	0000b3a1 	.word	0x0000b3a1
    3fd4:	0000030b 	.word	0x0000030b
    3fd8:	0000d43e 	.word	0x0000d43e
    3fdc:	20000228 	.word	0x20000228
    3fe0:	0000031f 	.word	0x0000031f
    3fe4:	0000d49d 	.word	0x0000d49d
    3fe8:	0000d46d 	.word	0x0000d46d

00003fec <spi_cmd>:
    3fec:	b5f0      	push	{r4, r5, r6, r7, lr}
    3fee:	b085      	sub	sp, #20
    3ff0:	ac0a      	add	r4, sp, #40	; 0x28
    3ff2:	7825      	ldrb	r5, [r4, #0]
    3ff4:	ac01      	add	r4, sp, #4
    3ff6:	7020      	strb	r0, [r4, #0]
    3ff8:	38c1      	subs	r0, #193	; 0xc1
    3ffa:	280e      	cmp	r0, #14
    3ffc:	d900      	bls.n	4000 <spi_cmd+0x14>
    3ffe:	e080      	b.n	4102 <spi_cmd+0x116>
    4000:	f005 fa90 	bl	9524 <__gnu_thumb1_case_uqi>
    4004:	153e2828 	.word	0x153e2828
    4008:	32322222 	.word	0x32322222
    400c:	7f7f0850 	.word	0x7f7f0850
    4010:	7f7f      	.short	0x7f7f
    4012:	26          	.byte	0x26
    4013:	00          	.byte	0x00
    4014:	0c0b      	lsrs	r3, r1, #16
    4016:	7063      	strb	r3, [r4, #1]
    4018:	0a0b      	lsrs	r3, r1, #8
    401a:	70a3      	strb	r3, [r4, #2]
    401c:	70e1      	strb	r1, [r4, #3]
    401e:	2105      	movs	r1, #5
    4020:	4b3a      	ldr	r3, [pc, #232]	; (410c <spi_cmd+0x120>)
    4022:	1e48      	subs	r0, r1, #1
    4024:	781b      	ldrb	r3, [r3, #0]
    4026:	2b00      	cmp	r3, #0
    4028:	d04a      	beq.n	40c0 <spi_cmd+0xd4>
    402a:	b2c1      	uxtb	r1, r0
    402c:	e056      	b.n	40dc <spi_cmd+0xf0>
    402e:	0a0b      	lsrs	r3, r1, #8
    4030:	b2db      	uxtb	r3, r3
    4032:	2d00      	cmp	r5, #0
    4034:	d104      	bne.n	4040 <spi_cmd+0x54>
    4036:	7063      	strb	r3, [r4, #1]
    4038:	2300      	movs	r3, #0
    403a:	70a1      	strb	r1, [r4, #2]
    403c:	70e3      	strb	r3, [r4, #3]
    403e:	e7ee      	b.n	401e <spi_cmd+0x32>
    4040:	2280      	movs	r2, #128	; 0x80
    4042:	4252      	negs	r2, r2
    4044:	4313      	orrs	r3, r2
    4046:	e7f6      	b.n	4036 <spi_cmd+0x4a>
    4048:	2300      	movs	r3, #0
    404a:	7063      	strb	r3, [r4, #1]
    404c:	70a3      	strb	r3, [r4, #2]
    404e:	e7f5      	b.n	403c <spi_cmd+0x50>
    4050:	23ff      	movs	r3, #255	; 0xff
    4052:	e7fa      	b.n	404a <spi_cmd+0x5e>
    4054:	0c0a      	lsrs	r2, r1, #16
    4056:	7062      	strb	r2, [r4, #1]
    4058:	0a0a      	lsrs	r2, r1, #8
    405a:	70a2      	strb	r2, [r4, #2]
    405c:	0a1a      	lsrs	r2, r3, #8
    405e:	70e1      	strb	r1, [r4, #3]
    4060:	7122      	strb	r2, [r4, #4]
    4062:	7163      	strb	r3, [r4, #5]
    4064:	2107      	movs	r1, #7
    4066:	e7db      	b.n	4020 <spi_cmd+0x34>
    4068:	0c0a      	lsrs	r2, r1, #16
    406a:	7062      	strb	r2, [r4, #1]
    406c:	0a0a      	lsrs	r2, r1, #8
    406e:	70a2      	strb	r2, [r4, #2]
    4070:	0c1a      	lsrs	r2, r3, #16
    4072:	7122      	strb	r2, [r4, #4]
    4074:	0a1a      	lsrs	r2, r3, #8
    4076:	70e1      	strb	r1, [r4, #3]
    4078:	7162      	strb	r2, [r4, #5]
    407a:	71a3      	strb	r3, [r4, #6]
    407c:	2108      	movs	r1, #8
    407e:	e7cf      	b.n	4020 <spi_cmd+0x34>
    4080:	0a0b      	lsrs	r3, r1, #8
    4082:	b2db      	uxtb	r3, r3
    4084:	2d00      	cmp	r5, #0
    4086:	d109      	bne.n	409c <spi_cmd+0xb0>
    4088:	7063      	strb	r3, [r4, #1]
    408a:	0e13      	lsrs	r3, r2, #24
    408c:	70e3      	strb	r3, [r4, #3]
    408e:	0c13      	lsrs	r3, r2, #16
    4090:	7123      	strb	r3, [r4, #4]
    4092:	0a13      	lsrs	r3, r2, #8
    4094:	70a1      	strb	r1, [r4, #2]
    4096:	7163      	strb	r3, [r4, #5]
    4098:	71a2      	strb	r2, [r4, #6]
    409a:	e7ef      	b.n	407c <spi_cmd+0x90>
    409c:	2080      	movs	r0, #128	; 0x80
    409e:	4240      	negs	r0, r0
    40a0:	4303      	orrs	r3, r0
    40a2:	e7f1      	b.n	4088 <spi_cmd+0x9c>
    40a4:	0c0b      	lsrs	r3, r1, #16
    40a6:	7063      	strb	r3, [r4, #1]
    40a8:	0a0b      	lsrs	r3, r1, #8
    40aa:	70a3      	strb	r3, [r4, #2]
    40ac:	0e13      	lsrs	r3, r2, #24
    40ae:	7123      	strb	r3, [r4, #4]
    40b0:	0c13      	lsrs	r3, r2, #16
    40b2:	7163      	strb	r3, [r4, #5]
    40b4:	0a13      	lsrs	r3, r2, #8
    40b6:	70e1      	strb	r1, [r4, #3]
    40b8:	71a3      	strb	r3, [r4, #6]
    40ba:	71e2      	strb	r2, [r4, #7]
    40bc:	2109      	movs	r1, #9
    40be:	e7af      	b.n	4020 <spi_cmd+0x34>
    40c0:	000a      	movs	r2, r1
    40c2:	237f      	movs	r3, #127	; 0x7f
    40c4:	4d12      	ldr	r5, [pc, #72]	; (4110 <spi_cmd+0x124>)
    40c6:	1866      	adds	r6, r4, r1
    40c8:	4257      	negs	r7, r2
    40ca:	5df7      	ldrb	r7, [r6, r7]
    40cc:	005b      	lsls	r3, r3, #1
    40ce:	407b      	eors	r3, r7
    40d0:	3a01      	subs	r2, #1
    40d2:	5ceb      	ldrb	r3, [r5, r3]
    40d4:	2a01      	cmp	r2, #1
    40d6:	d1f7      	bne.n	40c8 <spi_cmd+0xdc>
    40d8:	005b      	lsls	r3, r3, #1
    40da:	5423      	strb	r3, [r4, r0]
    40dc:	4b0d      	ldr	r3, [pc, #52]	; (4114 <spi_cmd+0x128>)
    40de:	b289      	uxth	r1, r1
    40e0:	0020      	movs	r0, r4
    40e2:	4798      	blx	r3
    40e4:	2301      	movs	r3, #1
    40e6:	2800      	cmp	r0, #0
    40e8:	d00c      	beq.n	4104 <spi_cmd+0x118>
    40ea:	2228      	movs	r2, #40	; 0x28
    40ec:	490a      	ldr	r1, [pc, #40]	; (4118 <spi_cmd+0x12c>)
    40ee:	32ff      	adds	r2, #255	; 0xff
    40f0:	4b0a      	ldr	r3, [pc, #40]	; (411c <spi_cmd+0x130>)
    40f2:	480b      	ldr	r0, [pc, #44]	; (4120 <spi_cmd+0x134>)
    40f4:	4798      	blx	r3
    40f6:	4b0b      	ldr	r3, [pc, #44]	; (4124 <spi_cmd+0x138>)
    40f8:	480b      	ldr	r0, [pc, #44]	; (4128 <spi_cmd+0x13c>)
    40fa:	4798      	blx	r3
    40fc:	200d      	movs	r0, #13
    40fe:	4b0b      	ldr	r3, [pc, #44]	; (412c <spi_cmd+0x140>)
    4100:	4798      	blx	r3
    4102:	2300      	movs	r3, #0
    4104:	0018      	movs	r0, r3
    4106:	b005      	add	sp, #20
    4108:	bdf0      	pop	{r4, r5, r6, r7, pc}
    410a:	46c0      	nop			; (mov r8, r8)
    410c:	20000228 	.word	0x20000228
    4110:	0000cfc6 	.word	0x0000cfc6
    4114:	00003de1 	.word	0x00003de1
    4118:	0000cf48 	.word	0x0000cf48
    411c:	0000b36d 	.word	0x0000b36d
    4120:	0000c930 	.word	0x0000c930
    4124:	0000b489 	.word	0x0000b489
    4128:	0000d3af 	.word	0x0000d3af
    412c:	0000b3a1 	.word	0x0000b3a1

00004130 <spi_write_reg>:
    4130:	b5f0      	push	{r4, r5, r6, r7, lr}
    4132:	b087      	sub	sp, #28
    4134:	0004      	movs	r4, r0
    4136:	9104      	str	r1, [sp, #16]
    4138:	2830      	cmp	r0, #48	; 0x30
    413a:	d843      	bhi.n	41c4 <spi_write_reg+0x94>
    413c:	4b2a      	ldr	r3, [pc, #168]	; (41e8 <spi_write_reg+0xb8>)
    413e:	781b      	ldrb	r3, [r3, #0]
    4140:	2230      	movs	r2, #48	; 0x30
    4142:	b2db      	uxtb	r3, r3
    4144:	9303      	str	r3, [sp, #12]
    4146:	2300      	movs	r3, #0
    4148:	42a2      	cmp	r2, r4
    414a:	415b      	adcs	r3, r3
    414c:	260a      	movs	r6, #10
    414e:	b2db      	uxtb	r3, r3
    4150:	9305      	str	r3, [sp, #20]
    4152:	9b05      	ldr	r3, [sp, #20]
    4154:	4d25      	ldr	r5, [pc, #148]	; (41ec <spi_write_reg+0xbc>)
    4156:	9300      	str	r3, [sp, #0]
    4158:	9a04      	ldr	r2, [sp, #16]
    415a:	2304      	movs	r3, #4
    415c:	0021      	movs	r1, r4
    415e:	9803      	ldr	r0, [sp, #12]
    4160:	47a8      	blx	r5
    4162:	0005      	movs	r5, r0
    4164:	2801      	cmp	r0, #1
    4166:	d02f      	beq.n	41c8 <spi_write_reg+0x98>
    4168:	4921      	ldr	r1, [pc, #132]	; (41f0 <spi_write_reg+0xc0>)
    416a:	4a22      	ldr	r2, [pc, #136]	; (41f4 <spi_write_reg+0xc4>)
    416c:	4822      	ldr	r0, [pc, #136]	; (41f8 <spi_write_reg+0xc8>)
    416e:	4f23      	ldr	r7, [pc, #140]	; (41fc <spi_write_reg+0xcc>)
    4170:	47b8      	blx	r7
    4172:	0021      	movs	r1, r4
    4174:	4822      	ldr	r0, [pc, #136]	; (4200 <spi_write_reg+0xd0>)
    4176:	47b8      	blx	r7
    4178:	4b22      	ldr	r3, [pc, #136]	; (4204 <spi_write_reg+0xd4>)
    417a:	200d      	movs	r0, #13
    417c:	4798      	blx	r3
    417e:	2001      	movs	r0, #1
    4180:	4b21      	ldr	r3, [pc, #132]	; (4208 <spi_write_reg+0xd8>)
    4182:	4798      	blx	r3
    4184:	2100      	movs	r1, #0
    4186:	4f19      	ldr	r7, [pc, #100]	; (41ec <spi_write_reg+0xbc>)
    4188:	000b      	movs	r3, r1
    418a:	000a      	movs	r2, r1
    418c:	9100      	str	r1, [sp, #0]
    418e:	20cf      	movs	r0, #207	; 0xcf
    4190:	47b8      	blx	r7
    4192:	4b1e      	ldr	r3, [pc, #120]	; (420c <spi_write_reg+0xdc>)
    4194:	20cf      	movs	r0, #207	; 0xcf
    4196:	4798      	blx	r3
    4198:	4a1d      	ldr	r2, [pc, #116]	; (4210 <spi_write_reg+0xe0>)
    419a:	4915      	ldr	r1, [pc, #84]	; (41f0 <spi_write_reg+0xc0>)
    419c:	4f17      	ldr	r7, [pc, #92]	; (41fc <spi_write_reg+0xcc>)
    419e:	4816      	ldr	r0, [pc, #88]	; (41f8 <spi_write_reg+0xc8>)
    41a0:	47b8      	blx	r7
    41a2:	0031      	movs	r1, r6
    41a4:	0022      	movs	r2, r4
    41a6:	9b04      	ldr	r3, [sp, #16]
    41a8:	481a      	ldr	r0, [pc, #104]	; (4214 <spi_write_reg+0xe4>)
    41aa:	47b8      	blx	r7
    41ac:	4b15      	ldr	r3, [pc, #84]	; (4204 <spi_write_reg+0xd4>)
    41ae:	200d      	movs	r0, #13
    41b0:	4798      	blx	r3
    41b2:	3e01      	subs	r6, #1
    41b4:	2001      	movs	r0, #1
    41b6:	4b14      	ldr	r3, [pc, #80]	; (4208 <spi_write_reg+0xd8>)
    41b8:	4798      	blx	r3
    41ba:	2e00      	cmp	r6, #0
    41bc:	d1c9      	bne.n	4152 <spi_write_reg+0x22>
    41be:	0028      	movs	r0, r5
    41c0:	b007      	add	sp, #28
    41c2:	bdf0      	pop	{r4, r5, r6, r7, pc}
    41c4:	4b14      	ldr	r3, [pc, #80]	; (4218 <spi_write_reg+0xe8>)
    41c6:	e7ba      	b.n	413e <spi_write_reg+0xe>
    41c8:	9803      	ldr	r0, [sp, #12]
    41ca:	4b10      	ldr	r3, [pc, #64]	; (420c <spi_write_reg+0xdc>)
    41cc:	4798      	blx	r3
    41ce:	0005      	movs	r5, r0
    41d0:	2801      	cmp	r0, #1
    41d2:	d0f4      	beq.n	41be <spi_write_reg+0x8e>
    41d4:	22e7      	movs	r2, #231	; 0xe7
    41d6:	4906      	ldr	r1, [pc, #24]	; (41f0 <spi_write_reg+0xc0>)
    41d8:	0092      	lsls	r2, r2, #2
    41da:	4807      	ldr	r0, [pc, #28]	; (41f8 <spi_write_reg+0xc8>)
    41dc:	4f07      	ldr	r7, [pc, #28]	; (41fc <spi_write_reg+0xcc>)
    41de:	47b8      	blx	r7
    41e0:	0021      	movs	r1, r4
    41e2:	480e      	ldr	r0, [pc, #56]	; (421c <spi_write_reg+0xec>)
    41e4:	e7c7      	b.n	4176 <spi_write_reg+0x46>
    41e6:	46c0      	nop			; (mov r8, r8)
    41e8:	0000cf44 	.word	0x0000cf44
    41ec:	00003fed 	.word	0x00003fed
    41f0:	0000cf86 	.word	0x0000cf86
    41f4:	00000396 	.word	0x00000396
    41f8:	0000c930 	.word	0x0000c930
    41fc:	0000b36d 	.word	0x0000b36d
    4200:	0000d567 	.word	0x0000d567
    4204:	0000b3a1 	.word	0x0000b3a1
    4208:	000026d5 	.word	0x000026d5
    420c:	00003e19 	.word	0x00003e19
    4210:	000003af 	.word	0x000003af
    4214:	0000d5c8 	.word	0x0000d5c8
    4218:	0000cf45 	.word	0x0000cf45
    421c:	0000d593 	.word	0x0000d593

00004220 <spi_read_reg>:
    4220:	b5f0      	push	{r4, r5, r6, r7, lr}
    4222:	b089      	sub	sp, #36	; 0x24
    4224:	0005      	movs	r5, r0
    4226:	9105      	str	r1, [sp, #20]
    4228:	28ff      	cmp	r0, #255	; 0xff
    422a:	d842      	bhi.n	42b2 <spi_read_reg+0x92>
    422c:	4b33      	ldr	r3, [pc, #204]	; (42fc <spi_read_reg+0xdc>)
    422e:	781b      	ldrb	r3, [r3, #0]
    4230:	22ff      	movs	r2, #255	; 0xff
    4232:	b2db      	uxtb	r3, r3
    4234:	9303      	str	r3, [sp, #12]
    4236:	2300      	movs	r3, #0
    4238:	42aa      	cmp	r2, r5
    423a:	415b      	adcs	r3, r3
    423c:	260a      	movs	r6, #10
    423e:	b2db      	uxtb	r3, r3
    4240:	9304      	str	r3, [sp, #16]
    4242:	9b04      	ldr	r3, [sp, #16]
    4244:	4c2e      	ldr	r4, [pc, #184]	; (4300 <spi_read_reg+0xe0>)
    4246:	9300      	str	r3, [sp, #0]
    4248:	2200      	movs	r2, #0
    424a:	2304      	movs	r3, #4
    424c:	0029      	movs	r1, r5
    424e:	9803      	ldr	r0, [sp, #12]
    4250:	47a0      	blx	r4
    4252:	0004      	movs	r4, r0
    4254:	2801      	cmp	r0, #1
    4256:	d02e      	beq.n	42b6 <spi_read_reg+0x96>
    4258:	492a      	ldr	r1, [pc, #168]	; (4304 <spi_read_reg+0xe4>)
    425a:	4a2b      	ldr	r2, [pc, #172]	; (4308 <spi_read_reg+0xe8>)
    425c:	482b      	ldr	r0, [pc, #172]	; (430c <spi_read_reg+0xec>)
    425e:	4f2c      	ldr	r7, [pc, #176]	; (4310 <spi_read_reg+0xf0>)
    4260:	47b8      	blx	r7
    4262:	0029      	movs	r1, r5
    4264:	482b      	ldr	r0, [pc, #172]	; (4314 <spi_read_reg+0xf4>)
    4266:	47b8      	blx	r7
    4268:	4b2b      	ldr	r3, [pc, #172]	; (4318 <spi_read_reg+0xf8>)
    426a:	200d      	movs	r0, #13
    426c:	4798      	blx	r3
    426e:	2001      	movs	r0, #1
    4270:	4b2a      	ldr	r3, [pc, #168]	; (431c <spi_read_reg+0xfc>)
    4272:	4798      	blx	r3
    4274:	2100      	movs	r1, #0
    4276:	4f22      	ldr	r7, [pc, #136]	; (4300 <spi_read_reg+0xe0>)
    4278:	000b      	movs	r3, r1
    427a:	000a      	movs	r2, r1
    427c:	9100      	str	r1, [sp, #0]
    427e:	20cf      	movs	r0, #207	; 0xcf
    4280:	47b8      	blx	r7
    4282:	4b27      	ldr	r3, [pc, #156]	; (4320 <spi_read_reg+0x100>)
    4284:	20cf      	movs	r0, #207	; 0xcf
    4286:	4798      	blx	r3
    4288:	4a26      	ldr	r2, [pc, #152]	; (4324 <spi_read_reg+0x104>)
    428a:	491e      	ldr	r1, [pc, #120]	; (4304 <spi_read_reg+0xe4>)
    428c:	4f20      	ldr	r7, [pc, #128]	; (4310 <spi_read_reg+0xf0>)
    428e:	481f      	ldr	r0, [pc, #124]	; (430c <spi_read_reg+0xec>)
    4290:	47b8      	blx	r7
    4292:	0031      	movs	r1, r6
    4294:	002a      	movs	r2, r5
    4296:	4824      	ldr	r0, [pc, #144]	; (4328 <spi_read_reg+0x108>)
    4298:	47b8      	blx	r7
    429a:	4b1f      	ldr	r3, [pc, #124]	; (4318 <spi_read_reg+0xf8>)
    429c:	200d      	movs	r0, #13
    429e:	4798      	blx	r3
    42a0:	3e01      	subs	r6, #1
    42a2:	2001      	movs	r0, #1
    42a4:	4b1d      	ldr	r3, [pc, #116]	; (431c <spi_read_reg+0xfc>)
    42a6:	4798      	blx	r3
    42a8:	2e00      	cmp	r6, #0
    42aa:	d1ca      	bne.n	4242 <spi_read_reg+0x22>
    42ac:	0020      	movs	r0, r4
    42ae:	b009      	add	sp, #36	; 0x24
    42b0:	bdf0      	pop	{r4, r5, r6, r7, pc}
    42b2:	4b1e      	ldr	r3, [pc, #120]	; (432c <spi_read_reg+0x10c>)
    42b4:	e7bb      	b.n	422e <spi_read_reg+0xe>
    42b6:	9803      	ldr	r0, [sp, #12]
    42b8:	4b19      	ldr	r3, [pc, #100]	; (4320 <spi_read_reg+0x100>)
    42ba:	4798      	blx	r3
    42bc:	0004      	movs	r4, r0
    42be:	2801      	cmp	r0, #1
    42c0:	d007      	beq.n	42d2 <spi_read_reg+0xb2>
    42c2:	4910      	ldr	r1, [pc, #64]	; (4304 <spi_read_reg+0xe4>)
    42c4:	4a1a      	ldr	r2, [pc, #104]	; (4330 <spi_read_reg+0x110>)
    42c6:	4811      	ldr	r0, [pc, #68]	; (430c <spi_read_reg+0xec>)
    42c8:	4f11      	ldr	r7, [pc, #68]	; (4310 <spi_read_reg+0xf0>)
    42ca:	47b8      	blx	r7
    42cc:	0029      	movs	r1, r5
    42ce:	4819      	ldr	r0, [pc, #100]	; (4334 <spi_read_reg+0x114>)
    42d0:	e7c9      	b.n	4266 <spi_read_reg+0x46>
    42d2:	9a04      	ldr	r2, [sp, #16]
    42d4:	2104      	movs	r1, #4
    42d6:	a807      	add	r0, sp, #28
    42d8:	4b17      	ldr	r3, [pc, #92]	; (4338 <spi_read_reg+0x118>)
    42da:	4798      	blx	r3
    42dc:	0004      	movs	r4, r0
    42de:	2801      	cmp	r0, #1
    42e0:	d008      	beq.n	42f4 <spi_read_reg+0xd4>
    42e2:	4a16      	ldr	r2, [pc, #88]	; (433c <spi_read_reg+0x11c>)
    42e4:	4907      	ldr	r1, [pc, #28]	; (4304 <spi_read_reg+0xe4>)
    42e6:	4b0a      	ldr	r3, [pc, #40]	; (4310 <spi_read_reg+0xf0>)
    42e8:	4808      	ldr	r0, [pc, #32]	; (430c <spi_read_reg+0xec>)
    42ea:	4798      	blx	r3
    42ec:	4b14      	ldr	r3, [pc, #80]	; (4340 <spi_read_reg+0x120>)
    42ee:	4815      	ldr	r0, [pc, #84]	; (4344 <spi_read_reg+0x124>)
    42f0:	4798      	blx	r3
    42f2:	e7b9      	b.n	4268 <spi_read_reg+0x48>
    42f4:	9b05      	ldr	r3, [sp, #20]
    42f6:	9a07      	ldr	r2, [sp, #28]
    42f8:	601a      	str	r2, [r3, #0]
    42fa:	e7d7      	b.n	42ac <spi_read_reg+0x8c>
    42fc:	0000cf46 	.word	0x0000cf46
    4300:	00003fed 	.word	0x00003fed
    4304:	0000cfa1 	.word	0x0000cfa1
    4308:	00000417 	.word	0x00000417
    430c:	0000c930 	.word	0x0000c930
    4310:	0000b36d 	.word	0x0000b36d
    4314:	0000d4d1 	.word	0x0000d4d1
    4318:	0000b3a1 	.word	0x0000b3a1
    431c:	000026d5 	.word	0x000026d5
    4320:	00003e19 	.word	0x00003e19
    4324:	0000043c 	.word	0x0000043c
    4328:	0000d54f 	.word	0x0000d54f
    432c:	0000cf47 	.word	0x0000cf47
    4330:	0000041d 	.word	0x0000041d
    4334:	0000d4fc 	.word	0x0000d4fc
    4338:	00003ed1 	.word	0x00003ed1
    433c:	00000424 	.word	0x00000424
    4340:	0000b489 	.word	0x0000b489
    4344:	0000d530 	.word	0x0000d530

00004348 <nm_spi_reset>:
    4348:	b537      	push	{r0, r1, r2, r4, r5, lr}
    434a:	2400      	movs	r4, #0
    434c:	4d05      	ldr	r5, [pc, #20]	; (4364 <nm_spi_reset+0x1c>)
    434e:	0023      	movs	r3, r4
    4350:	0022      	movs	r2, r4
    4352:	0021      	movs	r1, r4
    4354:	9400      	str	r4, [sp, #0]
    4356:	20cf      	movs	r0, #207	; 0xcf
    4358:	47a8      	blx	r5
    435a:	4b03      	ldr	r3, [pc, #12]	; (4368 <nm_spi_reset+0x20>)
    435c:	20cf      	movs	r0, #207	; 0xcf
    435e:	4798      	blx	r3
    4360:	0020      	movs	r0, r4
    4362:	bd3e      	pop	{r1, r2, r3, r4, r5, pc}
    4364:	00003fed 	.word	0x00003fed
    4368:	00003e19 	.word	0x00003e19

0000436c <nm_spi_deinit>:
    436c:	2000      	movs	r0, #0
    436e:	4b01      	ldr	r3, [pc, #4]	; (4374 <nm_spi_deinit+0x8>)
    4370:	7018      	strb	r0, [r3, #0]
    4372:	4770      	bx	lr
    4374:	20000228 	.word	0x20000228

00004378 <nm_spi_read_reg>:
    4378:	b507      	push	{r0, r1, r2, lr}
    437a:	4b02      	ldr	r3, [pc, #8]	; (4384 <nm_spi_read_reg+0xc>)
    437c:	a901      	add	r1, sp, #4
    437e:	4798      	blx	r3
    4380:	9801      	ldr	r0, [sp, #4]
    4382:	bd0e      	pop	{r1, r2, r3, pc}
    4384:	00004221 	.word	0x00004221

00004388 <nm_spi_read_reg_with_ret>:
    4388:	4b04      	ldr	r3, [pc, #16]	; (439c <nm_spi_read_reg_with_ret+0x14>)
    438a:	b510      	push	{r4, lr}
    438c:	4798      	blx	r3
    438e:	2300      	movs	r3, #0
    4390:	2801      	cmp	r0, #1
    4392:	d000      	beq.n	4396 <nm_spi_read_reg_with_ret+0xe>
    4394:	3b06      	subs	r3, #6
    4396:	0018      	movs	r0, r3
    4398:	bd10      	pop	{r4, pc}
    439a:	46c0      	nop			; (mov r8, r8)
    439c:	00004221 	.word	0x00004221

000043a0 <nm_spi_write_reg>:
    43a0:	4b04      	ldr	r3, [pc, #16]	; (43b4 <nm_spi_write_reg+0x14>)
    43a2:	b510      	push	{r4, lr}
    43a4:	4798      	blx	r3
    43a6:	2300      	movs	r3, #0
    43a8:	2801      	cmp	r0, #1
    43aa:	d000      	beq.n	43ae <nm_spi_write_reg+0xe>
    43ac:	3b06      	subs	r3, #6
    43ae:	0018      	movs	r0, r3
    43b0:	bd10      	pop	{r4, pc}
    43b2:	46c0      	nop			; (mov r8, r8)
    43b4:	00004131 	.word	0x00004131

000043b8 <nm_spi_init>:
    43b8:	2300      	movs	r3, #0
    43ba:	b5f7      	push	{r0, r1, r2, r4, r5, r6, r7, lr}
    43bc:	4d30      	ldr	r5, [pc, #192]	; (4480 <nm_spi_init+0xc8>)
    43be:	a901      	add	r1, sp, #4
    43c0:	4830      	ldr	r0, [pc, #192]	; (4484 <nm_spi_init+0xcc>)
    43c2:	4c31      	ldr	r4, [pc, #196]	; (4488 <nm_spi_init+0xd0>)
    43c4:	9301      	str	r3, [sp, #4]
    43c6:	702b      	strb	r3, [r5, #0]
    43c8:	47a0      	blx	r4
    43ca:	2800      	cmp	r0, #0
    43cc:	d120      	bne.n	4410 <nm_spi_init+0x58>
    43ce:	2301      	movs	r3, #1
    43d0:	4f2e      	ldr	r7, [pc, #184]	; (448c <nm_spi_init+0xd4>)
    43d2:	4e2f      	ldr	r6, [pc, #188]	; (4490 <nm_spi_init+0xd8>)
    43d4:	4a2f      	ldr	r2, [pc, #188]	; (4494 <nm_spi_init+0xdc>)
    43d6:	0039      	movs	r1, r7
    43d8:	702b      	strb	r3, [r5, #0]
    43da:	0030      	movs	r0, r6
    43dc:	4b2e      	ldr	r3, [pc, #184]	; (4498 <nm_spi_init+0xe0>)
    43de:	4798      	blx	r3
    43e0:	4b2e      	ldr	r3, [pc, #184]	; (449c <nm_spi_init+0xe4>)
    43e2:	482f      	ldr	r0, [pc, #188]	; (44a0 <nm_spi_init+0xe8>)
    43e4:	4798      	blx	r3
    43e6:	4b2f      	ldr	r3, [pc, #188]	; (44a4 <nm_spi_init+0xec>)
    43e8:	200d      	movs	r0, #13
    43ea:	4798      	blx	r3
    43ec:	a901      	add	r1, sp, #4
    43ee:	4825      	ldr	r0, [pc, #148]	; (4484 <nm_spi_init+0xcc>)
    43f0:	47a0      	blx	r4
    43f2:	1e04      	subs	r4, r0, #0
    43f4:	d10c      	bne.n	4410 <nm_spi_init+0x58>
    43f6:	4a2c      	ldr	r2, [pc, #176]	; (44a8 <nm_spi_init+0xf0>)
    43f8:	0039      	movs	r1, r7
    43fa:	0030      	movs	r0, r6
    43fc:	4b26      	ldr	r3, [pc, #152]	; (4498 <nm_spi_init+0xe0>)
    43fe:	4798      	blx	r3
    4400:	482a      	ldr	r0, [pc, #168]	; (44ac <nm_spi_init+0xf4>)
    4402:	4b26      	ldr	r3, [pc, #152]	; (449c <nm_spi_init+0xe4>)
    4404:	4798      	blx	r3
    4406:	200d      	movs	r0, #13
    4408:	4b26      	ldr	r3, [pc, #152]	; (44a4 <nm_spi_init+0xec>)
    440a:	4798      	blx	r3
    440c:	0020      	movs	r0, r4
    440e:	bdfe      	pop	{r1, r2, r3, r4, r5, r6, r7, pc}
    4410:	782b      	ldrb	r3, [r5, #0]
    4412:	2b00      	cmp	r3, #0
    4414:	d113      	bne.n	443e <nm_spi_init+0x86>
    4416:	2150      	movs	r1, #80	; 0x50
    4418:	9a01      	ldr	r2, [sp, #4]
    441a:	337c      	adds	r3, #124	; 0x7c
    441c:	439a      	bics	r2, r3
    441e:	4311      	orrs	r1, r2
    4420:	4818      	ldr	r0, [pc, #96]	; (4484 <nm_spi_init+0xcc>)
    4422:	4b23      	ldr	r3, [pc, #140]	; (44b0 <nm_spi_init+0xf8>)
    4424:	9101      	str	r1, [sp, #4]
    4426:	4798      	blx	r3
    4428:	1e04      	subs	r4, r0, #0
    442a:	d106      	bne.n	443a <nm_spi_init+0x82>
    442c:	4a21      	ldr	r2, [pc, #132]	; (44b4 <nm_spi_init+0xfc>)
    442e:	4917      	ldr	r1, [pc, #92]	; (448c <nm_spi_init+0xd4>)
    4430:	4817      	ldr	r0, [pc, #92]	; (4490 <nm_spi_init+0xd8>)
    4432:	4b19      	ldr	r3, [pc, #100]	; (4498 <nm_spi_init+0xe0>)
    4434:	4798      	blx	r3
    4436:	4820      	ldr	r0, [pc, #128]	; (44b8 <nm_spi_init+0x100>)
    4438:	e7e3      	b.n	4402 <nm_spi_init+0x4a>
    443a:	2301      	movs	r3, #1
    443c:	702b      	strb	r3, [r5, #0]
    443e:	2080      	movs	r0, #128	; 0x80
    4440:	4669      	mov	r1, sp
    4442:	0140      	lsls	r0, r0, #5
    4444:	4b10      	ldr	r3, [pc, #64]	; (4488 <nm_spi_init+0xd0>)
    4446:	4798      	blx	r3
    4448:	2800      	cmp	r0, #0
    444a:	d10d      	bne.n	4468 <nm_spi_init+0xb0>
    444c:	2406      	movs	r4, #6
    444e:	4a1b      	ldr	r2, [pc, #108]	; (44bc <nm_spi_init+0x104>)
    4450:	490e      	ldr	r1, [pc, #56]	; (448c <nm_spi_init+0xd4>)
    4452:	4b11      	ldr	r3, [pc, #68]	; (4498 <nm_spi_init+0xe0>)
    4454:	480e      	ldr	r0, [pc, #56]	; (4490 <nm_spi_init+0xd8>)
    4456:	4798      	blx	r3
    4458:	4b10      	ldr	r3, [pc, #64]	; (449c <nm_spi_init+0xe4>)
    445a:	4819      	ldr	r0, [pc, #100]	; (44c0 <nm_spi_init+0x108>)
    445c:	4798      	blx	r3
    445e:	200d      	movs	r0, #13
    4460:	4b10      	ldr	r3, [pc, #64]	; (44a4 <nm_spi_init+0xec>)
    4462:	4798      	blx	r3
    4464:	4264      	negs	r4, r4
    4466:	e7d1      	b.n	440c <nm_spi_init+0x54>
    4468:	4b16      	ldr	r3, [pc, #88]	; (44c4 <nm_spi_init+0x10c>)
    446a:	4806      	ldr	r0, [pc, #24]	; (4484 <nm_spi_init+0xcc>)
    446c:	4798      	blx	r3
    446e:	2370      	movs	r3, #112	; 0x70
    4470:	2150      	movs	r1, #80	; 0x50
    4472:	4398      	bics	r0, r3
    4474:	4301      	orrs	r1, r0
    4476:	4b14      	ldr	r3, [pc, #80]	; (44c8 <nm_spi_init+0x110>)
    4478:	4802      	ldr	r0, [pc, #8]	; (4484 <nm_spi_init+0xcc>)
    447a:	4798      	blx	r3
    447c:	2400      	movs	r4, #0
    447e:	e7c5      	b.n	440c <nm_spi_init+0x54>
    4480:	20000228 	.word	0x20000228
    4484:	0000e824 	.word	0x0000e824
    4488:	00004221 	.word	0x00004221
    448c:	0000cfba 	.word	0x0000cfba
    4490:	0000c930 	.word	0x0000c930
    4494:	000004c7 	.word	0x000004c7
    4498:	0000b36d 	.word	0x0000b36d
    449c:	0000b489 	.word	0x0000b489
    44a0:	0000d0c6 	.word	0x0000d0c6
    44a4:	0000b3a1 	.word	0x0000b3a1
    44a8:	000004ca 	.word	0x000004ca
    44ac:	0000d115 	.word	0x0000d115
    44b0:	00004131 	.word	0x00004131
    44b4:	000004d4 	.word	0x000004d4
    44b8:	0000d141 	.word	0x0000d141
    44bc:	000004de 	.word	0x000004de
    44c0:	0000d172 	.word	0x0000d172
    44c4:	00004379 	.word	0x00004379
    44c8:	000043a1 	.word	0x000043a1

000044cc <nm_spi_read_block>:
    44cc:	230a      	movs	r3, #10
    44ce:	b5f0      	push	{r4, r5, r6, r7, lr}
    44d0:	b089      	sub	sp, #36	; 0x24
    44d2:	9303      	str	r3, [sp, #12]
    44d4:	2300      	movs	r3, #0
    44d6:	0005      	movs	r5, r0
    44d8:	0014      	movs	r4, r2
    44da:	9105      	str	r1, [sp, #20]
    44dc:	9304      	str	r3, [sp, #16]
    44de:	2c01      	cmp	r4, #1
    44e0:	d101      	bne.n	44e6 <nm_spi_read_block+0x1a>
    44e2:	9404      	str	r4, [sp, #16]
    44e4:	3401      	adds	r4, #1
    44e6:	2600      	movs	r6, #0
    44e8:	0023      	movs	r3, r4
    44ea:	9600      	str	r6, [sp, #0]
    44ec:	0032      	movs	r2, r6
    44ee:	0029      	movs	r1, r5
    44f0:	20c8      	movs	r0, #200	; 0xc8
    44f2:	4f30      	ldr	r7, [pc, #192]	; (45b4 <nm_spi_read_block+0xe8>)
    44f4:	47b8      	blx	r7
    44f6:	2801      	cmp	r0, #1
    44f8:	d02f      	beq.n	455a <nm_spi_read_block+0x8e>
    44fa:	492f      	ldr	r1, [pc, #188]	; (45b8 <nm_spi_read_block+0xec>)
    44fc:	4a2f      	ldr	r2, [pc, #188]	; (45bc <nm_spi_read_block+0xf0>)
    44fe:	4830      	ldr	r0, [pc, #192]	; (45c0 <nm_spi_read_block+0xf4>)
    4500:	4e30      	ldr	r6, [pc, #192]	; (45c4 <nm_spi_read_block+0xf8>)
    4502:	47b0      	blx	r6
    4504:	0029      	movs	r1, r5
    4506:	4830      	ldr	r0, [pc, #192]	; (45c8 <nm_spi_read_block+0xfc>)
    4508:	47b0      	blx	r6
    450a:	4b30      	ldr	r3, [pc, #192]	; (45cc <nm_spi_read_block+0x100>)
    450c:	200d      	movs	r0, #13
    450e:	4798      	blx	r3
    4510:	2001      	movs	r0, #1
    4512:	4e2f      	ldr	r6, [pc, #188]	; (45d0 <nm_spi_read_block+0x104>)
    4514:	47b0      	blx	r6
    4516:	2100      	movs	r1, #0
    4518:	4f26      	ldr	r7, [pc, #152]	; (45b4 <nm_spi_read_block+0xe8>)
    451a:	000b      	movs	r3, r1
    451c:	000a      	movs	r2, r1
    451e:	9100      	str	r1, [sp, #0]
    4520:	20cf      	movs	r0, #207	; 0xcf
    4522:	47b8      	blx	r7
    4524:	4b2b      	ldr	r3, [pc, #172]	; (45d4 <nm_spi_read_block+0x108>)
    4526:	20cf      	movs	r0, #207	; 0xcf
    4528:	4798      	blx	r3
    452a:	4a2b      	ldr	r2, [pc, #172]	; (45d8 <nm_spi_read_block+0x10c>)
    452c:	4922      	ldr	r1, [pc, #136]	; (45b8 <nm_spi_read_block+0xec>)
    452e:	4f25      	ldr	r7, [pc, #148]	; (45c4 <nm_spi_read_block+0xf8>)
    4530:	4823      	ldr	r0, [pc, #140]	; (45c0 <nm_spi_read_block+0xf4>)
    4532:	47b8      	blx	r7
    4534:	002a      	movs	r2, r5
    4536:	9903      	ldr	r1, [sp, #12]
    4538:	0023      	movs	r3, r4
    453a:	4828      	ldr	r0, [pc, #160]	; (45dc <nm_spi_read_block+0x110>)
    453c:	47b8      	blx	r7
    453e:	4b23      	ldr	r3, [pc, #140]	; (45cc <nm_spi_read_block+0x100>)
    4540:	200d      	movs	r0, #13
    4542:	4798      	blx	r3
    4544:	2001      	movs	r0, #1
    4546:	47b0      	blx	r6
    4548:	9b03      	ldr	r3, [sp, #12]
    454a:	3b01      	subs	r3, #1
    454c:	9303      	str	r3, [sp, #12]
    454e:	2b00      	cmp	r3, #0
    4550:	d1c5      	bne.n	44de <nm_spi_read_block+0x12>
    4552:	2006      	movs	r0, #6
    4554:	4240      	negs	r0, r0
    4556:	b009      	add	sp, #36	; 0x24
    4558:	bdf0      	pop	{r4, r5, r6, r7, pc}
    455a:	20c8      	movs	r0, #200	; 0xc8
    455c:	4b1d      	ldr	r3, [pc, #116]	; (45d4 <nm_spi_read_block+0x108>)
    455e:	4798      	blx	r3
    4560:	2801      	cmp	r0, #1
    4562:	d007      	beq.n	4574 <nm_spi_read_block+0xa8>
    4564:	4914      	ldr	r1, [pc, #80]	; (45b8 <nm_spi_read_block+0xec>)
    4566:	4a1e      	ldr	r2, [pc, #120]	; (45e0 <nm_spi_read_block+0x114>)
    4568:	4815      	ldr	r0, [pc, #84]	; (45c0 <nm_spi_read_block+0xf4>)
    456a:	4e16      	ldr	r6, [pc, #88]	; (45c4 <nm_spi_read_block+0xf8>)
    456c:	47b0      	blx	r6
    456e:	0029      	movs	r1, r5
    4570:	481c      	ldr	r0, [pc, #112]	; (45e4 <nm_spi_read_block+0x118>)
    4572:	e7c9      	b.n	4508 <nm_spi_read_block+0x3c>
    4574:	9b04      	ldr	r3, [sp, #16]
    4576:	2b00      	cmp	r3, #0
    4578:	d013      	beq.n	45a2 <nm_spi_read_block+0xd6>
    457a:	af07      	add	r7, sp, #28
    457c:	0032      	movs	r2, r6
    457e:	4b1a      	ldr	r3, [pc, #104]	; (45e8 <nm_spi_read_block+0x11c>)
    4580:	0021      	movs	r1, r4
    4582:	0038      	movs	r0, r7
    4584:	4798      	blx	r3
    4586:	783b      	ldrb	r3, [r7, #0]
    4588:	9a05      	ldr	r2, [sp, #20]
    458a:	7013      	strb	r3, [r2, #0]
    458c:	2801      	cmp	r0, #1
    458e:	d00e      	beq.n	45ae <nm_spi_read_block+0xe2>
    4590:	4a16      	ldr	r2, [pc, #88]	; (45ec <nm_spi_read_block+0x120>)
    4592:	4909      	ldr	r1, [pc, #36]	; (45b8 <nm_spi_read_block+0xec>)
    4594:	4b0b      	ldr	r3, [pc, #44]	; (45c4 <nm_spi_read_block+0xf8>)
    4596:	480a      	ldr	r0, [pc, #40]	; (45c0 <nm_spi_read_block+0xf4>)
    4598:	4798      	blx	r3
    459a:	4b15      	ldr	r3, [pc, #84]	; (45f0 <nm_spi_read_block+0x124>)
    459c:	4815      	ldr	r0, [pc, #84]	; (45f4 <nm_spi_read_block+0x128>)
    459e:	4798      	blx	r3
    45a0:	e7b3      	b.n	450a <nm_spi_read_block+0x3e>
    45a2:	9a04      	ldr	r2, [sp, #16]
    45a4:	0021      	movs	r1, r4
    45a6:	9805      	ldr	r0, [sp, #20]
    45a8:	4b0f      	ldr	r3, [pc, #60]	; (45e8 <nm_spi_read_block+0x11c>)
    45aa:	4798      	blx	r3
    45ac:	e7ee      	b.n	458c <nm_spi_read_block+0xc0>
    45ae:	2000      	movs	r0, #0
    45b0:	e7d1      	b.n	4556 <nm_spi_read_block+0x8a>
    45b2:	46c0      	nop			; (mov r8, r8)
    45b4:	00003fed 	.word	0x00003fed
    45b8:	0000cfae 	.word	0x0000cfae
    45bc:	0000045d 	.word	0x0000045d
    45c0:	0000c930 	.word	0x0000c930
    45c4:	0000b36d 	.word	0x0000b36d
    45c8:	0000d196 	.word	0x0000d196
    45cc:	0000b3a1 	.word	0x0000b3a1
    45d0:	000026d5 	.word	0x000026d5
    45d4:	00003e19 	.word	0x00003e19
    45d8:	00000484 	.word	0x00000484
    45dc:	0000d21e 	.word	0x0000d21e
    45e0:	00000463 	.word	0x00000463
    45e4:	0000d1c3 	.word	0x0000d1c3
    45e8:	00003ed1 	.word	0x00003ed1
    45ec:	00000473 	.word	0x00000473
    45f0:	0000b489 	.word	0x0000b489
    45f4:	0000d1f9 	.word	0x0000d1f9

000045f8 <nm_spi_write_block>:
    45f8:	b5f0      	push	{r4, r5, r6, r7, lr}
    45fa:	0015      	movs	r5, r2
    45fc:	270a      	movs	r7, #10
    45fe:	b089      	sub	sp, #36	; 0x24
    4600:	9002      	str	r0, [sp, #8]
    4602:	9105      	str	r1, [sp, #20]
    4604:	2d01      	cmp	r5, #1
    4606:	d100      	bne.n	460a <nm_spi_write_block+0x12>
    4608:	3501      	adds	r5, #1
    460a:	2600      	movs	r6, #0
    460c:	002b      	movs	r3, r5
    460e:	9600      	str	r6, [sp, #0]
    4610:	0032      	movs	r2, r6
    4612:	9902      	ldr	r1, [sp, #8]
    4614:	20c7      	movs	r0, #199	; 0xc7
    4616:	4c6b      	ldr	r4, [pc, #428]	; (47c4 <nm_spi_write_block+0x1cc>)
    4618:	47a0      	blx	r4
    461a:	2801      	cmp	r0, #1
    461c:	d02c      	beq.n	4678 <nm_spi_write_block+0x80>
    461e:	496a      	ldr	r1, [pc, #424]	; (47c8 <nm_spi_write_block+0x1d0>)
    4620:	4a6a      	ldr	r2, [pc, #424]	; (47cc <nm_spi_write_block+0x1d4>)
    4622:	486b      	ldr	r0, [pc, #428]	; (47d0 <nm_spi_write_block+0x1d8>)
    4624:	4c6b      	ldr	r4, [pc, #428]	; (47d4 <nm_spi_write_block+0x1dc>)
    4626:	47a0      	blx	r4
    4628:	9902      	ldr	r1, [sp, #8]
    462a:	486b      	ldr	r0, [pc, #428]	; (47d8 <nm_spi_write_block+0x1e0>)
    462c:	47a0      	blx	r4
    462e:	4b6b      	ldr	r3, [pc, #428]	; (47dc <nm_spi_write_block+0x1e4>)
    4630:	200d      	movs	r0, #13
    4632:	4798      	blx	r3
    4634:	2001      	movs	r0, #1
    4636:	4c6a      	ldr	r4, [pc, #424]	; (47e0 <nm_spi_write_block+0x1e8>)
    4638:	47a0      	blx	r4
    463a:	2100      	movs	r1, #0
    463c:	4e61      	ldr	r6, [pc, #388]	; (47c4 <nm_spi_write_block+0x1cc>)
    463e:	000b      	movs	r3, r1
    4640:	000a      	movs	r2, r1
    4642:	9100      	str	r1, [sp, #0]
    4644:	20cf      	movs	r0, #207	; 0xcf
    4646:	47b0      	blx	r6
    4648:	4b66      	ldr	r3, [pc, #408]	; (47e4 <nm_spi_write_block+0x1ec>)
    464a:	20cf      	movs	r0, #207	; 0xcf
    464c:	4798      	blx	r3
    464e:	4a66      	ldr	r2, [pc, #408]	; (47e8 <nm_spi_write_block+0x1f0>)
    4650:	495d      	ldr	r1, [pc, #372]	; (47c8 <nm_spi_write_block+0x1d0>)
    4652:	4e60      	ldr	r6, [pc, #384]	; (47d4 <nm_spi_write_block+0x1dc>)
    4654:	485e      	ldr	r0, [pc, #376]	; (47d0 <nm_spi_write_block+0x1d8>)
    4656:	47b0      	blx	r6
    4658:	0039      	movs	r1, r7
    465a:	9a02      	ldr	r2, [sp, #8]
    465c:	002b      	movs	r3, r5
    465e:	4863      	ldr	r0, [pc, #396]	; (47ec <nm_spi_write_block+0x1f4>)
    4660:	47b0      	blx	r6
    4662:	4b5e      	ldr	r3, [pc, #376]	; (47dc <nm_spi_write_block+0x1e4>)
    4664:	200d      	movs	r0, #13
    4666:	4798      	blx	r3
    4668:	3f01      	subs	r7, #1
    466a:	2001      	movs	r0, #1
    466c:	47a0      	blx	r4
    466e:	2f00      	cmp	r7, #0
    4670:	d1c8      	bne.n	4604 <nm_spi_write_block+0xc>
    4672:	2006      	movs	r0, #6
    4674:	4240      	negs	r0, r0
    4676:	e0a2      	b.n	47be <nm_spi_write_block+0x1c6>
    4678:	20c7      	movs	r0, #199	; 0xc7
    467a:	4b5a      	ldr	r3, [pc, #360]	; (47e4 <nm_spi_write_block+0x1ec>)
    467c:	4798      	blx	r3
    467e:	2801      	cmp	r0, #1
    4680:	d008      	beq.n	4694 <nm_spi_write_block+0x9c>
    4682:	22f4      	movs	r2, #244	; 0xf4
    4684:	4950      	ldr	r1, [pc, #320]	; (47c8 <nm_spi_write_block+0x1d0>)
    4686:	0092      	lsls	r2, r2, #2
    4688:	4851      	ldr	r0, [pc, #324]	; (47d0 <nm_spi_write_block+0x1d8>)
    468a:	4c52      	ldr	r4, [pc, #328]	; (47d4 <nm_spi_write_block+0x1dc>)
    468c:	47a0      	blx	r4
    468e:	9902      	ldr	r1, [sp, #8]
    4690:	4857      	ldr	r0, [pc, #348]	; (47f0 <nm_spi_write_block+0x1f8>)
    4692:	e7cb      	b.n	462c <nm_spi_write_block+0x34>
    4694:	002c      	movs	r4, r5
    4696:	ab07      	add	r3, sp, #28
    4698:	801e      	strh	r6, [r3, #0]
    469a:	9004      	str	r0, [sp, #16]
    469c:	2380      	movs	r3, #128	; 0x80
    469e:	1c20      	adds	r0, r4, #0
    46a0:	019b      	lsls	r3, r3, #6
    46a2:	429c      	cmp	r4, r3
    46a4:	d901      	bls.n	46aa <nm_spi_write_block+0xb2>
    46a6:	4b53      	ldr	r3, [pc, #332]	; (47f4 <nm_spi_write_block+0x1fc>)
    46a8:	8818      	ldrh	r0, [r3, #0]
    46aa:	b283      	uxth	r3, r0
    46ac:	9303      	str	r3, [sp, #12]
    46ae:	2e00      	cmp	r6, #0
    46b0:	d127      	bne.n	4702 <nm_spi_write_block+0x10a>
    46b2:	2280      	movs	r2, #128	; 0x80
    46b4:	9b04      	ldr	r3, [sp, #16]
    46b6:	0192      	lsls	r2, r2, #6
    46b8:	4294      	cmp	r4, r2
    46ba:	d800      	bhi.n	46be <nm_spi_write_block+0xc6>
    46bc:	2303      	movs	r3, #3
    46be:	200b      	movs	r0, #11
    46c0:	aa04      	add	r2, sp, #16
    46c2:	1880      	adds	r0, r0, r2
    46c4:	2210      	movs	r2, #16
    46c6:	4252      	negs	r2, r2
    46c8:	4313      	orrs	r3, r2
    46ca:	7003      	strb	r3, [r0, #0]
    46cc:	9904      	ldr	r1, [sp, #16]
    46ce:	4b4a      	ldr	r3, [pc, #296]	; (47f8 <nm_spi_write_block+0x200>)
    46d0:	4798      	blx	r3
    46d2:	2800      	cmp	r0, #0
    46d4:	d01c      	beq.n	4710 <nm_spi_write_block+0x118>
    46d6:	22d4      	movs	r2, #212	; 0xd4
    46d8:	4948      	ldr	r1, [pc, #288]	; (47fc <nm_spi_write_block+0x204>)
    46da:	0092      	lsls	r2, r2, #2
    46dc:	483c      	ldr	r0, [pc, #240]	; (47d0 <nm_spi_write_block+0x1d8>)
    46de:	4b3d      	ldr	r3, [pc, #244]	; (47d4 <nm_spi_write_block+0x1dc>)
    46e0:	4798      	blx	r3
    46e2:	4847      	ldr	r0, [pc, #284]	; (4800 <nm_spi_write_block+0x208>)
    46e4:	4b47      	ldr	r3, [pc, #284]	; (4804 <nm_spi_write_block+0x20c>)
    46e6:	4798      	blx	r3
    46e8:	200d      	movs	r0, #13
    46ea:	4b3c      	ldr	r3, [pc, #240]	; (47dc <nm_spi_write_block+0x1e4>)
    46ec:	4798      	blx	r3
    46ee:	22f8      	movs	r2, #248	; 0xf8
    46f0:	0092      	lsls	r2, r2, #2
    46f2:	4935      	ldr	r1, [pc, #212]	; (47c8 <nm_spi_write_block+0x1d0>)
    46f4:	4b37      	ldr	r3, [pc, #220]	; (47d4 <nm_spi_write_block+0x1dc>)
    46f6:	4836      	ldr	r0, [pc, #216]	; (47d0 <nm_spi_write_block+0x1d8>)
    46f8:	4798      	blx	r3
    46fa:	4b42      	ldr	r3, [pc, #264]	; (4804 <nm_spi_write_block+0x20c>)
    46fc:	4842      	ldr	r0, [pc, #264]	; (4808 <nm_spi_write_block+0x210>)
    46fe:	4798      	blx	r3
    4700:	e795      	b.n	462e <nm_spi_write_block+0x36>
    4702:	2280      	movs	r2, #128	; 0x80
    4704:	2300      	movs	r3, #0
    4706:	0192      	lsls	r2, r2, #6
    4708:	42a2      	cmp	r2, r4
    470a:	415b      	adcs	r3, r3
    470c:	3302      	adds	r3, #2
    470e:	e7d6      	b.n	46be <nm_spi_write_block+0xc6>
    4710:	9b05      	ldr	r3, [sp, #20]
    4712:	9903      	ldr	r1, [sp, #12]
    4714:	1998      	adds	r0, r3, r6
    4716:	4b38      	ldr	r3, [pc, #224]	; (47f8 <nm_spi_write_block+0x200>)
    4718:	4798      	blx	r3
    471a:	2800      	cmp	r0, #0
    471c:	d006      	beq.n	472c <nm_spi_write_block+0x134>
    471e:	4a3b      	ldr	r2, [pc, #236]	; (480c <nm_spi_write_block+0x214>)
    4720:	4936      	ldr	r1, [pc, #216]	; (47fc <nm_spi_write_block+0x204>)
    4722:	482b      	ldr	r0, [pc, #172]	; (47d0 <nm_spi_write_block+0x1d8>)
    4724:	4b2b      	ldr	r3, [pc, #172]	; (47d4 <nm_spi_write_block+0x1dc>)
    4726:	4798      	blx	r3
    4728:	4839      	ldr	r0, [pc, #228]	; (4810 <nm_spi_write_block+0x218>)
    472a:	e7db      	b.n	46e4 <nm_spi_write_block+0xec>
    472c:	4b39      	ldr	r3, [pc, #228]	; (4814 <nm_spi_write_block+0x21c>)
    472e:	781b      	ldrb	r3, [r3, #0]
    4730:	2b00      	cmp	r3, #0
    4732:	d10c      	bne.n	474e <nm_spi_write_block+0x156>
    4734:	2102      	movs	r1, #2
    4736:	a807      	add	r0, sp, #28
    4738:	4b2f      	ldr	r3, [pc, #188]	; (47f8 <nm_spi_write_block+0x200>)
    473a:	4798      	blx	r3
    473c:	2800      	cmp	r0, #0
    473e:	d006      	beq.n	474e <nm_spi_write_block+0x156>
    4740:	4a35      	ldr	r2, [pc, #212]	; (4818 <nm_spi_write_block+0x220>)
    4742:	492e      	ldr	r1, [pc, #184]	; (47fc <nm_spi_write_block+0x204>)
    4744:	4822      	ldr	r0, [pc, #136]	; (47d0 <nm_spi_write_block+0x1d8>)
    4746:	4b23      	ldr	r3, [pc, #140]	; (47d4 <nm_spi_write_block+0x1dc>)
    4748:	4798      	blx	r3
    474a:	4834      	ldr	r0, [pc, #208]	; (481c <nm_spi_write_block+0x224>)
    474c:	e7ca      	b.n	46e4 <nm_spi_write_block+0xec>
    474e:	9b03      	ldr	r3, [sp, #12]
    4750:	1ae4      	subs	r4, r4, r3
    4752:	199e      	adds	r6, r3, r6
    4754:	b2a4      	uxth	r4, r4
    4756:	b236      	sxth	r6, r6
    4758:	2c00      	cmp	r4, #0
    475a:	d19f      	bne.n	469c <nm_spi_write_block+0xa4>
    475c:	4b2d      	ldr	r3, [pc, #180]	; (4814 <nm_spi_write_block+0x21c>)
    475e:	a807      	add	r0, sp, #28
    4760:	781e      	ldrb	r6, [r3, #0]
    4762:	1e73      	subs	r3, r6, #1
    4764:	419e      	sbcs	r6, r3
    4766:	3602      	adds	r6, #2
    4768:	b2b1      	uxth	r1, r6
    476a:	4b2d      	ldr	r3, [pc, #180]	; (4820 <nm_spi_write_block+0x228>)
    476c:	4798      	blx	r3
    476e:	2800      	cmp	r0, #0
    4770:	d00d      	beq.n	478e <nm_spi_write_block+0x196>
    4772:	223c      	movs	r2, #60	; 0x3c
    4774:	4b17      	ldr	r3, [pc, #92]	; (47d4 <nm_spi_write_block+0x1dc>)
    4776:	32ff      	adds	r2, #255	; 0xff
    4778:	492a      	ldr	r1, [pc, #168]	; (4824 <nm_spi_write_block+0x22c>)
    477a:	4815      	ldr	r0, [pc, #84]	; (47d0 <nm_spi_write_block+0x1d8>)
    477c:	4798      	blx	r3
    477e:	482a      	ldr	r0, [pc, #168]	; (4828 <nm_spi_write_block+0x230>)
    4780:	4b20      	ldr	r3, [pc, #128]	; (4804 <nm_spi_write_block+0x20c>)
    4782:	4798      	blx	r3
    4784:	200d      	movs	r0, #13
    4786:	4b15      	ldr	r3, [pc, #84]	; (47dc <nm_spi_write_block+0x1e4>)
    4788:	4798      	blx	r3
    478a:	22fa      	movs	r2, #250	; 0xfa
    478c:	e7b0      	b.n	46f0 <nm_spi_write_block+0xf8>
    478e:	ab07      	add	r3, sp, #28
    4790:	199e      	adds	r6, r3, r6
    4792:	1e73      	subs	r3, r6, #1
    4794:	781b      	ldrb	r3, [r3, #0]
    4796:	2b00      	cmp	r3, #0
    4798:	d103      	bne.n	47a2 <nm_spi_write_block+0x1aa>
    479a:	3e02      	subs	r6, #2
    479c:	7833      	ldrb	r3, [r6, #0]
    479e:	2bc3      	cmp	r3, #195	; 0xc3
    47a0:	d00c      	beq.n	47bc <nm_spi_write_block+0x1c4>
    47a2:	22a1      	movs	r2, #161	; 0xa1
    47a4:	491f      	ldr	r1, [pc, #124]	; (4824 <nm_spi_write_block+0x22c>)
    47a6:	0052      	lsls	r2, r2, #1
    47a8:	4c0a      	ldr	r4, [pc, #40]	; (47d4 <nm_spi_write_block+0x1dc>)
    47aa:	4809      	ldr	r0, [pc, #36]	; (47d0 <nm_spi_write_block+0x1d8>)
    47ac:	47a0      	blx	r4
    47ae:	a907      	add	r1, sp, #28
    47b0:	788b      	ldrb	r3, [r1, #2]
    47b2:	784a      	ldrb	r2, [r1, #1]
    47b4:	481d      	ldr	r0, [pc, #116]	; (482c <nm_spi_write_block+0x234>)
    47b6:	7809      	ldrb	r1, [r1, #0]
    47b8:	47a0      	blx	r4
    47ba:	e7e3      	b.n	4784 <nm_spi_write_block+0x18c>
    47bc:	0020      	movs	r0, r4
    47be:	b009      	add	sp, #36	; 0x24
    47c0:	bdf0      	pop	{r4, r5, r6, r7, pc}
    47c2:	46c0      	nop			; (mov r8, r8)
    47c4:	00003fed 	.word	0x00003fed
    47c8:	0000cf94 	.word	0x0000cf94
    47cc:	000003ca 	.word	0x000003ca
    47d0:	0000c930 	.word	0x0000c930
    47d4:	0000b36d 	.word	0x0000b36d
    47d8:	0000d239 	.word	0x0000d239
    47dc:	0000b3a1 	.word	0x0000b3a1
    47e0:	000026d5 	.word	0x000026d5
    47e4:	00003e19 	.word	0x00003e19
    47e8:	000003f2 	.word	0x000003f2
    47ec:	0000d21e 	.word	0x0000d21e
    47f0:	0000d267 	.word	0x0000d267
    47f4:	0000cf42 	.word	0x0000cf42
    47f8:	00003de1 	.word	0x00003de1
    47fc:	0000cf77 	.word	0x0000cf77
    4800:	0000d29f 	.word	0x0000d29f
    4804:	0000b489 	.word	0x0000b489
    4808:	0000d389 	.word	0x0000d389
    480c:	00000359 	.word	0x00000359
    4810:	0000d2d4 	.word	0x0000d2d4
    4814:	20000228 	.word	0x20000228
    4818:	00000363 	.word	0x00000363
    481c:	0000d305 	.word	0x0000d305
    4820:	00003dfd 	.word	0x00003dfd
    4824:	0000cf50 	.word	0x0000cf50
    4828:	0000d33a 	.word	0x0000d33a
    482c:	0000d359 	.word	0x0000d359

00004830 <Socket_ReadSocketData>:
    4830:	b5f0      	push	{r4, r5, r6, r7, lr}
    4832:	b087      	sub	sp, #28
    4834:	9302      	str	r3, [sp, #8]
    4836:	ab0c      	add	r3, sp, #48	; 0x30
    4838:	881c      	ldrh	r4, [r3, #0]
    483a:	9001      	str	r0, [sp, #4]
    483c:	000e      	movs	r6, r1
    483e:	9204      	str	r2, [sp, #16]
    4840:	2c00      	cmp	r4, #0
    4842:	d04b      	beq.n	48dc <Socket_ReadSocketData+0xac>
    4844:	4a2e      	ldr	r2, [pc, #184]	; (4900 <Socket_ReadSocketData+0xd0>)
    4846:	0103      	lsls	r3, r0, #4
    4848:	589a      	ldr	r2, [r3, r2]
    484a:	2a00      	cmp	r2, #0
    484c:	d046      	beq.n	48dc <Socket_ReadSocketData+0xac>
    484e:	4a2c      	ldr	r2, [pc, #176]	; (4900 <Socket_ReadSocketData+0xd0>)
    4850:	18d3      	adds	r3, r2, r3
    4852:	889a      	ldrh	r2, [r3, #4]
    4854:	2a00      	cmp	r2, #0
    4856:	d041      	beq.n	48dc <Socket_ReadSocketData+0xac>
    4858:	7a9b      	ldrb	r3, [r3, #10]
    485a:	b2db      	uxtb	r3, r3
    485c:	2b01      	cmp	r3, #1
    485e:	d13d      	bne.n	48dc <Socket_ReadSocketData+0xac>
    4860:	80cc      	strh	r4, [r1, #6]
    4862:	9305      	str	r3, [sp, #20]
    4864:	9b01      	ldr	r3, [sp, #4]
    4866:	011b      	lsls	r3, r3, #4
    4868:	9303      	str	r3, [sp, #12]
    486a:	9a03      	ldr	r2, [sp, #12]
    486c:	4b24      	ldr	r3, [pc, #144]	; (4900 <Socket_ReadSocketData+0xd0>)
    486e:	189a      	adds	r2, r3, r2
    4870:	8893      	ldrh	r3, [r2, #4]
    4872:	1ae3      	subs	r3, r4, r3
    4874:	b21b      	sxth	r3, r3
    4876:	2b00      	cmp	r3, #0
    4878:	dd32      	ble.n	48e0 <Socket_ReadSocketData+0xb0>
    487a:	2300      	movs	r3, #0
    487c:	8895      	ldrh	r5, [r2, #4]
    487e:	b2ad      	uxth	r5, r5
    4880:	4a1f      	ldr	r2, [pc, #124]	; (4900 <Socket_ReadSocketData+0xd0>)
    4882:	9903      	ldr	r1, [sp, #12]
    4884:	9802      	ldr	r0, [sp, #8]
    4886:	5851      	ldr	r1, [r2, r1]
    4888:	4f1e      	ldr	r7, [pc, #120]	; (4904 <Socket_ReadSocketData+0xd4>)
    488a:	002a      	movs	r2, r5
    488c:	47b8      	blx	r7
    488e:	2800      	cmp	r0, #0
    4890:	d129      	bne.n	48e6 <Socket_ReadSocketData+0xb6>
    4892:	9a03      	ldr	r2, [sp, #12]
    4894:	4b1a      	ldr	r3, [pc, #104]	; (4900 <Socket_ReadSocketData+0xd0>)
    4896:	589b      	ldr	r3, [r3, r2]
    4898:	80b5      	strh	r5, [r6, #4]
    489a:	6033      	str	r3, [r6, #0]
    489c:	88f3      	ldrh	r3, [r6, #6]
    489e:	1b5b      	subs	r3, r3, r5
    48a0:	80f3      	strh	r3, [r6, #6]
    48a2:	4b19      	ldr	r3, [pc, #100]	; (4908 <Socket_ReadSocketData+0xd8>)
    48a4:	681a      	ldr	r2, [r3, #0]
    48a6:	2a00      	cmp	r2, #0
    48a8:	d004      	beq.n	48b4 <Socket_ReadSocketData+0x84>
    48aa:	681b      	ldr	r3, [r3, #0]
    48ac:	0032      	movs	r2, r6
    48ae:	9904      	ldr	r1, [sp, #16]
    48b0:	9801      	ldr	r0, [sp, #4]
    48b2:	4798      	blx	r3
    48b4:	9b02      	ldr	r3, [sp, #8]
    48b6:	4a12      	ldr	r2, [pc, #72]	; (4900 <Socket_ReadSocketData+0xd0>)
    48b8:	195b      	adds	r3, r3, r5
    48ba:	9302      	str	r3, [sp, #8]
    48bc:	9b01      	ldr	r3, [sp, #4]
    48be:	1b64      	subs	r4, r4, r5
    48c0:	011b      	lsls	r3, r3, #4
    48c2:	18d3      	adds	r3, r2, r3
    48c4:	7a98      	ldrb	r0, [r3, #10]
    48c6:	b2a4      	uxth	r4, r4
    48c8:	b2c0      	uxtb	r0, r0
    48ca:	2800      	cmp	r0, #0
    48cc:	d115      	bne.n	48fa <Socket_ReadSocketData+0xca>
    48ce:	2c00      	cmp	r4, #0
    48d0:	d004      	beq.n	48dc <Socket_ReadSocketData+0xac>
    48d2:	2301      	movs	r3, #1
    48d4:	0002      	movs	r2, r0
    48d6:	0001      	movs	r1, r0
    48d8:	4c0a      	ldr	r4, [pc, #40]	; (4904 <Socket_ReadSocketData+0xd4>)
    48da:	47a0      	blx	r4
    48dc:	b007      	add	sp, #28
    48de:	bdf0      	pop	{r4, r5, r6, r7, pc}
    48e0:	0025      	movs	r5, r4
    48e2:	9b05      	ldr	r3, [sp, #20]
    48e4:	e7cc      	b.n	4880 <Socket_ReadSocketData+0x50>
    48e6:	4d09      	ldr	r5, [pc, #36]	; (490c <Socket_ReadSocketData+0xdc>)
    48e8:	4809      	ldr	r0, [pc, #36]	; (4910 <Socket_ReadSocketData+0xe0>)
    48ea:	47a8      	blx	r5
    48ec:	0021      	movs	r1, r4
    48ee:	4809      	ldr	r0, [pc, #36]	; (4914 <Socket_ReadSocketData+0xe4>)
    48f0:	47a8      	blx	r5
    48f2:	4b09      	ldr	r3, [pc, #36]	; (4918 <Socket_ReadSocketData+0xe8>)
    48f4:	200d      	movs	r0, #13
    48f6:	4798      	blx	r3
    48f8:	e7f0      	b.n	48dc <Socket_ReadSocketData+0xac>
    48fa:	2c00      	cmp	r4, #0
    48fc:	d1b2      	bne.n	4864 <Socket_ReadSocketData+0x34>
    48fe:	e7ed      	b.n	48dc <Socket_ReadSocketData+0xac>
    4900:	20001770 	.word	0x20001770
    4904:	00003071 	.word	0x00003071
    4908:	20001820 	.word	0x20001820
    490c:	0000b36d 	.word	0x0000b36d
    4910:	0000cc1e 	.word	0x0000cc1e
    4914:	0000d5e4 	.word	0x0000d5e4
    4918:	0000b3a1 	.word	0x0000b3a1

0000491c <m2m_ip_cb>:
    491c:	b5f0      	push	{r4, r5, r6, r7, lr}
    491e:	b09d      	sub	sp, #116	; 0x74
    4920:	9102      	str	r1, [sp, #8]
    4922:	0014      	movs	r4, r2
    4924:	2841      	cmp	r0, #65	; 0x41
    4926:	d001      	beq.n	492c <m2m_ip_cb+0x10>
    4928:	2854      	cmp	r0, #84	; 0x54
    492a:	d116      	bne.n	495a <m2m_ip_cb+0x3e>
    492c:	ad0b      	add	r5, sp, #44	; 0x2c
    492e:	0020      	movs	r0, r4
    4930:	2300      	movs	r3, #0
    4932:	2204      	movs	r2, #4
    4934:	0029      	movs	r1, r5
    4936:	4c9a      	ldr	r4, [pc, #616]	; (4ba0 <m2m_ip_cb+0x284>)
    4938:	47a0      	blx	r4
    493a:	2800      	cmp	r0, #0
    493c:	d10b      	bne.n	4956 <m2m_ip_cb+0x3a>
    493e:	786b      	ldrb	r3, [r5, #1]
    4940:	aa07      	add	r2, sp, #28
    4942:	7013      	strb	r3, [r2, #0]
    4944:	4b97      	ldr	r3, [pc, #604]	; (4ba4 <m2m_ip_cb+0x288>)
    4946:	6819      	ldr	r1, [r3, #0]
    4948:	2900      	cmp	r1, #0
    494a:	d004      	beq.n	4956 <m2m_ip_cb+0x3a>
    494c:	2000      	movs	r0, #0
    494e:	2101      	movs	r1, #1
    4950:	681b      	ldr	r3, [r3, #0]
    4952:	5628      	ldrsb	r0, [r5, r0]
    4954:	4798      	blx	r3
    4956:	b01d      	add	sp, #116	; 0x74
    4958:	bdf0      	pop	{r4, r5, r6, r7, pc}
    495a:	2842      	cmp	r0, #66	; 0x42
    495c:	d114      	bne.n	4988 <m2m_ip_cb+0x6c>
    495e:	ad0b      	add	r5, sp, #44	; 0x2c
    4960:	0020      	movs	r0, r4
    4962:	2300      	movs	r3, #0
    4964:	2204      	movs	r2, #4
    4966:	0029      	movs	r1, r5
    4968:	4c8d      	ldr	r4, [pc, #564]	; (4ba0 <m2m_ip_cb+0x284>)
    496a:	47a0      	blx	r4
    496c:	2800      	cmp	r0, #0
    496e:	d1f2      	bne.n	4956 <m2m_ip_cb+0x3a>
    4970:	786b      	ldrb	r3, [r5, #1]
    4972:	aa07      	add	r2, sp, #28
    4974:	7013      	strb	r3, [r2, #0]
    4976:	4b8b      	ldr	r3, [pc, #556]	; (4ba4 <m2m_ip_cb+0x288>)
    4978:	6819      	ldr	r1, [r3, #0]
    497a:	2900      	cmp	r1, #0
    497c:	d0eb      	beq.n	4956 <m2m_ip_cb+0x3a>
    497e:	2000      	movs	r0, #0
    4980:	681b      	ldr	r3, [r3, #0]
    4982:	5628      	ldrsb	r0, [r5, r0]
    4984:	2102      	movs	r1, #2
    4986:	e7e5      	b.n	4954 <m2m_ip_cb+0x38>
    4988:	2843      	cmp	r0, #67	; 0x43
    498a:	d13d      	bne.n	4a08 <m2m_ip_cb+0xec>
    498c:	ad07      	add	r5, sp, #28
    498e:	0020      	movs	r0, r4
    4990:	2300      	movs	r3, #0
    4992:	220c      	movs	r2, #12
    4994:	0029      	movs	r1, r5
    4996:	4c82      	ldr	r4, [pc, #520]	; (4ba0 <m2m_ip_cb+0x284>)
    4998:	47a0      	blx	r4
    499a:	2800      	cmp	r0, #0
    499c:	d1db      	bne.n	4956 <m2m_ip_cb+0x3a>
    499e:	2009      	movs	r0, #9
    49a0:	5628      	ldrsb	r0, [r5, r0]
    49a2:	2800      	cmp	r0, #0
    49a4:	db1f      	blt.n	49e6 <m2m_ip_cb+0xca>
    49a6:	2308      	movs	r3, #8
    49a8:	56eb      	ldrsb	r3, [r5, r3]
    49aa:	4a7f      	ldr	r2, [pc, #508]	; (4ba8 <m2m_ip_cb+0x28c>)
    49ac:	011b      	lsls	r3, r3, #4
    49ae:	18d3      	adds	r3, r2, r3
    49b0:	7adb      	ldrb	r3, [r3, #11]
    49b2:	0104      	lsls	r4, r0, #4
    49b4:	1911      	adds	r1, r2, r4
    49b6:	b2db      	uxtb	r3, r3
    49b8:	72cb      	strb	r3, [r1, #11]
    49ba:	2301      	movs	r3, #1
    49bc:	728b      	strb	r3, [r1, #10]
    49be:	896b      	ldrh	r3, [r5, #10]
    49c0:	3b08      	subs	r3, #8
    49c2:	b29b      	uxth	r3, r3
    49c4:	810b      	strh	r3, [r1, #8]
    49c6:	4b79      	ldr	r3, [pc, #484]	; (4bac <m2m_ip_cb+0x290>)
    49c8:	8819      	ldrh	r1, [r3, #0]
    49ca:	3101      	adds	r1, #1
    49cc:	b289      	uxth	r1, r1
    49ce:	8019      	strh	r1, [r3, #0]
    49d0:	8819      	ldrh	r1, [r3, #0]
    49d2:	2900      	cmp	r1, #0
    49d4:	d103      	bne.n	49de <m2m_ip_cb+0xc2>
    49d6:	8819      	ldrh	r1, [r3, #0]
    49d8:	3101      	adds	r1, #1
    49da:	b289      	uxth	r1, r1
    49dc:	8019      	strh	r1, [r3, #0]
    49de:	881b      	ldrh	r3, [r3, #0]
    49e0:	1912      	adds	r2, r2, r4
    49e2:	b29b      	uxth	r3, r3
    49e4:	80d3      	strh	r3, [r2, #6]
    49e6:	2302      	movs	r3, #2
    49e8:	aa0b      	add	r2, sp, #44	; 0x2c
    49ea:	7010      	strb	r0, [r2, #0]
    49ec:	8093      	strh	r3, [r2, #4]
    49ee:	886b      	ldrh	r3, [r5, #2]
    49f0:	80d3      	strh	r3, [r2, #6]
    49f2:	686b      	ldr	r3, [r5, #4]
    49f4:	6093      	str	r3, [r2, #8]
    49f6:	4b6b      	ldr	r3, [pc, #428]	; (4ba4 <m2m_ip_cb+0x288>)
    49f8:	6819      	ldr	r1, [r3, #0]
    49fa:	2900      	cmp	r1, #0
    49fc:	d0ab      	beq.n	4956 <m2m_ip_cb+0x3a>
    49fe:	2008      	movs	r0, #8
    4a00:	681b      	ldr	r3, [r3, #0]
    4a02:	5628      	ldrsb	r0, [r5, r0]
    4a04:	2104      	movs	r1, #4
    4a06:	e7a5      	b.n	4954 <m2m_ip_cb+0x38>
    4a08:	2844      	cmp	r0, #68	; 0x44
    4a0a:	d001      	beq.n	4a10 <m2m_ip_cb+0xf4>
    4a0c:	284b      	cmp	r0, #75	; 0x4b
    4a0e:	d121      	bne.n	4a54 <m2m_ip_cb+0x138>
    4a10:	ad0b      	add	r5, sp, #44	; 0x2c
    4a12:	0020      	movs	r0, r4
    4a14:	2300      	movs	r3, #0
    4a16:	2204      	movs	r2, #4
    4a18:	0029      	movs	r1, r5
    4a1a:	4c61      	ldr	r4, [pc, #388]	; (4ba0 <m2m_ip_cb+0x284>)
    4a1c:	47a0      	blx	r4
    4a1e:	2800      	cmp	r0, #0
    4a20:	d000      	beq.n	4a24 <m2m_ip_cb+0x108>
    4a22:	e798      	b.n	4956 <m2m_ip_cb+0x3a>
    4a24:	2000      	movs	r0, #0
    4a26:	2301      	movs	r3, #1
    4a28:	5628      	ldrsb	r0, [r5, r0]
    4a2a:	aa07      	add	r2, sp, #28
    4a2c:	7010      	strb	r0, [r2, #0]
    4a2e:	56eb      	ldrsb	r3, [r5, r3]
    4a30:	7053      	strb	r3, [r2, #1]
    4a32:	2b00      	cmp	r3, #0
    4a34:	d106      	bne.n	4a44 <m2m_ip_cb+0x128>
    4a36:	886b      	ldrh	r3, [r5, #2]
    4a38:	495b      	ldr	r1, [pc, #364]	; (4ba8 <m2m_ip_cb+0x28c>)
    4a3a:	3b08      	subs	r3, #8
    4a3c:	0104      	lsls	r4, r0, #4
    4a3e:	b29b      	uxth	r3, r3
    4a40:	1909      	adds	r1, r1, r4
    4a42:	810b      	strh	r3, [r1, #8]
    4a44:	4b57      	ldr	r3, [pc, #348]	; (4ba4 <m2m_ip_cb+0x288>)
    4a46:	6819      	ldr	r1, [r3, #0]
    4a48:	2900      	cmp	r1, #0
    4a4a:	d100      	bne.n	4a4e <m2m_ip_cb+0x132>
    4a4c:	e783      	b.n	4956 <m2m_ip_cb+0x3a>
    4a4e:	681b      	ldr	r3, [r3, #0]
    4a50:	2105      	movs	r1, #5
    4a52:	e77f      	b.n	4954 <m2m_ip_cb+0x38>
    4a54:	284a      	cmp	r0, #74	; 0x4a
    4a56:	d112      	bne.n	4a7e <m2m_ip_cb+0x162>
    4a58:	0020      	movs	r0, r4
    4a5a:	2300      	movs	r3, #0
    4a5c:	2244      	movs	r2, #68	; 0x44
    4a5e:	a90b      	add	r1, sp, #44	; 0x2c
    4a60:	4c4f      	ldr	r4, [pc, #316]	; (4ba0 <m2m_ip_cb+0x284>)
    4a62:	47a0      	blx	r4
    4a64:	2800      	cmp	r0, #0
    4a66:	d000      	beq.n	4a6a <m2m_ip_cb+0x14e>
    4a68:	e775      	b.n	4956 <m2m_ip_cb+0x3a>
    4a6a:	4b51      	ldr	r3, [pc, #324]	; (4bb0 <m2m_ip_cb+0x294>)
    4a6c:	681a      	ldr	r2, [r3, #0]
    4a6e:	2a00      	cmp	r2, #0
    4a70:	d100      	bne.n	4a74 <m2m_ip_cb+0x158>
    4a72:	e770      	b.n	4956 <m2m_ip_cb+0x3a>
    4a74:	681b      	ldr	r3, [r3, #0]
    4a76:	991b      	ldr	r1, [sp, #108]	; 0x6c
    4a78:	a80b      	add	r0, sp, #44	; 0x2c
    4a7a:	4798      	blx	r3
    4a7c:	e76b      	b.n	4956 <m2m_ip_cb+0x3a>
    4a7e:	2846      	cmp	r0, #70	; 0x46
    4a80:	d003      	beq.n	4a8a <m2m_ip_cb+0x16e>
    4a82:	2848      	cmp	r0, #72	; 0x48
    4a84:	d031      	beq.n	4aea <m2m_ip_cb+0x1ce>
    4a86:	284d      	cmp	r0, #77	; 0x4d
    4a88:	d148      	bne.n	4b1c <m2m_ip_cb+0x200>
    4a8a:	2606      	movs	r6, #6
    4a8c:	ad07      	add	r5, sp, #28
    4a8e:	2300      	movs	r3, #0
    4a90:	2210      	movs	r2, #16
    4a92:	0029      	movs	r1, r5
    4a94:	0020      	movs	r0, r4
    4a96:	4f42      	ldr	r7, [pc, #264]	; (4ba0 <m2m_ip_cb+0x284>)
    4a98:	47b8      	blx	r7
    4a9a:	2800      	cmp	r0, #0
    4a9c:	d000      	beq.n	4aa0 <m2m_ip_cb+0x184>
    4a9e:	e75a      	b.n	4956 <m2m_ip_cb+0x3a>
    4aa0:	270c      	movs	r7, #12
    4aa2:	89eb      	ldrh	r3, [r5, #14]
    4aa4:	57ef      	ldrsb	r7, [r5, r7]
    4aa6:	4a40      	ldr	r2, [pc, #256]	; (4ba8 <m2m_ip_cb+0x28c>)
    4aa8:	9304      	str	r3, [sp, #16]
    4aaa:	013b      	lsls	r3, r7, #4
    4aac:	18d3      	adds	r3, r2, r3
    4aae:	9303      	str	r3, [sp, #12]
    4ab0:	7318      	strb	r0, [r3, #12]
    4ab2:	8969      	ldrh	r1, [r5, #10]
    4ab4:	2308      	movs	r3, #8
    4ab6:	5eea      	ldrsh	r2, [r5, r3]
    4ab8:	9105      	str	r1, [sp, #20]
    4aba:	886b      	ldrh	r3, [r5, #2]
    4abc:	a90b      	add	r1, sp, #44	; 0x2c
    4abe:	814b      	strh	r3, [r1, #10]
    4ac0:	686b      	ldr	r3, [r5, #4]
    4ac2:	9d04      	ldr	r5, [sp, #16]
    4ac4:	60cb      	str	r3, [r1, #12]
    4ac6:	9b03      	ldr	r3, [sp, #12]
    4ac8:	88db      	ldrh	r3, [r3, #6]
    4aca:	429d      	cmp	r5, r3
    4acc:	d11c      	bne.n	4b08 <m2m_ip_cb+0x1ec>
    4ace:	2a00      	cmp	r2, #0
    4ad0:	dd0d      	ble.n	4aee <m2m_ip_cb+0x1d2>
    4ad2:	9b02      	ldr	r3, [sp, #8]
    4ad4:	429a      	cmp	r2, r3
    4ad6:	da0a      	bge.n	4aee <m2m_ip_cb+0x1d2>
    4ad8:	9b05      	ldr	r3, [sp, #20]
    4ada:	b292      	uxth	r2, r2
    4adc:	191b      	adds	r3, r3, r4
    4ade:	9200      	str	r2, [sp, #0]
    4ae0:	0038      	movs	r0, r7
    4ae2:	0032      	movs	r2, r6
    4ae4:	4c33      	ldr	r4, [pc, #204]	; (4bb4 <m2m_ip_cb+0x298>)
    4ae6:	47a0      	blx	r4
    4ae8:	e735      	b.n	4956 <m2m_ip_cb+0x3a>
    4aea:	2609      	movs	r6, #9
    4aec:	e7ce      	b.n	4a8c <m2m_ip_cb+0x170>
    4aee:	2300      	movs	r3, #0
    4af0:	930b      	str	r3, [sp, #44]	; 0x2c
    4af2:	4b2c      	ldr	r3, [pc, #176]	; (4ba4 <m2m_ip_cb+0x288>)
    4af4:	808a      	strh	r2, [r1, #4]
    4af6:	681a      	ldr	r2, [r3, #0]
    4af8:	2a00      	cmp	r2, #0
    4afa:	d100      	bne.n	4afe <m2m_ip_cb+0x1e2>
    4afc:	e72b      	b.n	4956 <m2m_ip_cb+0x3a>
    4afe:	000a      	movs	r2, r1
    4b00:	681b      	ldr	r3, [r3, #0]
    4b02:	0031      	movs	r1, r6
    4b04:	0038      	movs	r0, r7
    4b06:	e725      	b.n	4954 <m2m_ip_cb+0x38>
    4b08:	9b02      	ldr	r3, [sp, #8]
    4b0a:	2b10      	cmp	r3, #16
    4b0c:	d800      	bhi.n	4b10 <m2m_ip_cb+0x1f4>
    4b0e:	e722      	b.n	4956 <m2m_ip_cb+0x3a>
    4b10:	2301      	movs	r3, #1
    4b12:	0002      	movs	r2, r0
    4b14:	0001      	movs	r1, r0
    4b16:	4c22      	ldr	r4, [pc, #136]	; (4ba0 <m2m_ip_cb+0x284>)
    4b18:	47a0      	blx	r4
    4b1a:	e71c      	b.n	4956 <m2m_ip_cb+0x3a>
    4b1c:	2845      	cmp	r0, #69	; 0x45
    4b1e:	d003      	beq.n	4b28 <m2m_ip_cb+0x20c>
    4b20:	2847      	cmp	r0, #71	; 0x47
    4b22:	d021      	beq.n	4b68 <m2m_ip_cb+0x24c>
    4b24:	284c      	cmp	r0, #76	; 0x4c
    4b26:	d121      	bne.n	4b6c <m2m_ip_cb+0x250>
    4b28:	2607      	movs	r6, #7
    4b2a:	ad0b      	add	r5, sp, #44	; 0x2c
    4b2c:	0020      	movs	r0, r4
    4b2e:	2300      	movs	r3, #0
    4b30:	2208      	movs	r2, #8
    4b32:	0029      	movs	r1, r5
    4b34:	4c1a      	ldr	r4, [pc, #104]	; (4ba0 <m2m_ip_cb+0x284>)
    4b36:	47a0      	blx	r4
    4b38:	2800      	cmp	r0, #0
    4b3a:	d000      	beq.n	4b3e <m2m_ip_cb+0x222>
    4b3c:	e70b      	b.n	4956 <m2m_ip_cb+0x3a>
    4b3e:	2000      	movs	r0, #0
    4b40:	886b      	ldrh	r3, [r5, #2]
    4b42:	5628      	ldrsb	r0, [r5, r0]
    4b44:	aa07      	add	r2, sp, #28
    4b46:	88a9      	ldrh	r1, [r5, #4]
    4b48:	8013      	strh	r3, [r2, #0]
    4b4a:	4b17      	ldr	r3, [pc, #92]	; (4ba8 <m2m_ip_cb+0x28c>)
    4b4c:	0104      	lsls	r4, r0, #4
    4b4e:	191b      	adds	r3, r3, r4
    4b50:	88db      	ldrh	r3, [r3, #6]
    4b52:	4299      	cmp	r1, r3
    4b54:	d000      	beq.n	4b58 <m2m_ip_cb+0x23c>
    4b56:	e6fe      	b.n	4956 <m2m_ip_cb+0x3a>
    4b58:	4b12      	ldr	r3, [pc, #72]	; (4ba4 <m2m_ip_cb+0x288>)
    4b5a:	6819      	ldr	r1, [r3, #0]
    4b5c:	2900      	cmp	r1, #0
    4b5e:	d100      	bne.n	4b62 <m2m_ip_cb+0x246>
    4b60:	e6f9      	b.n	4956 <m2m_ip_cb+0x3a>
    4b62:	681b      	ldr	r3, [r3, #0]
    4b64:	0031      	movs	r1, r6
    4b66:	e6f5      	b.n	4954 <m2m_ip_cb+0x38>
    4b68:	2608      	movs	r6, #8
    4b6a:	e7de      	b.n	4b2a <m2m_ip_cb+0x20e>
    4b6c:	2852      	cmp	r0, #82	; 0x52
    4b6e:	d000      	beq.n	4b72 <m2m_ip_cb+0x256>
    4b70:	e6f1      	b.n	4956 <m2m_ip_cb+0x3a>
    4b72:	ad0b      	add	r5, sp, #44	; 0x2c
    4b74:	0020      	movs	r0, r4
    4b76:	2301      	movs	r3, #1
    4b78:	2214      	movs	r2, #20
    4b7a:	0029      	movs	r1, r5
    4b7c:	4c08      	ldr	r4, [pc, #32]	; (4ba0 <m2m_ip_cb+0x284>)
    4b7e:	47a0      	blx	r4
    4b80:	2800      	cmp	r0, #0
    4b82:	d000      	beq.n	4b86 <m2m_ip_cb+0x26a>
    4b84:	e6e7      	b.n	4956 <m2m_ip_cb+0x3a>
    4b86:	4b0c      	ldr	r3, [pc, #48]	; (4bb8 <m2m_ip_cb+0x29c>)
    4b88:	686a      	ldr	r2, [r5, #4]
    4b8a:	601a      	str	r2, [r3, #0]
    4b8c:	681a      	ldr	r2, [r3, #0]
    4b8e:	2a00      	cmp	r2, #0
    4b90:	d100      	bne.n	4b94 <m2m_ip_cb+0x278>
    4b92:	e6e0      	b.n	4956 <m2m_ip_cb+0x3a>
    4b94:	681b      	ldr	r3, [r3, #0]
    4b96:	7c2a      	ldrb	r2, [r5, #16]
    4b98:	68a9      	ldr	r1, [r5, #8]
    4b9a:	6828      	ldr	r0, [r5, #0]
    4b9c:	4798      	blx	r3
    4b9e:	e6da      	b.n	4956 <m2m_ip_cb+0x3a>
    4ba0:	00003071 	.word	0x00003071
    4ba4:	20001820 	.word	0x20001820
    4ba8:	20001770 	.word	0x20001770
    4bac:	2000022a 	.word	0x2000022a
    4bb0:	20001828 	.word	0x20001828
    4bb4:	00004831 	.word	0x00004831
    4bb8:	20001824 	.word	0x20001824

00004bbc <socketInit>:
    4bbc:	b570      	push	{r4, r5, r6, lr}
    4bbe:	4d09      	ldr	r5, [pc, #36]	; (4be4 <socketInit+0x28>)
    4bc0:	782c      	ldrb	r4, [r5, #0]
    4bc2:	b2e4      	uxtb	r4, r4
    4bc4:	2c00      	cmp	r4, #0
    4bc6:	d10c      	bne.n	4be2 <socketInit+0x26>
    4bc8:	22b0      	movs	r2, #176	; 0xb0
    4bca:	0021      	movs	r1, r4
    4bcc:	4806      	ldr	r0, [pc, #24]	; (4be8 <socketInit+0x2c>)
    4bce:	4b07      	ldr	r3, [pc, #28]	; (4bec <socketInit+0x30>)
    4bd0:	4798      	blx	r3
    4bd2:	4b07      	ldr	r3, [pc, #28]	; (4bf0 <socketInit+0x34>)
    4bd4:	4907      	ldr	r1, [pc, #28]	; (4bf4 <socketInit+0x38>)
    4bd6:	2002      	movs	r0, #2
    4bd8:	4798      	blx	r3
    4bda:	2301      	movs	r3, #1
    4bdc:	702b      	strb	r3, [r5, #0]
    4bde:	4b06      	ldr	r3, [pc, #24]	; (4bf8 <socketInit+0x3c>)
    4be0:	801c      	strh	r4, [r3, #0]
    4be2:	bd70      	pop	{r4, r5, r6, pc}
    4be4:	20000229 	.word	0x20000229
    4be8:	20001770 	.word	0x20001770
    4bec:	00002a93 	.word	0x00002a93
    4bf0:	00003139 	.word	0x00003139
    4bf4:	0000491d 	.word	0x0000491d
    4bf8:	2000022a 	.word	0x2000022a

00004bfc <registerSocketCallback>:
    4bfc:	4b02      	ldr	r3, [pc, #8]	; (4c08 <registerSocketCallback+0xc>)
    4bfe:	6018      	str	r0, [r3, #0]
    4c00:	4b02      	ldr	r3, [pc, #8]	; (4c0c <registerSocketCallback+0x10>)
    4c02:	6019      	str	r1, [r3, #0]
    4c04:	4770      	bx	lr
    4c06:	46c0      	nop			; (mov r8, r8)
    4c08:	20001820 	.word	0x20001820
    4c0c:	20001828 	.word	0x20001828

00004c10 <socket>:
    4c10:	b5f0      	push	{r4, r5, r6, r7, lr}
    4c12:	b089      	sub	sp, #36	; 0x24
    4c14:	9205      	str	r2, [sp, #20]
    4c16:	2802      	cmp	r0, #2
    4c18:	d004      	beq.n	4c24 <socket+0x14>
    4c1a:	2501      	movs	r5, #1
    4c1c:	426d      	negs	r5, r5
    4c1e:	0028      	movs	r0, r5
    4c20:	b009      	add	sp, #36	; 0x24
    4c22:	bdf0      	pop	{r4, r5, r6, r7, pc}
    4c24:	2901      	cmp	r1, #1
    4c26:	d14c      	bne.n	4cc2 <socket+0xb2>
    4c28:	2607      	movs	r6, #7
    4c2a:	4f32      	ldr	r7, [pc, #200]	; (4cf4 <socket+0xe4>)
    4c2c:	783d      	ldrb	r5, [r7, #0]
    4c2e:	783c      	ldrb	r4, [r7, #0]
    4c30:	7838      	ldrb	r0, [r7, #0]
    4c32:	4b31      	ldr	r3, [pc, #196]	; (4cf8 <socket+0xe8>)
    4c34:	3001      	adds	r0, #1
    4c36:	2107      	movs	r1, #7
    4c38:	4798      	blx	r3
    4c3a:	b2e4      	uxtb	r4, r4
    4c3c:	4b2f      	ldr	r3, [pc, #188]	; (4cfc <socket+0xec>)
    4c3e:	b2c9      	uxtb	r1, r1
    4c40:	0124      	lsls	r4, r4, #4
    4c42:	7039      	strb	r1, [r7, #0]
    4c44:	191c      	adds	r4, r3, r4
    4c46:	7aa3      	ldrb	r3, [r4, #10]
    4c48:	b2ed      	uxtb	r5, r5
    4c4a:	2b00      	cmp	r3, #0
    4c4c:	d134      	bne.n	4cb8 <socket+0xa8>
    4c4e:	b26d      	sxtb	r5, r5
    4c50:	2d00      	cmp	r5, #0
    4c52:	dbe4      	blt.n	4c1e <socket+0xe>
    4c54:	4b2a      	ldr	r3, [pc, #168]	; (4d00 <socket+0xf0>)
    4c56:	2210      	movs	r2, #16
    4c58:	2100      	movs	r1, #0
    4c5a:	0020      	movs	r0, r4
    4c5c:	4798      	blx	r3
    4c5e:	2301      	movs	r3, #1
    4c60:	4e28      	ldr	r6, [pc, #160]	; (4d04 <socket+0xf4>)
    4c62:	72a3      	strb	r3, [r4, #10]
    4c64:	8833      	ldrh	r3, [r6, #0]
    4c66:	3301      	adds	r3, #1
    4c68:	b29b      	uxth	r3, r3
    4c6a:	8033      	strh	r3, [r6, #0]
    4c6c:	8833      	ldrh	r3, [r6, #0]
    4c6e:	2b00      	cmp	r3, #0
    4c70:	d103      	bne.n	4c7a <socket+0x6a>
    4c72:	8833      	ldrh	r3, [r6, #0]
    4c74:	3301      	adds	r3, #1
    4c76:	b29b      	uxth	r3, r3
    4c78:	8033      	strh	r3, [r6, #0]
    4c7a:	8833      	ldrh	r3, [r6, #0]
    4c7c:	4f22      	ldr	r7, [pc, #136]	; (4d08 <socket+0xf8>)
    4c7e:	b29b      	uxth	r3, r3
    4c80:	80e3      	strh	r3, [r4, #6]
    4c82:	4822      	ldr	r0, [pc, #136]	; (4d0c <socket+0xfc>)
    4c84:	47b8      	blx	r7
    4c86:	8832      	ldrh	r2, [r6, #0]
    4c88:	0029      	movs	r1, r5
    4c8a:	b292      	uxth	r2, r2
    4c8c:	4820      	ldr	r0, [pc, #128]	; (4d10 <socket+0x100>)
    4c8e:	47b8      	blx	r7
    4c90:	4b20      	ldr	r3, [pc, #128]	; (4d14 <socket+0x104>)
    4c92:	200d      	movs	r0, #13
    4c94:	4798      	blx	r3
    4c96:	9b05      	ldr	r3, [sp, #20]
    4c98:	07db      	lsls	r3, r3, #31
    4c9a:	d5c0      	bpl.n	4c1e <socket+0xe>
    4c9c:	2321      	movs	r3, #33	; 0x21
    4c9e:	72e3      	strb	r3, [r4, #11]
    4ca0:	2300      	movs	r3, #0
    4ca2:	aa07      	add	r2, sp, #28
    4ca4:	7015      	strb	r5, [r2, #0]
    4ca6:	2150      	movs	r1, #80	; 0x50
    4ca8:	9302      	str	r3, [sp, #8]
    4caa:	9301      	str	r3, [sp, #4]
    4cac:	9300      	str	r3, [sp, #0]
    4cae:	4c1a      	ldr	r4, [pc, #104]	; (4d18 <socket+0x108>)
    4cb0:	3304      	adds	r3, #4
    4cb2:	2002      	movs	r0, #2
    4cb4:	47a0      	blx	r4
    4cb6:	e7b2      	b.n	4c1e <socket+0xe>
    4cb8:	3e01      	subs	r6, #1
    4cba:	b2f6      	uxtb	r6, r6
    4cbc:	2e00      	cmp	r6, #0
    4cbe:	d1b5      	bne.n	4c2c <socket+0x1c>
    4cc0:	e7ab      	b.n	4c1a <socket+0xa>
    4cc2:	2902      	cmp	r1, #2
    4cc4:	d1a9      	bne.n	4c1a <socket+0xa>
    4cc6:	2304      	movs	r3, #4
    4cc8:	2603      	movs	r6, #3
    4cca:	4914      	ldr	r1, [pc, #80]	; (4d1c <socket+0x10c>)
    4ccc:	4814      	ldr	r0, [pc, #80]	; (4d20 <socket+0x110>)
    4cce:	780d      	ldrb	r5, [r1, #0]
    4cd0:	780c      	ldrb	r4, [r1, #0]
    4cd2:	780a      	ldrb	r2, [r1, #0]
    4cd4:	0124      	lsls	r4, r4, #4
    4cd6:	3201      	adds	r2, #1
    4cd8:	4032      	ands	r2, r6
    4cda:	1824      	adds	r4, r4, r0
    4cdc:	700a      	strb	r2, [r1, #0]
    4cde:	7aa2      	ldrb	r2, [r4, #10]
    4ce0:	b2ed      	uxtb	r5, r5
    4ce2:	2a00      	cmp	r2, #0
    4ce4:	d101      	bne.n	4cea <socket+0xda>
    4ce6:	3507      	adds	r5, #7
    4ce8:	e7b1      	b.n	4c4e <socket+0x3e>
    4cea:	3b01      	subs	r3, #1
    4cec:	b2db      	uxtb	r3, r3
    4cee:	2b00      	cmp	r3, #0
    4cf0:	d1ed      	bne.n	4cce <socket+0xbe>
    4cf2:	e792      	b.n	4c1a <socket+0xa>
    4cf4:	2000022c 	.word	0x2000022c
    4cf8:	00009819 	.word	0x00009819
    4cfc:	20001770 	.word	0x20001770
    4d00:	00002a93 	.word	0x00002a93
    4d04:	2000022a 	.word	0x2000022a
    4d08:	0000b36d 	.word	0x0000b36d
    4d0c:	0000cc1e 	.word	0x0000cc1e
    4d10:	0000d60d 	.word	0x0000d60d
    4d14:	0000b3a1 	.word	0x0000b3a1
    4d18:	00002b89 	.word	0x00002b89
    4d1c:	2000022d 	.word	0x2000022d
    4d20:	200017e0 	.word	0x200017e0

00004d24 <connect>:
    4d24:	b5f0      	push	{r4, r5, r6, r7, lr}
    4d26:	0014      	movs	r4, r2
    4d28:	b089      	sub	sp, #36	; 0x24
    4d2a:	2800      	cmp	r0, #0
    4d2c:	db2d      	blt.n	4d8a <connect+0x66>
    4d2e:	2900      	cmp	r1, #0
    4d30:	d02b      	beq.n	4d8a <connect+0x66>
    4d32:	4b17      	ldr	r3, [pc, #92]	; (4d90 <connect+0x6c>)
    4d34:	0107      	lsls	r7, r0, #4
    4d36:	19da      	adds	r2, r3, r7
    4d38:	7a93      	ldrb	r3, [r2, #10]
    4d3a:	b2db      	uxtb	r3, r3
    4d3c:	2b01      	cmp	r3, #1
    4d3e:	d124      	bne.n	4d8a <connect+0x66>
    4d40:	2c00      	cmp	r4, #0
    4d42:	d022      	beq.n	4d8a <connect+0x66>
    4d44:	7ad4      	ldrb	r4, [r2, #11]
    4d46:	2644      	movs	r6, #68	; 0x44
    4d48:	46a4      	mov	ip, r4
    4d4a:	4665      	mov	r5, ip
    4d4c:	ac05      	add	r4, sp, #20
    4d4e:	421d      	tst	r5, r3
    4d50:	d002      	beq.n	4d58 <connect+0x34>
    4d52:	7ad3      	ldrb	r3, [r2, #11]
    4d54:	3607      	adds	r6, #7
    4d56:	7263      	strb	r3, [r4, #9]
    4d58:	7220      	strb	r0, [r4, #8]
    4d5a:	2208      	movs	r2, #8
    4d5c:	0020      	movs	r0, r4
    4d5e:	4b0d      	ldr	r3, [pc, #52]	; (4d94 <connect+0x70>)
    4d60:	4798      	blx	r3
    4d62:	4b0b      	ldr	r3, [pc, #44]	; (4d90 <connect+0x6c>)
    4d64:	0022      	movs	r2, r4
    4d66:	19dd      	adds	r5, r3, r7
    4d68:	88eb      	ldrh	r3, [r5, #6]
    4d6a:	0031      	movs	r1, r6
    4d6c:	8163      	strh	r3, [r4, #10]
    4d6e:	2300      	movs	r3, #0
    4d70:	2002      	movs	r0, #2
    4d72:	9302      	str	r3, [sp, #8]
    4d74:	9301      	str	r3, [sp, #4]
    4d76:	9300      	str	r3, [sp, #0]
    4d78:	4c07      	ldr	r4, [pc, #28]	; (4d98 <connect+0x74>)
    4d7a:	330c      	adds	r3, #12
    4d7c:	47a0      	blx	r4
    4d7e:	2800      	cmp	r0, #0
    4d80:	d001      	beq.n	4d86 <connect+0x62>
    4d82:	2009      	movs	r0, #9
    4d84:	4240      	negs	r0, r0
    4d86:	b009      	add	sp, #36	; 0x24
    4d88:	bdf0      	pop	{r4, r5, r6, r7, pc}
    4d8a:	2006      	movs	r0, #6
    4d8c:	e7fa      	b.n	4d84 <connect+0x60>
    4d8e:	46c0      	nop			; (mov r8, r8)
    4d90:	20001770 	.word	0x20001770
    4d94:	00002a81 	.word	0x00002a81
    4d98:	00002b89 	.word	0x00002b89

00004d9c <send>:
    4d9c:	b570      	push	{r4, r5, r6, lr}
    4d9e:	b088      	sub	sp, #32
    4da0:	2800      	cmp	r0, #0
    4da2:	db2d      	blt.n	4e00 <send+0x64>
    4da4:	2900      	cmp	r1, #0
    4da6:	d02b      	beq.n	4e00 <send+0x64>
    4da8:	23af      	movs	r3, #175	; 0xaf
    4daa:	00db      	lsls	r3, r3, #3
    4dac:	429a      	cmp	r2, r3
    4dae:	d827      	bhi.n	4e00 <send+0x64>
    4db0:	4c14      	ldr	r4, [pc, #80]	; (4e04 <send+0x68>)
    4db2:	0106      	lsls	r6, r0, #4
    4db4:	19a3      	adds	r3, r4, r6
    4db6:	7a9d      	ldrb	r5, [r3, #10]
    4db8:	2d01      	cmp	r5, #1
    4dba:	d121      	bne.n	4e00 <send+0x64>
    4dbc:	88db      	ldrh	r3, [r3, #6]
    4dbe:	ad04      	add	r5, sp, #16
    4dc0:	81ab      	strh	r3, [r5, #12]
    4dc2:	7028      	strb	r0, [r5, #0]
    4dc4:	806a      	strh	r2, [r5, #2]
    4dc6:	2350      	movs	r3, #80	; 0x50
    4dc8:	2806      	cmp	r0, #6
    4dca:	dd00      	ble.n	4dce <send+0x32>
    4dcc:	3b0c      	subs	r3, #12
    4dce:	19a0      	adds	r0, r4, r6
    4dd0:	7ac6      	ldrb	r6, [r0, #11]
    4dd2:	2445      	movs	r4, #69	; 0x45
    4dd4:	07f6      	lsls	r6, r6, #31
    4dd6:	d502      	bpl.n	4dde <send+0x42>
    4dd8:	8903      	ldrh	r3, [r0, #8]
    4dda:	3407      	adds	r4, #7
    4ddc:	b29b      	uxth	r3, r3
    4dde:	2080      	movs	r0, #128	; 0x80
    4de0:	4304      	orrs	r4, r0
    4de2:	9302      	str	r3, [sp, #8]
    4de4:	9201      	str	r2, [sp, #4]
    4de6:	9100      	str	r1, [sp, #0]
    4de8:	2310      	movs	r3, #16
    4dea:	0021      	movs	r1, r4
    4dec:	002a      	movs	r2, r5
    4dee:	387e      	subs	r0, #126	; 0x7e
    4df0:	4c05      	ldr	r4, [pc, #20]	; (4e08 <send+0x6c>)
    4df2:	47a0      	blx	r4
    4df4:	2800      	cmp	r0, #0
    4df6:	d001      	beq.n	4dfc <send+0x60>
    4df8:	200e      	movs	r0, #14
    4dfa:	4240      	negs	r0, r0
    4dfc:	b008      	add	sp, #32
    4dfe:	bd70      	pop	{r4, r5, r6, pc}
    4e00:	2006      	movs	r0, #6
    4e02:	e7fa      	b.n	4dfa <send+0x5e>
    4e04:	20001770 	.word	0x20001770
    4e08:	00002b89 	.word	0x00002b89

00004e0c <recv>:
    4e0c:	b5f0      	push	{r4, r5, r6, r7, lr}
    4e0e:	0007      	movs	r7, r0
    4e10:	b087      	sub	sp, #28
    4e12:	0010      	movs	r0, r2
    4e14:	001a      	movs	r2, r3
    4e16:	2f00      	cmp	r7, #0
    4e18:	db2d      	blt.n	4e76 <recv+0x6a>
    4e1a:	2900      	cmp	r1, #0
    4e1c:	d02b      	beq.n	4e76 <recv+0x6a>
    4e1e:	2800      	cmp	r0, #0
    4e20:	d029      	beq.n	4e76 <recv+0x6a>
    4e22:	4c16      	ldr	r4, [pc, #88]	; (4e7c <recv+0x70>)
    4e24:	013b      	lsls	r3, r7, #4
    4e26:	18e6      	adds	r6, r4, r3
    4e28:	7ab5      	ldrb	r5, [r6, #10]
    4e2a:	b2ed      	uxtb	r5, r5
    4e2c:	2d01      	cmp	r5, #1
    4e2e:	d122      	bne.n	4e76 <recv+0x6a>
    4e30:	5119      	str	r1, [r3, r4]
    4e32:	80b0      	strh	r0, [r6, #4]
    4e34:	2000      	movs	r0, #0
    4e36:	7b31      	ldrb	r1, [r6, #12]
    4e38:	4281      	cmp	r1, r0
    4e3a:	d11a      	bne.n	4e72 <recv+0x66>
    4e3c:	7335      	strb	r5, [r6, #12]
    4e3e:	7af0      	ldrb	r0, [r6, #11]
    4e40:	2146      	movs	r1, #70	; 0x46
    4e42:	4228      	tst	r0, r5
    4e44:	d000      	beq.n	4e48 <recv+0x3c>
    4e46:	3107      	adds	r1, #7
    4e48:	2a00      	cmp	r2, #0
    4e4a:	d100      	bne.n	4e4e <recv+0x42>
    4e4c:	3a01      	subs	r2, #1
    4e4e:	18e4      	adds	r4, r4, r3
    4e50:	88e3      	ldrh	r3, [r4, #6]
    4e52:	9204      	str	r2, [sp, #16]
    4e54:	aa04      	add	r2, sp, #16
    4e56:	80d3      	strh	r3, [r2, #6]
    4e58:	2300      	movs	r3, #0
    4e5a:	7117      	strb	r7, [r2, #4]
    4e5c:	2002      	movs	r0, #2
    4e5e:	9302      	str	r3, [sp, #8]
    4e60:	9301      	str	r3, [sp, #4]
    4e62:	9300      	str	r3, [sp, #0]
    4e64:	4c06      	ldr	r4, [pc, #24]	; (4e80 <recv+0x74>)
    4e66:	3308      	adds	r3, #8
    4e68:	47a0      	blx	r4
    4e6a:	2800      	cmp	r0, #0
    4e6c:	d001      	beq.n	4e72 <recv+0x66>
    4e6e:	200e      	movs	r0, #14
    4e70:	4240      	negs	r0, r0
    4e72:	b007      	add	sp, #28
    4e74:	bdf0      	pop	{r4, r5, r6, r7, pc}
    4e76:	2006      	movs	r0, #6
    4e78:	e7fa      	b.n	4e70 <recv+0x64>
    4e7a:	46c0      	nop			; (mov r8, r8)
    4e7c:	20001770 	.word	0x20001770
    4e80:	00002b89 	.word	0x00002b89

00004e84 <close>:
    4e84:	b570      	push	{r4, r5, r6, lr}
    4e86:	0006      	movs	r6, r0
    4e88:	b086      	sub	sp, #24
    4e8a:	4c1a      	ldr	r4, [pc, #104]	; (4ef4 <close+0x70>)
    4e8c:	481a      	ldr	r0, [pc, #104]	; (4ef8 <close+0x74>)
    4e8e:	47a0      	blx	r4
    4e90:	0031      	movs	r1, r6
    4e92:	481a      	ldr	r0, [pc, #104]	; (4efc <close+0x78>)
    4e94:	47a0      	blx	r4
    4e96:	200d      	movs	r0, #13
    4e98:	4b19      	ldr	r3, [pc, #100]	; (4f00 <close+0x7c>)
    4e9a:	4798      	blx	r3
    4e9c:	2e00      	cmp	r6, #0
    4e9e:	db25      	blt.n	4eec <close+0x68>
    4ea0:	4c18      	ldr	r4, [pc, #96]	; (4f04 <close+0x80>)
    4ea2:	0135      	lsls	r5, r6, #4
    4ea4:	1961      	adds	r1, r4, r5
    4ea6:	7a88      	ldrb	r0, [r1, #10]
    4ea8:	b2c0      	uxtb	r0, r0
    4eaa:	2801      	cmp	r0, #1
    4eac:	d11e      	bne.n	4eec <close+0x68>
    4eae:	88cb      	ldrh	r3, [r1, #6]
    4eb0:	aa05      	add	r2, sp, #20
    4eb2:	8053      	strh	r3, [r2, #2]
    4eb4:	2300      	movs	r3, #0
    4eb6:	728b      	strb	r3, [r1, #10]
    4eb8:	80cb      	strh	r3, [r1, #6]
    4eba:	7016      	strb	r6, [r2, #0]
    4ebc:	7ace      	ldrb	r6, [r1, #11]
    4ebe:	2149      	movs	r1, #73	; 0x49
    4ec0:	4206      	tst	r6, r0
    4ec2:	d000      	beq.n	4ec6 <close+0x42>
    4ec4:	3105      	adds	r1, #5
    4ec6:	9302      	str	r3, [sp, #8]
    4ec8:	9301      	str	r3, [sp, #4]
    4eca:	9300      	str	r3, [sp, #0]
    4ecc:	4e0e      	ldr	r6, [pc, #56]	; (4f08 <close+0x84>)
    4ece:	2304      	movs	r3, #4
    4ed0:	2002      	movs	r0, #2
    4ed2:	47b0      	blx	r6
    4ed4:	1e06      	subs	r6, r0, #0
    4ed6:	d001      	beq.n	4edc <close+0x58>
    4ed8:	2609      	movs	r6, #9
    4eda:	4276      	negs	r6, r6
    4edc:	1960      	adds	r0, r4, r5
    4ede:	2210      	movs	r2, #16
    4ee0:	2100      	movs	r1, #0
    4ee2:	4b0a      	ldr	r3, [pc, #40]	; (4f0c <close+0x88>)
    4ee4:	4798      	blx	r3
    4ee6:	0030      	movs	r0, r6
    4ee8:	b006      	add	sp, #24
    4eea:	bd70      	pop	{r4, r5, r6, pc}
    4eec:	2606      	movs	r6, #6
    4eee:	4276      	negs	r6, r6
    4ef0:	e7f9      	b.n	4ee6 <close+0x62>
    4ef2:	46c0      	nop			; (mov r8, r8)
    4ef4:	0000b36d 	.word	0x0000b36d
    4ef8:	0000cc1e 	.word	0x0000cc1e
    4efc:	0000d5f8 	.word	0x0000d5f8
    4f00:	0000b3a1 	.word	0x0000b3a1
    4f04:	20001770 	.word	0x20001770
    4f08:	00002b89 	.word	0x00002b89
    4f0c:	00002a93 	.word	0x00002a93

00004f10 <nmi_inet_addr>:
    4f10:	b5f7      	push	{r0, r1, r2, r4, r5, r6, r7, lr}
    4f12:	2200      	movs	r2, #0
    4f14:	250a      	movs	r5, #10
    4f16:	0013      	movs	r3, r2
    4f18:	9200      	str	r2, [sp, #0]
    4f1a:	ac01      	add	r4, sp, #4
    4f1c:	1d06      	adds	r6, r0, #4
    4f1e:	42b0      	cmp	r0, r6
    4f20:	d01e      	beq.n	4f60 <nmi_inet_addr+0x50>
    4f22:	7801      	ldrb	r1, [r0, #0]
    4f24:	292e      	cmp	r1, #46	; 0x2e
    4f26:	d001      	beq.n	4f2c <nmi_inet_addr+0x1c>
    4f28:	2900      	cmp	r1, #0
    4f2a:	d10d      	bne.n	4f48 <nmi_inet_addr+0x38>
    4f2c:	5513      	strb	r3, [r2, r4]
    4f2e:	2300      	movs	r3, #0
    4f30:	3001      	adds	r0, #1
    4f32:	292e      	cmp	r1, #46	; 0x2e
    4f34:	d111      	bne.n	4f5a <nmi_inet_addr+0x4a>
    4f36:	3201      	adds	r2, #1
    4f38:	2a04      	cmp	r2, #4
    4f3a:	d1ef      	bne.n	4f1c <nmi_inet_addr+0xc>
    4f3c:	4668      	mov	r0, sp
    4f3e:	a901      	add	r1, sp, #4
    4f40:	4b08      	ldr	r3, [pc, #32]	; (4f64 <nmi_inet_addr+0x54>)
    4f42:	4798      	blx	r3
    4f44:	9800      	ldr	r0, [sp, #0]
    4f46:	bdfe      	pop	{r1, r2, r3, r4, r5, r6, r7, pc}
    4f48:	000f      	movs	r7, r1
    4f4a:	3f30      	subs	r7, #48	; 0x30
    4f4c:	2f09      	cmp	r7, #9
    4f4e:	d807      	bhi.n	4f60 <nmi_inet_addr+0x50>
    4f50:	436b      	muls	r3, r5
    4f52:	18cb      	adds	r3, r1, r3
    4f54:	3b30      	subs	r3, #48	; 0x30
    4f56:	b2db      	uxtb	r3, r3
    4f58:	e7ea      	b.n	4f30 <nmi_inet_addr+0x20>
    4f5a:	2900      	cmp	r1, #0
    4f5c:	d1df      	bne.n	4f1e <nmi_inet_addr+0xe>
    4f5e:	e7ea      	b.n	4f36 <nmi_inet_addr+0x26>
    4f60:	2000      	movs	r0, #0
    4f62:	e7f0      	b.n	4f46 <nmi_inet_addr+0x36>
    4f64:	00002a81 	.word	0x00002a81

00004f68 <gethostbyname>:
    4f68:	b51f      	push	{r0, r1, r2, r3, r4, lr}
    4f6a:	4b0a      	ldr	r3, [pc, #40]	; (4f94 <gethostbyname+0x2c>)
    4f6c:	0004      	movs	r4, r0
    4f6e:	4798      	blx	r3
    4f70:	b2c3      	uxtb	r3, r0
    4f72:	2b40      	cmp	r3, #64	; 0x40
    4f74:	d80b      	bhi.n	4f8e <gethostbyname+0x26>
    4f76:	2200      	movs	r2, #0
    4f78:	3301      	adds	r3, #1
    4f7a:	9202      	str	r2, [sp, #8]
    4f7c:	9201      	str	r2, [sp, #4]
    4f7e:	9200      	str	r2, [sp, #0]
    4f80:	214a      	movs	r1, #74	; 0x4a
    4f82:	0022      	movs	r2, r4
    4f84:	2002      	movs	r0, #2
    4f86:	4c04      	ldr	r4, [pc, #16]	; (4f98 <gethostbyname+0x30>)
    4f88:	47a0      	blx	r4
    4f8a:	b004      	add	sp, #16
    4f8c:	bd10      	pop	{r4, pc}
    4f8e:	2006      	movs	r0, #6
    4f90:	4240      	negs	r0, r0
    4f92:	e7fa      	b.n	4f8a <gethostbyname+0x22>
    4f94:	00002aa3 	.word	0x00002aa3
    4f98:	00002b89 	.word	0x00002b89

00004f9c <spi_flash_enable>:
    4f9c:	b5f0      	push	{r4, r5, r6, r7, lr}
    4f9e:	4b27      	ldr	r3, [pc, #156]	; (503c <spi_flash_enable+0xa0>)
    4fa0:	b085      	sub	sp, #20
    4fa2:	0007      	movs	r7, r0
    4fa4:	4798      	blx	r3
    4fa6:	4b26      	ldr	r3, [pc, #152]	; (5040 <spi_flash_enable+0xa4>)
    4fa8:	0500      	lsls	r0, r0, #20
    4faa:	0d00      	lsrs	r0, r0, #20
    4fac:	2500      	movs	r5, #0
    4fae:	4298      	cmp	r0, r3
    4fb0:	d92e      	bls.n	5010 <spi_flash_enable+0x74>
    4fb2:	a903      	add	r1, sp, #12
    4fb4:	4823      	ldr	r0, [pc, #140]	; (5044 <spi_flash_enable+0xa8>)
    4fb6:	4b24      	ldr	r3, [pc, #144]	; (5048 <spi_flash_enable+0xac>)
    4fb8:	4798      	blx	r3
    4fba:	1e05      	subs	r5, r0, #0
    4fbc:	d128      	bne.n	5010 <spi_flash_enable+0x74>
    4fbe:	4e23      	ldr	r6, [pc, #140]	; (504c <spi_flash_enable+0xb0>)
    4fc0:	9b03      	ldr	r3, [sp, #12]
    4fc2:	4923      	ldr	r1, [pc, #140]	; (5050 <spi_flash_enable+0xb4>)
    4fc4:	4033      	ands	r3, r6
    4fc6:	4319      	orrs	r1, r3
    4fc8:	481e      	ldr	r0, [pc, #120]	; (5044 <spi_flash_enable+0xa8>)
    4fca:	4c22      	ldr	r4, [pc, #136]	; (5054 <spi_flash_enable+0xb8>)
    4fcc:	9103      	str	r1, [sp, #12]
    4fce:	47a0      	blx	r4
    4fd0:	9601      	str	r6, [sp, #4]
    4fd2:	0029      	movs	r1, r5
    4fd4:	4e20      	ldr	r6, [pc, #128]	; (5058 <spi_flash_enable+0xbc>)
    4fd6:	4821      	ldr	r0, [pc, #132]	; (505c <spi_flash_enable+0xc0>)
    4fd8:	2f00      	cmp	r7, #0
    4fda:	d01c      	beq.n	5016 <spi_flash_enable+0x7a>
    4fdc:	47a0      	blx	r4
    4fde:	21ab      	movs	r1, #171	; 0xab
    4fe0:	481f      	ldr	r0, [pc, #124]	; (5060 <spi_flash_enable+0xc4>)
    4fe2:	47a0      	blx	r4
    4fe4:	2101      	movs	r1, #1
    4fe6:	481f      	ldr	r0, [pc, #124]	; (5064 <spi_flash_enable+0xc8>)
    4fe8:	47a0      	blx	r4
    4fea:	0029      	movs	r1, r5
    4fec:	481e      	ldr	r0, [pc, #120]	; (5068 <spi_flash_enable+0xcc>)
    4fee:	47a0      	blx	r4
    4ff0:	2181      	movs	r1, #129	; 0x81
    4ff2:	481e      	ldr	r0, [pc, #120]	; (506c <spi_flash_enable+0xd0>)
    4ff4:	47a0      	blx	r4
    4ff6:	481e      	ldr	r0, [pc, #120]	; (5070 <spi_flash_enable+0xd4>)
    4ff8:	47b0      	blx	r6
    4ffa:	2801      	cmp	r0, #1
    4ffc:	d1fb      	bne.n	4ff6 <spi_flash_enable+0x5a>
    4ffe:	2180      	movs	r1, #128	; 0x80
    5000:	9a03      	ldr	r2, [sp, #12]
    5002:	9b01      	ldr	r3, [sp, #4]
    5004:	0249      	lsls	r1, r1, #9
    5006:	4013      	ands	r3, r2
    5008:	4319      	orrs	r1, r3
    500a:	480e      	ldr	r0, [pc, #56]	; (5044 <spi_flash_enable+0xa8>)
    500c:	9103      	str	r1, [sp, #12]
    500e:	47a0      	blx	r4
    5010:	0028      	movs	r0, r5
    5012:	b005      	add	sp, #20
    5014:	bdf0      	pop	{r4, r5, r6, r7, pc}
    5016:	47a0      	blx	r4
    5018:	21b9      	movs	r1, #185	; 0xb9
    501a:	4811      	ldr	r0, [pc, #68]	; (5060 <spi_flash_enable+0xc4>)
    501c:	47a0      	blx	r4
    501e:	2101      	movs	r1, #1
    5020:	4810      	ldr	r0, [pc, #64]	; (5064 <spi_flash_enable+0xc8>)
    5022:	47a0      	blx	r4
    5024:	0029      	movs	r1, r5
    5026:	4810      	ldr	r0, [pc, #64]	; (5068 <spi_flash_enable+0xcc>)
    5028:	47a0      	blx	r4
    502a:	2181      	movs	r1, #129	; 0x81
    502c:	480f      	ldr	r0, [pc, #60]	; (506c <spi_flash_enable+0xd0>)
    502e:	47a0      	blx	r4
    5030:	480f      	ldr	r0, [pc, #60]	; (5070 <spi_flash_enable+0xd4>)
    5032:	47b0      	blx	r6
    5034:	2801      	cmp	r0, #1
    5036:	d1fb      	bne.n	5030 <spi_flash_enable+0x94>
    5038:	e7e1      	b.n	4ffe <spi_flash_enable+0x62>
    503a:	46c0      	nop			; (mov r8, r8)
    503c:	00003759 	.word	0x00003759
    5040:	0000039f 	.word	0x0000039f
    5044:	00001410 	.word	0x00001410
    5048:	00003b2d 	.word	0x00003b2d
    504c:	f8888fff 	.word	0xf8888fff
    5050:	01111000 	.word	0x01111000
    5054:	00003b39 	.word	0x00003b39
    5058:	00003b21 	.word	0x00003b21
    505c:	00010208 	.word	0x00010208
    5060:	0001020c 	.word	0x0001020c
    5064:	00010214 	.word	0x00010214
    5068:	0001021c 	.word	0x0001021c
    506c:	00010204 	.word	0x00010204
    5070:	00010218 	.word	0x00010218

00005074 <extint_register_callback>:
    5074:	b510      	push	{r4, lr}
    5076:	2317      	movs	r3, #23
    5078:	2a00      	cmp	r2, #0
    507a:	d106      	bne.n	508a <extint_register_callback+0x16>
    507c:	4b06      	ldr	r3, [pc, #24]	; (5098 <extint_register_callback+0x24>)
    507e:	0089      	lsls	r1, r1, #2
    5080:	58cc      	ldr	r4, [r1, r3]
    5082:	2c00      	cmp	r4, #0
    5084:	d103      	bne.n	508e <extint_register_callback+0x1a>
    5086:	50c8      	str	r0, [r1, r3]
    5088:	0023      	movs	r3, r4
    508a:	0018      	movs	r0, r3
    508c:	bd10      	pop	{r4, pc}
    508e:	0013      	movs	r3, r2
    5090:	4284      	cmp	r4, r0
    5092:	d0fa      	beq.n	508a <extint_register_callback+0x16>
    5094:	231d      	movs	r3, #29
    5096:	e7f8      	b.n	508a <extint_register_callback+0x16>
    5098:	20001830 	.word	0x20001830

0000509c <extint_chan_enable_callback>:
    509c:	2317      	movs	r3, #23
    509e:	2900      	cmp	r1, #0
    50a0:	d106      	bne.n	50b0 <extint_chan_enable_callback+0x14>
    50a2:	281f      	cmp	r0, #31
    50a4:	d806      	bhi.n	50b4 <extint_chan_enable_callback+0x18>
    50a6:	3b16      	subs	r3, #22
    50a8:	4083      	lsls	r3, r0
    50aa:	4a03      	ldr	r2, [pc, #12]	; (50b8 <extint_chan_enable_callback+0x1c>)
    50ac:	60d3      	str	r3, [r2, #12]
    50ae:	000b      	movs	r3, r1
    50b0:	0018      	movs	r0, r3
    50b2:	4770      	bx	lr
    50b4:	60c9      	str	r1, [r1, #12]
    50b6:	deff      	udf	#255	; 0xff
    50b8:	40001800 	.word	0x40001800

000050bc <extint_chan_disable_callback>:
    50bc:	2317      	movs	r3, #23
    50be:	2900      	cmp	r1, #0
    50c0:	d106      	bne.n	50d0 <extint_chan_disable_callback+0x14>
    50c2:	281f      	cmp	r0, #31
    50c4:	d806      	bhi.n	50d4 <extint_chan_disable_callback+0x18>
    50c6:	3b16      	subs	r3, #22
    50c8:	4083      	lsls	r3, r0
    50ca:	4a03      	ldr	r2, [pc, #12]	; (50d8 <extint_chan_disable_callback+0x1c>)
    50cc:	6093      	str	r3, [r2, #8]
    50ce:	000b      	movs	r3, r1
    50d0:	0018      	movs	r0, r3
    50d2:	4770      	bx	lr
    50d4:	6089      	str	r1, [r1, #8]
    50d6:	deff      	udf	#255	; 0xff
    50d8:	40001800 	.word	0x40001800

000050dc <EIC_Handler>:
    50dc:	2300      	movs	r3, #0
    50de:	b570      	push	{r4, r5, r6, lr}
    50e0:	2501      	movs	r5, #1
    50e2:	4c0b      	ldr	r4, [pc, #44]	; (5110 <EIC_Handler+0x34>)
    50e4:	7023      	strb	r3, [r4, #0]
    50e6:	7823      	ldrb	r3, [r4, #0]
    50e8:	2b0f      	cmp	r3, #15
    50ea:	d900      	bls.n	50ee <EIC_Handler+0x12>
    50ec:	bd70      	pop	{r4, r5, r6, pc}
    50ee:	0029      	movs	r1, r5
    50f0:	4099      	lsls	r1, r3
    50f2:	4a08      	ldr	r2, [pc, #32]	; (5114 <EIC_Handler+0x38>)
    50f4:	6910      	ldr	r0, [r2, #16]
    50f6:	4208      	tst	r0, r1
    50f8:	d006      	beq.n	5108 <EIC_Handler+0x2c>
    50fa:	6111      	str	r1, [r2, #16]
    50fc:	4a06      	ldr	r2, [pc, #24]	; (5118 <EIC_Handler+0x3c>)
    50fe:	009b      	lsls	r3, r3, #2
    5100:	589b      	ldr	r3, [r3, r2]
    5102:	2b00      	cmp	r3, #0
    5104:	d000      	beq.n	5108 <EIC_Handler+0x2c>
    5106:	4798      	blx	r3
    5108:	7823      	ldrb	r3, [r4, #0]
    510a:	3301      	adds	r3, #1
    510c:	7023      	strb	r3, [r4, #0]
    510e:	e7ea      	b.n	50e6 <EIC_Handler+0xa>
    5110:	2000182c 	.word	0x2000182c
    5114:	40001800 	.word	0x40001800
    5118:	20001830 	.word	0x20001830

0000511c <extint_is_syncing>:
    511c:	4b01      	ldr	r3, [pc, #4]	; (5124 <extint_is_syncing+0x8>)
    511e:	7858      	ldrb	r0, [r3, #1]
    5120:	09c0      	lsrs	r0, r0, #7
    5122:	4770      	bx	lr
    5124:	40001800 	.word	0x40001800

00005128 <_extint_enable>:
    5128:	2302      	movs	r3, #2
    512a:	b510      	push	{r4, lr}
    512c:	4a04      	ldr	r2, [pc, #16]	; (5140 <_extint_enable+0x18>)
    512e:	7811      	ldrb	r1, [r2, #0]
    5130:	430b      	orrs	r3, r1
    5132:	7013      	strb	r3, [r2, #0]
    5134:	4b03      	ldr	r3, [pc, #12]	; (5144 <_extint_enable+0x1c>)
    5136:	4798      	blx	r3
    5138:	2800      	cmp	r0, #0
    513a:	d1fb      	bne.n	5134 <_extint_enable+0xc>
    513c:	bd10      	pop	{r4, pc}
    513e:	46c0      	nop			; (mov r8, r8)
    5140:	40001800 	.word	0x40001800
    5144:	0000511d 	.word	0x0000511d

00005148 <_system_extint_init>:
    5148:	2340      	movs	r3, #64	; 0x40
    514a:	b507      	push	{r0, r1, r2, lr}
    514c:	4a10      	ldr	r2, [pc, #64]	; (5190 <_system_extint_init+0x48>)
    514e:	2005      	movs	r0, #5
    5150:	6991      	ldr	r1, [r2, #24]
    5152:	430b      	orrs	r3, r1
    5154:	6193      	str	r3, [r2, #24]
    5156:	2300      	movs	r3, #0
    5158:	a901      	add	r1, sp, #4
    515a:	700b      	strb	r3, [r1, #0]
    515c:	4b0d      	ldr	r3, [pc, #52]	; (5194 <_system_extint_init+0x4c>)
    515e:	4798      	blx	r3
    5160:	4b0d      	ldr	r3, [pc, #52]	; (5198 <_system_extint_init+0x50>)
    5162:	2005      	movs	r0, #5
    5164:	4798      	blx	r3
    5166:	2301      	movs	r3, #1
    5168:	4a0c      	ldr	r2, [pc, #48]	; (519c <_system_extint_init+0x54>)
    516a:	7811      	ldrb	r1, [r2, #0]
    516c:	430b      	orrs	r3, r1
    516e:	7013      	strb	r3, [r2, #0]
    5170:	4b0b      	ldr	r3, [pc, #44]	; (51a0 <_system_extint_init+0x58>)
    5172:	4798      	blx	r3
    5174:	2800      	cmp	r0, #0
    5176:	d1fb      	bne.n	5170 <_system_extint_init+0x28>
    5178:	0002      	movs	r2, r0
    517a:	4b0a      	ldr	r3, [pc, #40]	; (51a4 <_system_extint_init+0x5c>)
    517c:	501a      	str	r2, [r3, r0]
    517e:	3004      	adds	r0, #4
    5180:	2840      	cmp	r0, #64	; 0x40
    5182:	d1fb      	bne.n	517c <_system_extint_init+0x34>
    5184:	2210      	movs	r2, #16
    5186:	4b08      	ldr	r3, [pc, #32]	; (51a8 <_system_extint_init+0x60>)
    5188:	601a      	str	r2, [r3, #0]
    518a:	4b08      	ldr	r3, [pc, #32]	; (51ac <_system_extint_init+0x64>)
    518c:	4798      	blx	r3
    518e:	bd07      	pop	{r0, r1, r2, pc}
    5190:	40000400 	.word	0x40000400
    5194:	0000774d 	.word	0x0000774d
    5198:	000076c5 	.word	0x000076c5
    519c:	40001800 	.word	0x40001800
    51a0:	0000511d 	.word	0x0000511d
    51a4:	20001830 	.word	0x20001830
    51a8:	e000e100 	.word	0xe000e100
    51ac:	00005129 	.word	0x00005129

000051b0 <extint_chan_get_config_defaults>:
    51b0:	2300      	movs	r3, #0
    51b2:	2201      	movs	r2, #1
    51b4:	6003      	str	r3, [r0, #0]
    51b6:	6043      	str	r3, [r0, #4]
    51b8:	7283      	strb	r3, [r0, #10]
    51ba:	3302      	adds	r3, #2
    51bc:	7202      	strb	r2, [r0, #8]
    51be:	7242      	strb	r2, [r0, #9]
    51c0:	72c3      	strb	r3, [r0, #11]
    51c2:	4770      	bx	lr

000051c4 <extint_chan_set_config>:
    51c4:	b5f7      	push	{r0, r1, r2, r4, r5, r6, r7, lr}
    51c6:	000c      	movs	r4, r1
    51c8:	2600      	movs	r6, #0
    51ca:	7923      	ldrb	r3, [r4, #4]
    51cc:	a901      	add	r1, sp, #4
    51ce:	704e      	strb	r6, [r1, #1]
    51d0:	70ce      	strb	r6, [r1, #3]
    51d2:	700b      	strb	r3, [r1, #0]
    51d4:	7a23      	ldrb	r3, [r4, #8]
    51d6:	0005      	movs	r5, r0
    51d8:	708b      	strb	r3, [r1, #2]
    51da:	7820      	ldrb	r0, [r4, #0]
    51dc:	4b13      	ldr	r3, [pc, #76]	; (522c <extint_chan_set_config+0x68>)
    51de:	4798      	blx	r3
    51e0:	0033      	movs	r3, r6
    51e2:	2d1f      	cmp	r5, #31
    51e4:	d800      	bhi.n	51e8 <extint_chan_set_config+0x24>
    51e6:	4b12      	ldr	r3, [pc, #72]	; (5230 <extint_chan_set_config+0x6c>)
    51e8:	2107      	movs	r1, #7
    51ea:	7aa2      	ldrb	r2, [r4, #10]
    51ec:	4029      	ands	r1, r5
    51ee:	0089      	lsls	r1, r1, #2
    51f0:	7ae6      	ldrb	r6, [r4, #11]
    51f2:	2a00      	cmp	r2, #0
    51f4:	d001      	beq.n	51fa <extint_chan_set_config+0x36>
    51f6:	2208      	movs	r2, #8
    51f8:	4316      	orrs	r6, r2
    51fa:	270f      	movs	r7, #15
    51fc:	408e      	lsls	r6, r1
    51fe:	408f      	lsls	r7, r1
    5200:	0031      	movs	r1, r6
    5202:	08ea      	lsrs	r2, r5, #3
    5204:	0092      	lsls	r2, r2, #2
    5206:	189a      	adds	r2, r3, r2
    5208:	6990      	ldr	r0, [r2, #24]
    520a:	43b8      	bics	r0, r7
    520c:	4301      	orrs	r1, r0
    520e:	6191      	str	r1, [r2, #24]
    5210:	7a61      	ldrb	r1, [r4, #9]
    5212:	2201      	movs	r2, #1
    5214:	2900      	cmp	r1, #0
    5216:	d004      	beq.n	5222 <extint_chan_set_config+0x5e>
    5218:	40aa      	lsls	r2, r5
    521a:	6959      	ldr	r1, [r3, #20]
    521c:	430a      	orrs	r2, r1
    521e:	615a      	str	r2, [r3, #20]
    5220:	bdf7      	pop	{r0, r1, r2, r4, r5, r6, r7, pc}
    5222:	40aa      	lsls	r2, r5
    5224:	6959      	ldr	r1, [r3, #20]
    5226:	4391      	bics	r1, r2
    5228:	6159      	str	r1, [r3, #20]
    522a:	e7f9      	b.n	5220 <extint_chan_set_config+0x5c>
    522c:	00007821 	.word	0x00007821
    5230:	40001800 	.word	0x40001800

00005234 <RTC_Handler>:
    5234:	b570      	push	{r4, r5, r6, lr}
    5236:	4b0e      	ldr	r3, [pc, #56]	; (5270 <RTC_Handler+0x3c>)
    5238:	681b      	ldr	r3, [r3, #0]
    523a:	8a59      	ldrh	r1, [r3, #18]
    523c:	681c      	ldr	r4, [r3, #0]
    523e:	8a1a      	ldrh	r2, [r3, #16]
    5240:	7a20      	ldrb	r0, [r4, #8]
    5242:	400a      	ands	r2, r1
    5244:	79e1      	ldrb	r1, [r4, #7]
    5246:	4001      	ands	r1, r0
    5248:	b248      	sxtb	r0, r1
    524a:	2800      	cmp	r0, #0
    524c:	da06      	bge.n	525c <RTC_Handler+0x28>
    524e:	0792      	lsls	r2, r2, #30
    5250:	d501      	bpl.n	5256 <RTC_Handler+0x22>
    5252:	68db      	ldr	r3, [r3, #12]
    5254:	4798      	blx	r3
    5256:	2380      	movs	r3, #128	; 0x80
    5258:	7223      	strb	r3, [r4, #8]
    525a:	bd70      	pop	{r4, r5, r6, pc}
    525c:	2501      	movs	r5, #1
    525e:	4229      	tst	r1, r5
    5260:	d0fb      	beq.n	525a <RTC_Handler+0x26>
    5262:	422a      	tst	r2, r5
    5264:	d001      	beq.n	526a <RTC_Handler+0x36>
    5266:	689b      	ldr	r3, [r3, #8]
    5268:	4798      	blx	r3
    526a:	7225      	strb	r5, [r4, #8]
    526c:	e7f5      	b.n	525a <RTC_Handler+0x26>
    526e:	46c0      	nop			; (mov r8, r8)
    5270:	20001870 	.word	0x20001870

00005274 <_i2c_master_wait_for_sync>:
    5274:	2307      	movs	r3, #7
    5276:	6801      	ldr	r1, [r0, #0]
    5278:	69ca      	ldr	r2, [r1, #28]
    527a:	421a      	tst	r2, r3
    527c:	d1fc      	bne.n	5278 <_i2c_master_wait_for_sync+0x4>
    527e:	4770      	bx	lr

00005280 <i2c_master_init>:
    5280:	0003      	movs	r3, r0
    5282:	b5f0      	push	{r4, r5, r6, r7, lr}
    5284:	2701      	movs	r7, #1
    5286:	b08d      	sub	sp, #52	; 0x34
    5288:	6019      	str	r1, [r3, #0]
    528a:	9002      	str	r0, [sp, #8]
    528c:	4b92      	ldr	r3, [pc, #584]	; (54d8 <i2c_master_init+0x258>)
    528e:	0008      	movs	r0, r1
    5290:	0016      	movs	r6, r2
    5292:	000d      	movs	r5, r1
    5294:	4798      	blx	r3
    5296:	003c      	movs	r4, r7
    5298:	1c83      	adds	r3, r0, #2
    529a:	409c      	lsls	r4, r3
    529c:	0023      	movs	r3, r4
    529e:	4a8f      	ldr	r2, [pc, #572]	; (54dc <i2c_master_init+0x25c>)
    52a0:	3014      	adds	r0, #20
    52a2:	6a11      	ldr	r1, [r2, #32]
    52a4:	b2c4      	uxtb	r4, r0
    52a6:	430b      	orrs	r3, r1
    52a8:	6213      	str	r3, [r2, #32]
    52aa:	7b33      	ldrb	r3, [r6, #12]
    52ac:	aa0a      	add	r2, sp, #40	; 0x28
    52ae:	7013      	strb	r3, [r2, #0]
    52b0:	0011      	movs	r1, r2
    52b2:	0020      	movs	r0, r4
    52b4:	4b8a      	ldr	r3, [pc, #552]	; (54e0 <i2c_master_init+0x260>)
    52b6:	4798      	blx	r3
    52b8:	0020      	movs	r0, r4
    52ba:	4b8a      	ldr	r3, [pc, #552]	; (54e4 <i2c_master_init+0x264>)
    52bc:	4798      	blx	r3
    52be:	4b8a      	ldr	r3, [pc, #552]	; (54e8 <i2c_master_init+0x268>)
    52c0:	7b30      	ldrb	r0, [r6, #12]
    52c2:	2100      	movs	r1, #0
    52c4:	4798      	blx	r3
    52c6:	682b      	ldr	r3, [r5, #0]
    52c8:	201c      	movs	r0, #28
    52ca:	079b      	lsls	r3, r3, #30
    52cc:	d500      	bpl.n	52d0 <i2c_master_init+0x50>
    52ce:	e0f6      	b.n	54be <i2c_master_init+0x23e>
    52d0:	682c      	ldr	r4, [r5, #0]
    52d2:	3817      	subs	r0, #23
    52d4:	403c      	ands	r4, r7
    52d6:	d000      	beq.n	52da <i2c_master_init+0x5a>
    52d8:	e0f1      	b.n	54be <i2c_master_init+0x23e>
    52da:	2314      	movs	r3, #20
    52dc:	602b      	str	r3, [r5, #0]
    52de:	9b02      	ldr	r3, [sp, #8]
    52e0:	ad0b      	add	r5, sp, #44	; 0x2c
    52e2:	681b      	ldr	r3, [r3, #0]
    52e4:	9301      	str	r3, [sp, #4]
    52e6:	0018      	movs	r0, r3
    52e8:	4b7b      	ldr	r3, [pc, #492]	; (54d8 <i2c_master_init+0x258>)
    52ea:	4798      	blx	r3
    52ec:	2380      	movs	r3, #128	; 0x80
    52ee:	9006      	str	r0, [sp, #24]
    52f0:	69f0      	ldr	r0, [r6, #28]
    52f2:	706c      	strb	r4, [r5, #1]
    52f4:	70ec      	strb	r4, [r5, #3]
    52f6:	702b      	strb	r3, [r5, #0]
    52f8:	70af      	strb	r7, [r5, #2]
    52fa:	6a34      	ldr	r4, [r6, #32]
    52fc:	2800      	cmp	r0, #0
    52fe:	d103      	bne.n	5308 <i2c_master_init+0x88>
    5300:	0001      	movs	r1, r0
    5302:	4b7a      	ldr	r3, [pc, #488]	; (54ec <i2c_master_init+0x26c>)
    5304:	9801      	ldr	r0, [sp, #4]
    5306:	4798      	blx	r3
    5308:	2302      	movs	r3, #2
    530a:	7028      	strb	r0, [r5, #0]
    530c:	0c00      	lsrs	r0, r0, #16
    530e:	706b      	strb	r3, [r5, #1]
    5310:	b2c0      	uxtb	r0, r0
    5312:	0029      	movs	r1, r5
    5314:	4b76      	ldr	r3, [pc, #472]	; (54f0 <i2c_master_init+0x270>)
    5316:	4798      	blx	r3
    5318:	2c00      	cmp	r4, #0
    531a:	d104      	bne.n	5326 <i2c_master_init+0xa6>
    531c:	2101      	movs	r1, #1
    531e:	9801      	ldr	r0, [sp, #4]
    5320:	4b72      	ldr	r3, [pc, #456]	; (54ec <i2c_master_init+0x26c>)
    5322:	4798      	blx	r3
    5324:	0004      	movs	r4, r0
    5326:	2702      	movs	r7, #2
    5328:	702c      	strb	r4, [r5, #0]
    532a:	0c24      	lsrs	r4, r4, #16
    532c:	4b70      	ldr	r3, [pc, #448]	; (54f0 <i2c_master_init+0x270>)
    532e:	b2e0      	uxtb	r0, r4
    5330:	0029      	movs	r1, r5
    5332:	706f      	strb	r7, [r5, #1]
    5334:	4798      	blx	r3
    5336:	8ab3      	ldrh	r3, [r6, #20]
    5338:	9a02      	ldr	r2, [sp, #8]
    533a:	80d3      	strh	r3, [r2, #6]
    533c:	8af3      	ldrh	r3, [r6, #22]
    533e:	8113      	strh	r3, [r2, #8]
    5340:	7e32      	ldrb	r2, [r6, #24]
    5342:	2380      	movs	r3, #128	; 0x80
    5344:	2a00      	cmp	r2, #0
    5346:	d105      	bne.n	5354 <i2c_master_init+0xd4>
    5348:	4b6a      	ldr	r3, [pc, #424]	; (54f4 <i2c_master_init+0x274>)
    534a:	789b      	ldrb	r3, [r3, #2]
    534c:	403b      	ands	r3, r7
    534e:	1e5f      	subs	r7, r3, #1
    5350:	41bb      	sbcs	r3, r7
    5352:	01db      	lsls	r3, r3, #7
    5354:	68b2      	ldr	r2, [r6, #8]
    5356:	6937      	ldr	r7, [r6, #16]
    5358:	4317      	orrs	r7, r2
    535a:	431f      	orrs	r7, r3
    535c:	1d73      	adds	r3, r6, #5
    535e:	7fdb      	ldrb	r3, [r3, #31]
    5360:	2b00      	cmp	r3, #0
    5362:	d002      	beq.n	536a <i2c_master_init+0xea>
    5364:	2380      	movs	r3, #128	; 0x80
    5366:	05db      	lsls	r3, r3, #23
    5368:	431f      	orrs	r7, r3
    536a:	6ab3      	ldr	r3, [r6, #40]	; 0x28
    536c:	431f      	orrs	r7, r3
    536e:	0033      	movs	r3, r6
    5370:	332c      	adds	r3, #44	; 0x2c
    5372:	781b      	ldrb	r3, [r3, #0]
    5374:	2b00      	cmp	r3, #0
    5376:	d103      	bne.n	5380 <i2c_master_init+0x100>
    5378:	2380      	movs	r3, #128	; 0x80
    537a:	049b      	lsls	r3, r3, #18
    537c:	429a      	cmp	r2, r3
    537e:	d102      	bne.n	5386 <i2c_master_init+0x106>
    5380:	2380      	movs	r3, #128	; 0x80
    5382:	051b      	lsls	r3, r3, #20
    5384:	431f      	orrs	r7, r3
    5386:	0033      	movs	r3, r6
    5388:	332d      	adds	r3, #45	; 0x2d
    538a:	781b      	ldrb	r3, [r3, #0]
    538c:	2b00      	cmp	r3, #0
    538e:	d002      	beq.n	5396 <i2c_master_init+0x116>
    5390:	2380      	movs	r3, #128	; 0x80
    5392:	041b      	lsls	r3, r3, #16
    5394:	431f      	orrs	r7, r3
    5396:	0033      	movs	r3, r6
    5398:	332e      	adds	r3, #46	; 0x2e
    539a:	781b      	ldrb	r3, [r3, #0]
    539c:	2b00      	cmp	r3, #0
    539e:	d002      	beq.n	53a6 <i2c_master_init+0x126>
    53a0:	2380      	movs	r3, #128	; 0x80
    53a2:	03db      	lsls	r3, r3, #15
    53a4:	431f      	orrs	r7, r3
    53a6:	9b01      	ldr	r3, [sp, #4]
    53a8:	9806      	ldr	r0, [sp, #24]
    53aa:	681b      	ldr	r3, [r3, #0]
    53ac:	9a01      	ldr	r2, [sp, #4]
    53ae:	431f      	orrs	r7, r3
    53b0:	9b01      	ldr	r3, [sp, #4]
    53b2:	3014      	adds	r0, #20
    53b4:	601f      	str	r7, [r3, #0]
    53b6:	2380      	movs	r3, #128	; 0x80
    53b8:	27fa      	movs	r7, #250	; 0xfa
    53ba:	005b      	lsls	r3, r3, #1
    53bc:	6053      	str	r3, [r2, #4]
    53be:	b2c0      	uxtb	r0, r0
    53c0:	4b4d      	ldr	r3, [pc, #308]	; (54f8 <i2c_master_init+0x278>)
    53c2:	4798      	blx	r3
    53c4:	6833      	ldr	r3, [r6, #0]
    53c6:	00bf      	lsls	r7, r7, #2
    53c8:	435f      	muls	r7, r3
    53ca:	6873      	ldr	r3, [r6, #4]
    53cc:	9006      	str	r0, [sp, #24]
    53ce:	9307      	str	r3, [sp, #28]
    53d0:	4b4a      	ldr	r3, [pc, #296]	; (54fc <i2c_master_init+0x27c>)
    53d2:	4798      	blx	r3
    53d4:	4b49      	ldr	r3, [pc, #292]	; (54fc <i2c_master_init+0x27c>)
    53d6:	9002      	str	r0, [sp, #8]
    53d8:	9103      	str	r1, [sp, #12]
    53da:	0078      	lsls	r0, r7, #1
    53dc:	4798      	blx	r3
    53de:	9004      	str	r0, [sp, #16]
    53e0:	9105      	str	r1, [sp, #20]
    53e2:	4b46      	ldr	r3, [pc, #280]	; (54fc <i2c_master_init+0x27c>)
    53e4:	8e30      	ldrh	r0, [r6, #48]	; 0x30
    53e6:	4798      	blx	r3
    53e8:	4c45      	ldr	r4, [pc, #276]	; (5500 <i2c_master_init+0x280>)
    53ea:	9008      	str	r0, [sp, #32]
    53ec:	9109      	str	r1, [sp, #36]	; 0x24
    53ee:	9802      	ldr	r0, [sp, #8]
    53f0:	9903      	ldr	r1, [sp, #12]
    53f2:	4a44      	ldr	r2, [pc, #272]	; (5504 <i2c_master_init+0x284>)
    53f4:	4b44      	ldr	r3, [pc, #272]	; (5508 <i2c_master_init+0x288>)
    53f6:	47a0      	blx	r4
    53f8:	0002      	movs	r2, r0
    53fa:	000b      	movs	r3, r1
    53fc:	9808      	ldr	r0, [sp, #32]
    53fe:	9909      	ldr	r1, [sp, #36]	; 0x24
    5400:	47a0      	blx	r4
    5402:	2200      	movs	r2, #0
    5404:	4c41      	ldr	r4, [pc, #260]	; (550c <i2c_master_init+0x28c>)
    5406:	4b42      	ldr	r3, [pc, #264]	; (5510 <i2c_master_init+0x290>)
    5408:	47a0      	blx	r4
    540a:	4b3c      	ldr	r3, [pc, #240]	; (54fc <i2c_master_init+0x27c>)
    540c:	0004      	movs	r4, r0
    540e:	0038      	movs	r0, r7
    5410:	000d      	movs	r5, r1
    5412:	4798      	blx	r3
    5414:	0002      	movs	r2, r0
    5416:	000b      	movs	r3, r1
    5418:	0020      	movs	r0, r4
    541a:	0029      	movs	r1, r5
    541c:	4c38      	ldr	r4, [pc, #224]	; (5500 <i2c_master_init+0x280>)
    541e:	47a0      	blx	r4
    5420:	4d3c      	ldr	r5, [pc, #240]	; (5514 <i2c_master_init+0x294>)
    5422:	0002      	movs	r2, r0
    5424:	000b      	movs	r3, r1
    5426:	9802      	ldr	r0, [sp, #8]
    5428:	9903      	ldr	r1, [sp, #12]
    542a:	47a8      	blx	r5
    542c:	9a04      	ldr	r2, [sp, #16]
    542e:	9b05      	ldr	r3, [sp, #20]
    5430:	4c36      	ldr	r4, [pc, #216]	; (550c <i2c_master_init+0x28c>)
    5432:	47a0      	blx	r4
    5434:	2200      	movs	r2, #0
    5436:	4b38      	ldr	r3, [pc, #224]	; (5518 <i2c_master_init+0x298>)
    5438:	47a8      	blx	r5
    543a:	9a04      	ldr	r2, [sp, #16]
    543c:	9b05      	ldr	r3, [sp, #20]
    543e:	4c37      	ldr	r4, [pc, #220]	; (551c <i2c_master_init+0x29c>)
    5440:	47a0      	blx	r4
    5442:	4b37      	ldr	r3, [pc, #220]	; (5520 <i2c_master_init+0x2a0>)
    5444:	4798      	blx	r3
    5446:	2380      	movs	r3, #128	; 0x80
    5448:	68b2      	ldr	r2, [r6, #8]
    544a:	0007      	movs	r7, r0
    544c:	049b      	lsls	r3, r3, #18
    544e:	429a      	cmp	r2, r3
    5450:	d13e      	bne.n	54d0 <i2c_master_init+0x250>
    5452:	23fa      	movs	r3, #250	; 0xfa
    5454:	9c07      	ldr	r4, [sp, #28]
    5456:	009b      	lsls	r3, r3, #2
    5458:	435c      	muls	r4, r3
    545a:	9a02      	ldr	r2, [sp, #8]
    545c:	9b03      	ldr	r3, [sp, #12]
    545e:	4e2b      	ldr	r6, [pc, #172]	; (550c <i2c_master_init+0x28c>)
    5460:	0010      	movs	r0, r2
    5462:	0019      	movs	r1, r3
    5464:	47b0      	blx	r6
    5466:	4b25      	ldr	r3, [pc, #148]	; (54fc <i2c_master_init+0x27c>)
    5468:	9002      	str	r0, [sp, #8]
    546a:	9103      	str	r1, [sp, #12]
    546c:	0020      	movs	r0, r4
    546e:	4798      	blx	r3
    5470:	2200      	movs	r2, #0
    5472:	4b2c      	ldr	r3, [pc, #176]	; (5524 <i2c_master_init+0x2a4>)
    5474:	4e22      	ldr	r6, [pc, #136]	; (5500 <i2c_master_init+0x280>)
    5476:	47b0      	blx	r6
    5478:	4e28      	ldr	r6, [pc, #160]	; (551c <i2c_master_init+0x29c>)
    547a:	0002      	movs	r2, r0
    547c:	000b      	movs	r3, r1
    547e:	9802      	ldr	r0, [sp, #8]
    5480:	9903      	ldr	r1, [sp, #12]
    5482:	47b0      	blx	r6
    5484:	2200      	movs	r2, #0
    5486:	4b24      	ldr	r3, [pc, #144]	; (5518 <i2c_master_init+0x298>)
    5488:	47a8      	blx	r5
    548a:	4b25      	ldr	r3, [pc, #148]	; (5520 <i2c_master_init+0x2a0>)
    548c:	4798      	blx	r3
    548e:	4b26      	ldr	r3, [pc, #152]	; (5528 <i2c_master_init+0x2a8>)
    5490:	1e06      	subs	r6, r0, #0
    5492:	d016      	beq.n	54c2 <i2c_master_init+0x242>
    5494:	0021      	movs	r1, r4
    5496:	9806      	ldr	r0, [sp, #24]
    5498:	4798      	blx	r3
    549a:	3802      	subs	r0, #2
    549c:	1b83      	subs	r3, r0, r6
    549e:	2040      	movs	r0, #64	; 0x40
    54a0:	2fff      	cmp	r7, #255	; 0xff
    54a2:	d80c      	bhi.n	54be <i2c_master_init+0x23e>
    54a4:	2bff      	cmp	r3, #255	; 0xff
    54a6:	d80a      	bhi.n	54be <i2c_master_init+0x23e>
    54a8:	20ff      	movs	r0, #255	; 0xff
    54aa:	003d      	movs	r5, r7
    54ac:	0400      	lsls	r0, r0, #16
    54ae:	041b      	lsls	r3, r3, #16
    54b0:	4003      	ands	r3, r0
    54b2:	2000      	movs	r0, #0
    54b4:	0636      	lsls	r6, r6, #24
    54b6:	4335      	orrs	r5, r6
    54b8:	9a01      	ldr	r2, [sp, #4]
    54ba:	432b      	orrs	r3, r5
    54bc:	60d3      	str	r3, [r2, #12]
    54be:	b00d      	add	sp, #52	; 0x34
    54c0:	bdf0      	pop	{r4, r5, r6, r7, pc}
    54c2:	0061      	lsls	r1, r4, #1
    54c4:	9a06      	ldr	r2, [sp, #24]
    54c6:	1e48      	subs	r0, r1, #1
    54c8:	1880      	adds	r0, r0, r2
    54ca:	4798      	blx	r3
    54cc:	1e43      	subs	r3, r0, #1
    54ce:	e7e6      	b.n	549e <i2c_master_init+0x21e>
    54d0:	2600      	movs	r6, #0
    54d2:	0033      	movs	r3, r6
    54d4:	e7e3      	b.n	549e <i2c_master_init+0x21e>
    54d6:	46c0      	nop			; (mov r8, r8)
    54d8:	000065f5 	.word	0x000065f5
    54dc:	40000400 	.word	0x40000400
    54e0:	0000774d 	.word	0x0000774d
    54e4:	000076c5 	.word	0x000076c5
    54e8:	00006455 	.word	0x00006455
    54ec:	00006499 	.word	0x00006499
    54f0:	00007821 	.word	0x00007821
    54f4:	41002000 	.word	0x41002000
    54f8:	00007769 	.word	0x00007769
    54fc:	0000b0ad 	.word	0x0000b0ad
    5500:	0000a519 	.word	0x0000a519
    5504:	e826d695 	.word	0xe826d695
    5508:	3e112e0b 	.word	0x3e112e0b
    550c:	00009891 	.word	0x00009891
    5510:	40240000 	.word	0x40240000
    5514:	0000aa19 	.word	0x0000aa19
    5518:	3ff00000 	.word	0x3ff00000
    551c:	00009eb1 	.word	0x00009eb1
    5520:	0000b045 	.word	0x0000b045
    5524:	40080000 	.word	0x40080000
    5528:	00009539 	.word	0x00009539

0000552c <_i2c_master_address_response>:
    552c:	2202      	movs	r2, #2
    552e:	6803      	ldr	r3, [r0, #0]
    5530:	7e19      	ldrb	r1, [r3, #24]
    5532:	4211      	tst	r1, r2
    5534:	d006      	beq.n	5544 <_i2c_master_address_response+0x18>
    5536:	761a      	strb	r2, [r3, #24]
    5538:	8b5b      	ldrh	r3, [r3, #26]
    553a:	2041      	movs	r0, #65	; 0x41
    553c:	4213      	tst	r3, r2
    553e:	d10a      	bne.n	5556 <_i2c_master_address_response+0x2a>
    5540:	2000      	movs	r0, #0
    5542:	e008      	b.n	5556 <_i2c_master_address_response+0x2a>
    5544:	8b5a      	ldrh	r2, [r3, #26]
    5546:	0752      	lsls	r2, r2, #29
    5548:	d5fa      	bpl.n	5540 <_i2c_master_address_response+0x14>
    554a:	22c0      	movs	r2, #192	; 0xc0
    554c:	2018      	movs	r0, #24
    554e:	6859      	ldr	r1, [r3, #4]
    5550:	0292      	lsls	r2, r2, #10
    5552:	430a      	orrs	r2, r1
    5554:	605a      	str	r2, [r3, #4]
    5556:	4770      	bx	lr

00005558 <_i2c_master_wait_for_bus>:
    5558:	b570      	push	{r4, r5, r6, lr}
    555a:	2200      	movs	r2, #0
    555c:	2601      	movs	r6, #1
    555e:	2402      	movs	r4, #2
    5560:	6801      	ldr	r1, [r0, #0]
    5562:	7e0b      	ldrb	r3, [r1, #24]
    5564:	4033      	ands	r3, r6
    5566:	d102      	bne.n	556e <_i2c_master_wait_for_bus+0x16>
    5568:	7e0d      	ldrb	r5, [r1, #24]
    556a:	4225      	tst	r5, r4
    556c:	d001      	beq.n	5572 <_i2c_master_wait_for_bus+0x1a>
    556e:	2000      	movs	r0, #0
    5570:	e005      	b.n	557e <_i2c_master_wait_for_bus+0x26>
    5572:	3201      	adds	r2, #1
    5574:	8903      	ldrh	r3, [r0, #8]
    5576:	b292      	uxth	r2, r2
    5578:	4293      	cmp	r3, r2
    557a:	d8f2      	bhi.n	5562 <_i2c_master_wait_for_bus+0xa>
    557c:	2012      	movs	r0, #18
    557e:	bd70      	pop	{r4, r5, r6, pc}

00005580 <_i2c_master_send_hs_master_code>:
    5580:	2380      	movs	r3, #128	; 0x80
    5582:	b510      	push	{r4, lr}
    5584:	6804      	ldr	r4, [r0, #0]
    5586:	02db      	lsls	r3, r3, #11
    5588:	6862      	ldr	r2, [r4, #4]
    558a:	4313      	orrs	r3, r2
    558c:	6063      	str	r3, [r4, #4]
    558e:	6261      	str	r1, [r4, #36]	; 0x24
    5590:	4b02      	ldr	r3, [pc, #8]	; (559c <_i2c_master_send_hs_master_code+0x1c>)
    5592:	4798      	blx	r3
    5594:	2301      	movs	r3, #1
    5596:	7623      	strb	r3, [r4, #24]
    5598:	bd10      	pop	{r4, pc}
    559a:	46c0      	nop			; (mov r8, r8)
    559c:	00005559 	.word	0x00005559

000055a0 <_i2c_master_read_packet>:
    55a0:	b5f0      	push	{r4, r5, r6, r7, lr}
    55a2:	6804      	ldr	r4, [r0, #0]
    55a4:	b085      	sub	sp, #20
    55a6:	6823      	ldr	r3, [r4, #0]
    55a8:	9001      	str	r0, [sp, #4]
    55aa:	011b      	lsls	r3, r3, #4
    55ac:	0fdb      	lsrs	r3, r3, #31
    55ae:	884d      	ldrh	r5, [r1, #2]
    55b0:	9303      	str	r3, [sp, #12]
    55b2:	7a4b      	ldrb	r3, [r1, #9]
    55b4:	000e      	movs	r6, r1
    55b6:	2b00      	cmp	r3, #0
    55b8:	d002      	beq.n	55c0 <_i2c_master_read_packet+0x20>
    55ba:	7a89      	ldrb	r1, [r1, #10]
    55bc:	4b47      	ldr	r3, [pc, #284]	; (56dc <_i2c_master_read_packet+0x13c>)
    55be:	4798      	blx	r3
    55c0:	6863      	ldr	r3, [r4, #4]
    55c2:	4f47      	ldr	r7, [pc, #284]	; (56e0 <_i2c_master_read_packet+0x140>)
    55c4:	403b      	ands	r3, r7
    55c6:	6063      	str	r3, [r4, #4]
    55c8:	7a72      	ldrb	r2, [r6, #9]
    55ca:	8833      	ldrh	r3, [r6, #0]
    55cc:	7a31      	ldrb	r1, [r6, #8]
    55ce:	0392      	lsls	r2, r2, #14
    55d0:	005b      	lsls	r3, r3, #1
    55d2:	4313      	orrs	r3, r2
    55d4:	2201      	movs	r2, #1
    55d6:	2900      	cmp	r1, #0
    55d8:	d019      	beq.n	560e <_i2c_master_read_packet+0x6e>
    55da:	2280      	movs	r2, #128	; 0x80
    55dc:	0212      	lsls	r2, r2, #8
    55de:	4313      	orrs	r3, r2
    55e0:	6263      	str	r3, [r4, #36]	; 0x24
    55e2:	9801      	ldr	r0, [sp, #4]
    55e4:	4b3f      	ldr	r3, [pc, #252]	; (56e4 <_i2c_master_read_packet+0x144>)
    55e6:	4798      	blx	r3
    55e8:	6863      	ldr	r3, [r4, #4]
    55ea:	403b      	ands	r3, r7
    55ec:	6063      	str	r3, [r4, #4]
    55ee:	2800      	cmp	r0, #0
    55f0:	d163      	bne.n	56ba <_i2c_master_read_packet+0x11a>
    55f2:	9801      	ldr	r0, [sp, #4]
    55f4:	4b3c      	ldr	r3, [pc, #240]	; (56e8 <_i2c_master_read_packet+0x148>)
    55f6:	4798      	blx	r3
    55f8:	2800      	cmp	r0, #0
    55fa:	d15e      	bne.n	56ba <_i2c_master_read_packet+0x11a>
    55fc:	2378      	movs	r3, #120	; 0x78
    55fe:	8832      	ldrh	r2, [r6, #0]
    5600:	7a71      	ldrb	r1, [r6, #9]
    5602:	0a12      	lsrs	r2, r2, #8
    5604:	4313      	orrs	r3, r2
    5606:	2201      	movs	r2, #1
    5608:	0389      	lsls	r1, r1, #14
    560a:	005b      	lsls	r3, r3, #1
    560c:	430a      	orrs	r2, r1
    560e:	4313      	orrs	r3, r2
    5610:	6263      	str	r3, [r4, #36]	; 0x24
    5612:	9801      	ldr	r0, [sp, #4]
    5614:	4b33      	ldr	r3, [pc, #204]	; (56e4 <_i2c_master_read_packet+0x144>)
    5616:	4798      	blx	r3
    5618:	9b03      	ldr	r3, [sp, #12]
    561a:	0002      	movs	r2, r0
    561c:	2b00      	cmp	r3, #0
    561e:	d017      	beq.n	5650 <_i2c_master_read_packet+0xb0>
    5620:	8873      	ldrh	r3, [r6, #2]
    5622:	2b01      	cmp	r3, #1
    5624:	d114      	bne.n	5650 <_i2c_master_read_packet+0xb0>
    5626:	2380      	movs	r3, #128	; 0x80
    5628:	6861      	ldr	r1, [r4, #4]
    562a:	02db      	lsls	r3, r3, #11
    562c:	430b      	orrs	r3, r1
    562e:	6063      	str	r3, [r4, #4]
    5630:	2a00      	cmp	r2, #0
    5632:	d142      	bne.n	56ba <_i2c_master_read_packet+0x11a>
    5634:	9801      	ldr	r0, [sp, #4]
    5636:	4b2c      	ldr	r3, [pc, #176]	; (56e8 <_i2c_master_read_packet+0x148>)
    5638:	4798      	blx	r3
    563a:	2800      	cmp	r0, #0
    563c:	d13d      	bne.n	56ba <_i2c_master_read_packet+0x11a>
    563e:	3d01      	subs	r5, #1
    5640:	b2af      	uxth	r7, r5
    5642:	0005      	movs	r5, r0
    5644:	4b29      	ldr	r3, [pc, #164]	; (56ec <_i2c_master_read_packet+0x14c>)
    5646:	429f      	cmp	r7, r3
    5648:	d106      	bne.n	5658 <_i2c_master_read_packet+0xb8>
    564a:	9502      	str	r5, [sp, #8]
    564c:	2500      	movs	r5, #0
    564e:	e020      	b.n	5692 <_i2c_master_read_packet+0xf2>
    5650:	6863      	ldr	r3, [r4, #4]
    5652:	401f      	ands	r7, r3
    5654:	6067      	str	r7, [r4, #4]
    5656:	e7eb      	b.n	5630 <_i2c_master_read_packet+0x90>
    5658:	2220      	movs	r2, #32
    565a:	8b63      	ldrh	r3, [r4, #26]
    565c:	4213      	tst	r3, r2
    565e:	d03a      	beq.n	56d6 <_i2c_master_read_packet+0x136>
    5660:	9b01      	ldr	r3, [sp, #4]
    5662:	7adb      	ldrb	r3, [r3, #11]
    5664:	2b00      	cmp	r3, #0
    5666:	d004      	beq.n	5672 <_i2c_master_read_packet+0xd2>
    5668:	9b03      	ldr	r3, [sp, #12]
    566a:	2b00      	cmp	r3, #0
    566c:	d127      	bne.n	56be <_i2c_master_read_packet+0x11e>
    566e:	2f00      	cmp	r7, #0
    5670:	d027      	beq.n	56c2 <_i2c_master_read_packet+0x122>
    5672:	9801      	ldr	r0, [sp, #4]
    5674:	4b1e      	ldr	r3, [pc, #120]	; (56f0 <_i2c_master_read_packet+0x150>)
    5676:	4798      	blx	r3
    5678:	1c6b      	adds	r3, r5, #1
    567a:	b29b      	uxth	r3, r3
    567c:	9302      	str	r3, [sp, #8]
    567e:	0023      	movs	r3, r4
    5680:	3328      	adds	r3, #40	; 0x28
    5682:	781b      	ldrb	r3, [r3, #0]
    5684:	6872      	ldr	r2, [r6, #4]
    5686:	9801      	ldr	r0, [sp, #4]
    5688:	5553      	strb	r3, [r2, r5]
    568a:	4b16      	ldr	r3, [pc, #88]	; (56e4 <_i2c_master_read_packet+0x144>)
    568c:	4798      	blx	r3
    568e:	1e05      	subs	r5, r0, #0
    5690:	d01d      	beq.n	56ce <_i2c_master_read_packet+0x12e>
    5692:	9b01      	ldr	r3, [sp, #4]
    5694:	4f16      	ldr	r7, [pc, #88]	; (56f0 <_i2c_master_read_packet+0x150>)
    5696:	7a9b      	ldrb	r3, [r3, #10]
    5698:	2b00      	cmp	r3, #0
    569a:	d006      	beq.n	56aa <_i2c_master_read_packet+0x10a>
    569c:	9801      	ldr	r0, [sp, #4]
    569e:	47b8      	blx	r7
    56a0:	23c0      	movs	r3, #192	; 0xc0
    56a2:	6862      	ldr	r2, [r4, #4]
    56a4:	029b      	lsls	r3, r3, #10
    56a6:	4313      	orrs	r3, r2
    56a8:	6063      	str	r3, [r4, #4]
    56aa:	9801      	ldr	r0, [sp, #4]
    56ac:	47b8      	blx	r7
    56ae:	0028      	movs	r0, r5
    56b0:	3428      	adds	r4, #40	; 0x28
    56b2:	7822      	ldrb	r2, [r4, #0]
    56b4:	6873      	ldr	r3, [r6, #4]
    56b6:	9902      	ldr	r1, [sp, #8]
    56b8:	545a      	strb	r2, [r3, r1]
    56ba:	b005      	add	sp, #20
    56bc:	bdf0      	pop	{r4, r5, r6, r7, pc}
    56be:	2f01      	cmp	r7, #1
    56c0:	d1d7      	bne.n	5672 <_i2c_master_read_packet+0xd2>
    56c2:	2280      	movs	r2, #128	; 0x80
    56c4:	6863      	ldr	r3, [r4, #4]
    56c6:	02d2      	lsls	r2, r2, #11
    56c8:	4313      	orrs	r3, r2
    56ca:	6063      	str	r3, [r4, #4]
    56cc:	9502      	str	r5, [sp, #8]
    56ce:	3f01      	subs	r7, #1
    56d0:	b2bf      	uxth	r7, r7
    56d2:	9d02      	ldr	r5, [sp, #8]
    56d4:	e7b6      	b.n	5644 <_i2c_master_read_packet+0xa4>
    56d6:	2041      	movs	r0, #65	; 0x41
    56d8:	e7ef      	b.n	56ba <_i2c_master_read_packet+0x11a>
    56da:	46c0      	nop			; (mov r8, r8)
    56dc:	00005581 	.word	0x00005581
    56e0:	fffbffff 	.word	0xfffbffff
    56e4:	00005559 	.word	0x00005559
    56e8:	0000552d 	.word	0x0000552d
    56ec:	0000ffff 	.word	0x0000ffff
    56f0:	00005275 	.word	0x00005275

000056f4 <_i2c_master_write_packet>:
    56f4:	b5f7      	push	{r0, r1, r2, r4, r5, r6, r7, lr}
    56f6:	000f      	movs	r7, r1
    56f8:	884b      	ldrh	r3, [r1, #2]
    56fa:	0005      	movs	r5, r0
    56fc:	9301      	str	r3, [sp, #4]
    56fe:	4b2a      	ldr	r3, [pc, #168]	; (57a8 <_i2c_master_write_packet+0xb4>)
    5700:	6804      	ldr	r4, [r0, #0]
    5702:	4798      	blx	r3
    5704:	7a7b      	ldrb	r3, [r7, #9]
    5706:	2b00      	cmp	r3, #0
    5708:	d003      	beq.n	5712 <_i2c_master_write_packet+0x1e>
    570a:	7ab9      	ldrb	r1, [r7, #10]
    570c:	0028      	movs	r0, r5
    570e:	4b27      	ldr	r3, [pc, #156]	; (57ac <_i2c_master_write_packet+0xb8>)
    5710:	4798      	blx	r3
    5712:	6863      	ldr	r3, [r4, #4]
    5714:	4a26      	ldr	r2, [pc, #152]	; (57b0 <_i2c_master_write_packet+0xbc>)
    5716:	4013      	ands	r3, r2
    5718:	6063      	str	r3, [r4, #4]
    571a:	7a7a      	ldrb	r2, [r7, #9]
    571c:	883b      	ldrh	r3, [r7, #0]
    571e:	7a39      	ldrb	r1, [r7, #8]
    5720:	005b      	lsls	r3, r3, #1
    5722:	0392      	lsls	r2, r2, #14
    5724:	4313      	orrs	r3, r2
    5726:	2900      	cmp	r1, #0
    5728:	d002      	beq.n	5730 <_i2c_master_write_packet+0x3c>
    572a:	2280      	movs	r2, #128	; 0x80
    572c:	0212      	lsls	r2, r2, #8
    572e:	4313      	orrs	r3, r2
    5730:	6263      	str	r3, [r4, #36]	; 0x24
    5732:	0028      	movs	r0, r5
    5734:	4b1f      	ldr	r3, [pc, #124]	; (57b4 <_i2c_master_write_packet+0xc0>)
    5736:	4798      	blx	r3
    5738:	1e06      	subs	r6, r0, #0
    573a:	d115      	bne.n	5768 <_i2c_master_write_packet+0x74>
    573c:	0028      	movs	r0, r5
    573e:	4b1e      	ldr	r3, [pc, #120]	; (57b8 <_i2c_master_write_packet+0xc4>)
    5740:	4798      	blx	r3
    5742:	1e06      	subs	r6, r0, #0
    5744:	d110      	bne.n	5768 <_i2c_master_write_packet+0x74>
    5746:	9000      	str	r0, [sp, #0]
    5748:	9b00      	ldr	r3, [sp, #0]
    574a:	9a01      	ldr	r2, [sp, #4]
    574c:	4293      	cmp	r3, r2
    574e:	d10d      	bne.n	576c <_i2c_master_write_packet+0x78>
    5750:	2600      	movs	r6, #0
    5752:	7aab      	ldrb	r3, [r5, #10]
    5754:	2b00      	cmp	r3, #0
    5756:	d007      	beq.n	5768 <_i2c_master_write_packet+0x74>
    5758:	4b13      	ldr	r3, [pc, #76]	; (57a8 <_i2c_master_write_packet+0xb4>)
    575a:	0028      	movs	r0, r5
    575c:	4798      	blx	r3
    575e:	23c0      	movs	r3, #192	; 0xc0
    5760:	6862      	ldr	r2, [r4, #4]
    5762:	029b      	lsls	r3, r3, #10
    5764:	4313      	orrs	r3, r2
    5766:	6063      	str	r3, [r4, #4]
    5768:	0030      	movs	r0, r6
    576a:	bdfe      	pop	{r1, r2, r3, r4, r5, r6, r7, pc}
    576c:	2220      	movs	r2, #32
    576e:	8b63      	ldrh	r3, [r4, #26]
    5770:	4213      	tst	r3, r2
    5772:	d016      	beq.n	57a2 <_i2c_master_write_packet+0xae>
    5774:	0028      	movs	r0, r5
    5776:	4b0c      	ldr	r3, [pc, #48]	; (57a8 <_i2c_master_write_packet+0xb4>)
    5778:	4798      	blx	r3
    577a:	687b      	ldr	r3, [r7, #4]
    577c:	9a00      	ldr	r2, [sp, #0]
    577e:	0028      	movs	r0, r5
    5780:	5c9a      	ldrb	r2, [r3, r2]
    5782:	0023      	movs	r3, r4
    5784:	3328      	adds	r3, #40	; 0x28
    5786:	701a      	strb	r2, [r3, #0]
    5788:	4b0a      	ldr	r3, [pc, #40]	; (57b4 <_i2c_master_write_packet+0xc0>)
    578a:	4798      	blx	r3
    578c:	1e06      	subs	r6, r0, #0
    578e:	d1e0      	bne.n	5752 <_i2c_master_write_packet+0x5e>
    5790:	9a00      	ldr	r2, [sp, #0]
    5792:	8b63      	ldrh	r3, [r4, #26]
    5794:	3201      	adds	r2, #1
    5796:	9200      	str	r2, [sp, #0]
    5798:	2204      	movs	r2, #4
    579a:	4213      	tst	r3, r2
    579c:	d0d4      	beq.n	5748 <_i2c_master_write_packet+0x54>
    579e:	261e      	movs	r6, #30
    57a0:	e7d7      	b.n	5752 <_i2c_master_write_packet+0x5e>
    57a2:	2641      	movs	r6, #65	; 0x41
    57a4:	e7e0      	b.n	5768 <_i2c_master_write_packet+0x74>
    57a6:	46c0      	nop			; (mov r8, r8)
    57a8:	00005275 	.word	0x00005275
    57ac:	00005581 	.word	0x00005581
    57b0:	fffbffff 	.word	0xfffbffff
    57b4:	00005559 	.word	0x00005559
    57b8:	0000552d 	.word	0x0000552d

000057bc <i2c_master_read_packet_wait_no_stop>:
    57bc:	2300      	movs	r3, #0
    57be:	b510      	push	{r4, lr}
    57c0:	7283      	strb	r3, [r0, #10]
    57c2:	3301      	adds	r3, #1
    57c4:	72c3      	strb	r3, [r0, #11]
    57c6:	4b01      	ldr	r3, [pc, #4]	; (57cc <i2c_master_read_packet_wait_no_stop+0x10>)
    57c8:	4798      	blx	r3
    57ca:	bd10      	pop	{r4, pc}
    57cc:	000055a1 	.word	0x000055a1

000057d0 <i2c_master_write_packet_wait_no_stop>:
    57d0:	2300      	movs	r3, #0
    57d2:	b510      	push	{r4, lr}
    57d4:	7283      	strb	r3, [r0, #10]
    57d6:	3301      	adds	r3, #1
    57d8:	72c3      	strb	r3, [r0, #11]
    57da:	4b01      	ldr	r3, [pc, #4]	; (57e0 <i2c_master_write_packet_wait_no_stop+0x10>)
    57dc:	4798      	blx	r3
    57de:	bd10      	pop	{r4, pc}
    57e0:	000056f5 	.word	0x000056f5

000057e4 <_tcc_get_inst_index>:
    57e4:	4a08      	ldr	r2, [pc, #32]	; (5808 <_tcc_get_inst_index+0x24>)
    57e6:	0003      	movs	r3, r0
    57e8:	4290      	cmp	r0, r2
    57ea:	d009      	beq.n	5800 <_tcc_get_inst_index+0x1c>
    57ec:	4a07      	ldr	r2, [pc, #28]	; (580c <_tcc_get_inst_index+0x28>)
    57ee:	4290      	cmp	r0, r2
    57f0:	d008      	beq.n	5804 <_tcc_get_inst_index+0x20>
    57f2:	4a07      	ldr	r2, [pc, #28]	; (5810 <_tcc_get_inst_index+0x2c>)
    57f4:	2000      	movs	r0, #0
    57f6:	4293      	cmp	r3, r2
    57f8:	d101      	bne.n	57fe <_tcc_get_inst_index+0x1a>
    57fa:	3002      	adds	r0, #2
    57fc:	b2c0      	uxtb	r0, r0
    57fe:	4770      	bx	lr
    5800:	2000      	movs	r0, #0
    5802:	e7fb      	b.n	57fc <_tcc_get_inst_index+0x18>
    5804:	2001      	movs	r0, #1
    5806:	e7f9      	b.n	57fc <_tcc_get_inst_index+0x18>
    5808:	42002000 	.word	0x42002000
    580c:	42002400 	.word	0x42002400
    5810:	42002800 	.word	0x42002800

00005814 <tcc_get_config_defaults>:
    5814:	b510      	push	{r4, lr}
    5816:	4b3a      	ldr	r3, [pc, #232]	; (5900 <tcc_get_config_defaults+0xec>)
    5818:	0004      	movs	r4, r0
    581a:	0008      	movs	r0, r1
    581c:	4798      	blx	r3
    581e:	4a39      	ldr	r2, [pc, #228]	; (5904 <tcc_get_config_defaults+0xf0>)
    5820:	0080      	lsls	r0, r0, #2
    5822:	5882      	ldr	r2, [r0, r2]
    5824:	2300      	movs	r3, #0
    5826:	6062      	str	r2, [r4, #4]
    5828:	0022      	movs	r2, r4
    582a:	0020      	movs	r0, r4
    582c:	322c      	adds	r2, #44	; 0x2c
    582e:	3048      	adds	r0, #72	; 0x48
    5830:	6023      	str	r3, [r4, #0]
    5832:	72a3      	strb	r3, [r4, #10]
    5834:	72e3      	strb	r3, [r4, #11]
    5836:	7323      	strb	r3, [r4, #12]
    5838:	7263      	strb	r3, [r4, #9]
    583a:	7223      	strb	r3, [r4, #8]
    583c:	61e3      	str	r3, [r4, #28]
    583e:	6223      	str	r3, [r4, #32]
    5840:	6263      	str	r3, [r4, #36]	; 0x24
    5842:	62a3      	str	r3, [r4, #40]	; 0x28
    5844:	7523      	strb	r3, [r4, #20]
    5846:	7563      	strb	r3, [r4, #21]
    5848:	75a3      	strb	r3, [r4, #22]
    584a:	75e3      	strb	r3, [r4, #23]
    584c:	7623      	strb	r3, [r4, #24]
    584e:	7663      	strb	r3, [r4, #25]
    5850:	7423      	strb	r3, [r4, #16]
    5852:	7463      	strb	r3, [r4, #17]
    5854:	74a3      	strb	r3, [r4, #18]
    5856:	74e3      	strb	r3, [r4, #19]
    5858:	7013      	strb	r3, [r2, #0]
    585a:	7053      	strb	r3, [r2, #1]
    585c:	7093      	strb	r3, [r2, #2]
    585e:	70d3      	strb	r3, [r2, #3]
    5860:	7113      	strb	r3, [r2, #4]
    5862:	7153      	strb	r3, [r2, #5]
    5864:	7193      	strb	r3, [r2, #6]
    5866:	71d3      	strb	r3, [r2, #7]
    5868:	7213      	strb	r3, [r2, #8]
    586a:	7253      	strb	r3, [r2, #9]
    586c:	7293      	strb	r3, [r2, #10]
    586e:	72d3      	strb	r3, [r2, #11]
    5870:	320c      	adds	r2, #12
    5872:	7013      	strb	r3, [r2, #0]
    5874:	7053      	strb	r3, [r2, #1]
    5876:	7093      	strb	r3, [r2, #2]
    5878:	70d3      	strb	r3, [r2, #3]
    587a:	7113      	strb	r3, [r2, #4]
    587c:	7153      	strb	r3, [r2, #5]
    587e:	7193      	strb	r3, [r2, #6]
    5880:	71d3      	strb	r3, [r2, #7]
    5882:	7213      	strb	r3, [r2, #8]
    5884:	7253      	strb	r3, [r2, #9]
    5886:	7293      	strb	r3, [r2, #10]
    5888:	72d3      	strb	r3, [r2, #11]
    588a:	7313      	strb	r3, [r2, #12]
    588c:	7353      	strb	r3, [r2, #13]
    588e:	7393      	strb	r3, [r2, #14]
    5890:	73d3      	strb	r3, [r2, #15]
    5892:	1d21      	adds	r1, r4, #4
    5894:	7003      	strb	r3, [r0, #0]
    5896:	7043      	strb	r3, [r0, #1]
    5898:	7083      	strb	r3, [r0, #2]
    589a:	70c3      	strb	r3, [r0, #3]
    589c:	7103      	strb	r3, [r0, #4]
    589e:	7143      	strb	r3, [r0, #5]
    58a0:	7183      	strb	r3, [r0, #6]
    58a2:	71c3      	strb	r3, [r0, #7]
    58a4:	7203      	strb	r3, [r0, #8]
    58a6:	7243      	strb	r3, [r0, #9]
    58a8:	7283      	strb	r3, [r0, #10]
    58aa:	72c3      	strb	r3, [r0, #11]
    58ac:	7303      	strb	r3, [r0, #12]
    58ae:	7343      	strb	r3, [r0, #13]
    58b0:	7383      	strb	r3, [r0, #14]
    58b2:	73c3      	strb	r3, [r0, #15]
    58b4:	3050      	adds	r0, #80	; 0x50
    58b6:	7003      	strb	r3, [r0, #0]
    58b8:	65a3      	str	r3, [r4, #88]	; 0x58
    58ba:	67a3      	str	r3, [r4, #120]	; 0x78
    58bc:	7043      	strb	r3, [r0, #1]
    58be:	65e3      	str	r3, [r4, #92]	; 0x5c
    58c0:	67e3      	str	r3, [r4, #124]	; 0x7c
    58c2:	7083      	strb	r3, [r0, #2]
    58c4:	6623      	str	r3, [r4, #96]	; 0x60
    58c6:	67cb      	str	r3, [r1, #124]	; 0x7c
    58c8:	3197      	adds	r1, #151	; 0x97
    58ca:	700b      	strb	r3, [r1, #0]
    58cc:	2101      	movs	r1, #1
    58ce:	3a30      	subs	r2, #48	; 0x30
    58d0:	6663      	str	r3, [r4, #100]	; 0x64
    58d2:	67d3      	str	r3, [r2, #124]	; 0x7c
    58d4:	3294      	adds	r2, #148	; 0x94
    58d6:	7013      	strb	r3, [r2, #0]
    58d8:	3a14      	subs	r2, #20
    58da:	66a3      	str	r3, [r4, #104]	; 0x68
    58dc:	6013      	str	r3, [r2, #0]
    58de:	7553      	strb	r3, [r2, #21]
    58e0:	3204      	adds	r2, #4
    58e2:	66e3      	str	r3, [r4, #108]	; 0x6c
    58e4:	6013      	str	r3, [r2, #0]
    58e6:	7493      	strb	r3, [r2, #18]
    58e8:	3204      	adds	r2, #4
    58ea:	6723      	str	r3, [r4, #112]	; 0x70
    58ec:	6013      	str	r3, [r2, #0]
    58ee:	73d3      	strb	r3, [r2, #15]
    58f0:	6763      	str	r3, [r4, #116]	; 0x74
    58f2:	3204      	adds	r2, #4
    58f4:	34a1      	adds	r4, #161	; 0xa1
    58f6:	6013      	str	r3, [r2, #0]
    58f8:	7311      	strb	r1, [r2, #12]
    58fa:	7023      	strb	r3, [r4, #0]
    58fc:	bd10      	pop	{r4, pc}
    58fe:	46c0      	nop			; (mov r8, r8)
    5900:	000057e5 	.word	0x000057e5
    5904:	0000d640 	.word	0x0000d640

00005908 <tcc_init>:
    5908:	b5f0      	push	{r4, r5, r6, r7, lr}
    590a:	4bc0      	ldr	r3, [pc, #768]	; (5c0c <tcc_init+0x304>)
    590c:	b08f      	sub	sp, #60	; 0x3c
    590e:	0006      	movs	r6, r0
    5910:	0008      	movs	r0, r1
    5912:	000d      	movs	r5, r1
    5914:	0014      	movs	r4, r2
    5916:	4798      	blx	r3
    5918:	49bd      	ldr	r1, [pc, #756]	; (5c10 <tcc_init+0x308>)
    591a:	0082      	lsls	r2, r0, #2
    591c:	4684      	mov	ip, r0
    591e:	48bd      	ldr	r0, [pc, #756]	; (5c14 <tcc_init+0x30c>)
    5920:	6a0b      	ldr	r3, [r1, #32]
    5922:	5810      	ldr	r0, [r2, r0]
    5924:	4303      	orrs	r3, r0
    5926:	620b      	str	r3, [r1, #32]
    5928:	682b      	ldr	r3, [r5, #0]
    592a:	201c      	movs	r0, #28
    592c:	079b      	lsls	r3, r3, #30
    592e:	d408      	bmi.n	5942 <tcc_init+0x3a>
    5930:	682b      	ldr	r3, [r5, #0]
    5932:	07db      	lsls	r3, r3, #31
    5934:	d405      	bmi.n	5942 <tcc_init+0x3a>
    5936:	4bb8      	ldr	r3, [pc, #736]	; (5c18 <tcc_init+0x310>)
    5938:	58d2      	ldr	r2, [r2, r3]
    593a:	6823      	ldr	r3, [r4, #0]
    593c:	429a      	cmp	r2, r3
    593e:	d202      	bcs.n	5946 <tcc_init+0x3e>
    5940:	2017      	movs	r0, #23
    5942:	b00f      	add	sp, #60	; 0x3c
    5944:	bdf0      	pop	{r4, r5, r6, r7, pc}
    5946:	6863      	ldr	r3, [r4, #4]
    5948:	429a      	cmp	r2, r3
    594a:	d3f9      	bcc.n	5940 <tcc_init+0x38>
    594c:	0023      	movs	r3, r4
    594e:	0021      	movs	r1, r4
    5950:	331c      	adds	r3, #28
    5952:	312c      	adds	r1, #44	; 0x2c
    5954:	6818      	ldr	r0, [r3, #0]
    5956:	4282      	cmp	r2, r0
    5958:	d3f2      	bcc.n	5940 <tcc_init+0x38>
    595a:	3304      	adds	r3, #4
    595c:	428b      	cmp	r3, r1
    595e:	d1f9      	bne.n	5954 <tcc_init+0x4c>
    5960:	2200      	movs	r2, #0
    5962:	49ae      	ldr	r1, [pc, #696]	; (5c1c <tcc_init+0x314>)
    5964:	0010      	movs	r0, r2
    5966:	3098      	adds	r0, #152	; 0x98
    5968:	5c20      	ldrb	r0, [r4, r0]
    596a:	2800      	cmp	r0, #0
    596c:	d003      	beq.n	5976 <tcc_init+0x6e>
    596e:	4660      	mov	r0, ip
    5970:	5c08      	ldrb	r0, [r1, r0]
    5972:	4290      	cmp	r0, r2
    5974:	dde4      	ble.n	5940 <tcc_init+0x38>
    5976:	3201      	adds	r2, #1
    5978:	2a08      	cmp	r2, #8
    597a:	d1f3      	bne.n	5964 <tcc_init+0x5c>
    597c:	2200      	movs	r2, #0
    597e:	2080      	movs	r0, #128	; 0x80
    5980:	9201      	str	r2, [sp, #4]
    5982:	0440      	lsls	r0, r0, #17
    5984:	18a7      	adds	r7, r4, r2
    5986:	7c3f      	ldrb	r7, [r7, #16]
    5988:	2f01      	cmp	r7, #1
    598a:	d109      	bne.n	59a0 <tcc_init+0x98>
    598c:	4661      	mov	r1, ip
    598e:	4fa4      	ldr	r7, [pc, #656]	; (5c20 <tcc_init+0x318>)
    5990:	5c7f      	ldrb	r7, [r7, r1]
    5992:	4297      	cmp	r7, r2
    5994:	dbd4      	blt.n	5940 <tcc_init+0x38>
    5996:	0007      	movs	r7, r0
    5998:	4097      	lsls	r7, r2
    599a:	9901      	ldr	r1, [sp, #4]
    599c:	4339      	orrs	r1, r7
    599e:	9101      	str	r1, [sp, #4]
    59a0:	3201      	adds	r2, #1
    59a2:	2a04      	cmp	r2, #4
    59a4:	d1ee      	bne.n	5984 <tcc_init+0x7c>
    59a6:	0022      	movs	r2, r4
    59a8:	32a1      	adds	r2, #161	; 0xa1
    59aa:	7812      	ldrb	r2, [r2, #0]
    59ac:	2a00      	cmp	r2, #0
    59ae:	d004      	beq.n	59ba <tcc_init+0xb2>
    59b0:	2280      	movs	r2, #128	; 0x80
    59b2:	9901      	ldr	r1, [sp, #4]
    59b4:	0112      	lsls	r2, r2, #4
    59b6:	4311      	orrs	r1, r2
    59b8:	9101      	str	r1, [sp, #4]
    59ba:	7a22      	ldrb	r2, [r4, #8]
    59bc:	1e51      	subs	r1, r2, #1
    59be:	418a      	sbcs	r2, r1
    59c0:	0092      	lsls	r2, r2, #2
    59c2:	9203      	str	r2, [sp, #12]
    59c4:	7a62      	ldrb	r2, [r4, #9]
    59c6:	2a01      	cmp	r2, #1
    59c8:	d102      	bne.n	59d0 <tcc_init+0xc8>
    59ca:	9903      	ldr	r1, [sp, #12]
    59cc:	4311      	orrs	r1, r2
    59ce:	9103      	str	r1, [sp, #12]
    59d0:	4661      	mov	r1, ip
    59d2:	7b22      	ldrb	r2, [r4, #12]
    59d4:	9206      	str	r2, [sp, #24]
    59d6:	7ae2      	ldrb	r2, [r4, #11]
    59d8:	9207      	str	r2, [sp, #28]
    59da:	4a91      	ldr	r2, [pc, #580]	; (5c20 <tcc_init+0x318>)
    59dc:	5c52      	ldrb	r2, [r2, r1]
    59de:	9202      	str	r2, [sp, #8]
    59e0:	2200      	movs	r2, #0
    59e2:	9200      	str	r2, [sp, #0]
    59e4:	7a5f      	ldrb	r7, [r3, #9]
    59e6:	9a02      	ldr	r2, [sp, #8]
    59e8:	42ba      	cmp	r2, r7
    59ea:	d9a9      	bls.n	5940 <tcc_init+0x38>
    59ec:	7819      	ldrb	r1, [r3, #0]
    59ee:	290f      	cmp	r1, #15
    59f0:	d8a6      	bhi.n	5940 <tcc_init+0x38>
    59f2:	20f0      	movs	r0, #240	; 0xf0
    59f4:	785a      	ldrb	r2, [r3, #1]
    59f6:	0500      	lsls	r0, r0, #20
    59f8:	0609      	lsls	r1, r1, #24
    59fa:	4001      	ands	r1, r0
    59fc:	0412      	lsls	r2, r2, #16
    59fe:	430a      	orrs	r2, r1
    5a00:	7899      	ldrb	r1, [r3, #2]
    5a02:	9204      	str	r2, [sp, #16]
    5a04:	1e48      	subs	r0, r1, #1
    5a06:	4181      	sbcs	r1, r0
    5a08:	01c9      	lsls	r1, r1, #7
    5a0a:	9105      	str	r1, [sp, #20]
    5a0c:	78d9      	ldrb	r1, [r3, #3]
    5a0e:	2203      	movs	r2, #3
    5a10:	1e48      	subs	r0, r1, #1
    5a12:	4181      	sbcs	r1, r0
    5a14:	7918      	ldrb	r0, [r3, #4]
    5a16:	00c9      	lsls	r1, r1, #3
    5a18:	9108      	str	r1, [sp, #32]
    5a1a:	1e41      	subs	r1, r0, #1
    5a1c:	4188      	sbcs	r0, r1
    5a1e:	0101      	lsls	r1, r0, #4
    5a20:	2060      	movs	r0, #96	; 0x60
    5a22:	9109      	str	r1, [sp, #36]	; 0x24
    5a24:	7999      	ldrb	r1, [r3, #6]
    5a26:	02bf      	lsls	r7, r7, #10
    5a28:	0149      	lsls	r1, r1, #5
    5a2a:	4001      	ands	r1, r0
    5a2c:	7958      	ldrb	r0, [r3, #5]
    5a2e:	4010      	ands	r0, r2
    5a30:	9a04      	ldr	r2, [sp, #16]
    5a32:	4302      	orrs	r2, r0
    5a34:	430a      	orrs	r2, r1
    5a36:	21c0      	movs	r1, #192	; 0xc0
    5a38:	79d8      	ldrb	r0, [r3, #7]
    5a3a:	0089      	lsls	r1, r1, #2
    5a3c:	0200      	lsls	r0, r0, #8
    5a3e:	4001      	ands	r1, r0
    5a40:	20e0      	movs	r0, #224	; 0xe0
    5a42:	4311      	orrs	r1, r2
    5a44:	7a1a      	ldrb	r2, [r3, #8]
    5a46:	01c0      	lsls	r0, r0, #7
    5a48:	0312      	lsls	r2, r2, #12
    5a4a:	4002      	ands	r2, r0
    5a4c:	20c0      	movs	r0, #192	; 0xc0
    5a4e:	0100      	lsls	r0, r0, #4
    5a50:	4311      	orrs	r1, r2
    5a52:	4007      	ands	r7, r0
    5a54:	9a05      	ldr	r2, [sp, #20]
    5a56:	430f      	orrs	r7, r1
    5a58:	4317      	orrs	r7, r2
    5a5a:	9a08      	ldr	r2, [sp, #32]
    5a5c:	9900      	ldr	r1, [sp, #0]
    5a5e:	4317      	orrs	r7, r2
    5a60:	9a09      	ldr	r2, [sp, #36]	; 0x24
    5a62:	330a      	adds	r3, #10
    5a64:	4317      	orrs	r7, r2
    5a66:	aa0c      	add	r2, sp, #48	; 0x30
    5a68:	508f      	str	r7, [r1, r2]
    5a6a:	000a      	movs	r2, r1
    5a6c:	3204      	adds	r2, #4
    5a6e:	9200      	str	r2, [sp, #0]
    5a70:	2a08      	cmp	r2, #8
    5a72:	d1b7      	bne.n	59e4 <tcc_init+0xdc>
    5a74:	4662      	mov	r2, ip
    5a76:	4b69      	ldr	r3, [pc, #420]	; (5c1c <tcc_init+0x314>)
    5a78:	2001      	movs	r0, #1
    5a7a:	5c9b      	ldrb	r3, [r3, r2]
    5a7c:	9304      	str	r3, [sp, #16]
    5a7e:	2300      	movs	r3, #0
    5a80:	9300      	str	r3, [sp, #0]
    5a82:	18e2      	adds	r2, r4, r3
    5a84:	0017      	movs	r7, r2
    5a86:	3750      	adds	r7, #80	; 0x50
    5a88:	783f      	ldrb	r7, [r7, #0]
    5a8a:	2f00      	cmp	r7, #0
    5a8c:	d009      	beq.n	5aa2 <tcc_init+0x19a>
    5a8e:	9904      	ldr	r1, [sp, #16]
    5a90:	4299      	cmp	r1, r3
    5a92:	d800      	bhi.n	5a96 <tcc_init+0x18e>
    5a94:	e754      	b.n	5940 <tcc_init+0x38>
    5a96:	2780      	movs	r7, #128	; 0x80
    5a98:	027f      	lsls	r7, r7, #9
    5a9a:	409f      	lsls	r7, r3
    5a9c:	9900      	ldr	r1, [sp, #0]
    5a9e:	4339      	orrs	r1, r7
    5aa0:	9100      	str	r1, [sp, #0]
    5aa2:	001f      	movs	r7, r3
    5aa4:	3741      	adds	r7, #65	; 0x41
    5aa6:	5dd2      	ldrb	r2, [r2, r7]
    5aa8:	2a00      	cmp	r2, #0
    5aaa:	d00c      	beq.n	5ac6 <tcc_init+0x1be>
    5aac:	9904      	ldr	r1, [sp, #16]
    5aae:	4299      	cmp	r1, r3
    5ab0:	d800      	bhi.n	5ab4 <tcc_init+0x1ac>
    5ab2:	e745      	b.n	5940 <tcc_init+0x38>
    5ab4:	2a02      	cmp	r2, #2
    5ab6:	d000      	beq.n	5aba <tcc_init+0x1b2>
    5ab8:	e08f      	b.n	5bda <tcc_init+0x2d2>
    5aba:	2202      	movs	r2, #2
    5abc:	32ff      	adds	r2, #255	; 0xff
    5abe:	409a      	lsls	r2, r3
    5ac0:	9900      	ldr	r1, [sp, #0]
    5ac2:	4311      	orrs	r1, r2
    5ac4:	9100      	str	r1, [sp, #0]
    5ac6:	3301      	adds	r3, #1
    5ac8:	2b08      	cmp	r3, #8
    5aca:	d1da      	bne.n	5a82 <tcc_init+0x17a>
    5acc:	2230      	movs	r2, #48	; 0x30
    5ace:	2107      	movs	r1, #7
    5ad0:	7e63      	ldrb	r3, [r4, #25]
    5ad2:	011b      	lsls	r3, r3, #4
    5ad4:	4013      	ands	r3, r2
    5ad6:	7e22      	ldrb	r2, [r4, #24]
    5ad8:	400a      	ands	r2, r1
    5ada:	4313      	orrs	r3, r2
    5adc:	2280      	movs	r2, #128	; 0x80
    5ade:	9305      	str	r3, [sp, #20]
    5ae0:	2300      	movs	r3, #0
    5ae2:	0252      	lsls	r2, r2, #9
    5ae4:	18e1      	adds	r1, r4, r3
    5ae6:	7d09      	ldrb	r1, [r1, #20]
    5ae8:	2900      	cmp	r1, #0
    5aea:	d008      	beq.n	5afe <tcc_init+0x1f6>
    5aec:	9902      	ldr	r1, [sp, #8]
    5aee:	4299      	cmp	r1, r3
    5af0:	dc00      	bgt.n	5af4 <tcc_init+0x1ec>
    5af2:	e725      	b.n	5940 <tcc_init+0x38>
    5af4:	0011      	movs	r1, r2
    5af6:	4099      	lsls	r1, r3
    5af8:	9805      	ldr	r0, [sp, #20]
    5afa:	4308      	orrs	r0, r1
    5afc:	9005      	str	r0, [sp, #20]
    5afe:	3301      	adds	r3, #1
    5b00:	2b04      	cmp	r3, #4
    5b02:	d1ef      	bne.n	5ae4 <tcc_init+0x1dc>
    5b04:	0031      	movs	r1, r6
    5b06:	2300      	movs	r3, #0
    5b08:	1d32      	adds	r2, r6, #4
    5b0a:	3134      	adds	r1, #52	; 0x34
    5b0c:	c208      	stmia	r2!, {r3}
    5b0e:	4291      	cmp	r1, r2
    5b10:	d1fc      	bne.n	5b0c <tcc_init+0x204>
    5b12:	6373      	str	r3, [r6, #52]	; 0x34
    5b14:	63b3      	str	r3, [r6, #56]	; 0x38
    5b16:	4663      	mov	r3, ip
    5b18:	009a      	lsls	r2, r3, #2
    5b1a:	4b42      	ldr	r3, [pc, #264]	; (5c24 <tcc_init+0x31c>)
    5b1c:	a90a      	add	r1, sp, #40	; 0x28
    5b1e:	50d6      	str	r6, [r2, r3]
    5b20:	0023      	movs	r3, r4
    5b22:	6035      	str	r5, [r6, #0]
    5b24:	33a0      	adds	r3, #160	; 0xa0
    5b26:	781b      	ldrb	r3, [r3, #0]
    5b28:	363c      	adds	r6, #60	; 0x3c
    5b2a:	7033      	strb	r3, [r6, #0]
    5b2c:	7aa3      	ldrb	r3, [r4, #10]
    5b2e:	aa0a      	add	r2, sp, #40	; 0x28
    5b30:	7013      	strb	r3, [r2, #0]
    5b32:	4662      	mov	r2, ip
    5b34:	4b3c      	ldr	r3, [pc, #240]	; (5c28 <tcc_init+0x320>)
    5b36:	0027      	movs	r7, r4
    5b38:	5c9e      	ldrb	r6, [r3, r2]
    5b3a:	4b3c      	ldr	r3, [pc, #240]	; (5c2c <tcc_init+0x324>)
    5b3c:	0030      	movs	r0, r6
    5b3e:	4798      	blx	r3
    5b40:	0030      	movs	r0, r6
    5b42:	0026      	movs	r6, r4
    5b44:	4b3a      	ldr	r3, [pc, #232]	; (5c30 <tcc_init+0x328>)
    5b46:	4798      	blx	r3
    5b48:	9b04      	ldr	r3, [sp, #16]
    5b4a:	3698      	adds	r6, #152	; 0x98
    5b4c:	3398      	adds	r3, #152	; 0x98
    5b4e:	18e3      	adds	r3, r4, r3
    5b50:	3758      	adds	r7, #88	; 0x58
    5b52:	9304      	str	r3, [sp, #16]
    5b54:	9b04      	ldr	r3, [sp, #16]
    5b56:	429e      	cmp	r6, r3
    5b58:	d141      	bne.n	5bde <tcc_init+0x2d6>
    5b5a:	9b06      	ldr	r3, [sp, #24]
    5b5c:	9a07      	ldr	r2, [sp, #28]
    5b5e:	031b      	lsls	r3, r3, #12
    5b60:	0212      	lsls	r2, r2, #8
    5b62:	4313      	orrs	r3, r2
    5b64:	9a01      	ldr	r2, [sp, #4]
    5b66:	4313      	orrs	r3, r2
    5b68:	602b      	str	r3, [r5, #0]
    5b6a:	2304      	movs	r3, #4
    5b6c:	68aa      	ldr	r2, [r5, #8]
    5b6e:	421a      	tst	r2, r3
    5b70:	d1fc      	bne.n	5b6c <tcc_init+0x264>
    5b72:	23ff      	movs	r3, #255	; 0xff
    5b74:	712b      	strb	r3, [r5, #4]
    5b76:	3bfb      	subs	r3, #251	; 0xfb
    5b78:	68aa      	ldr	r2, [r5, #8]
    5b7a:	421a      	tst	r2, r3
    5b7c:	d1fc      	bne.n	5b78 <tcc_init+0x270>
    5b7e:	466b      	mov	r3, sp
    5b80:	7b1b      	ldrb	r3, [r3, #12]
    5b82:	716b      	strb	r3, [r5, #5]
    5b84:	9b0c      	ldr	r3, [sp, #48]	; 0x30
    5b86:	60eb      	str	r3, [r5, #12]
    5b88:	9b0d      	ldr	r3, [sp, #52]	; 0x34
    5b8a:	612b      	str	r3, [r5, #16]
    5b8c:	9b00      	ldr	r3, [sp, #0]
    5b8e:	61ab      	str	r3, [r5, #24]
    5b90:	4b28      	ldr	r3, [pc, #160]	; (5c34 <tcc_init+0x32c>)
    5b92:	68aa      	ldr	r2, [r5, #8]
    5b94:	421a      	tst	r2, r3
    5b96:	d1fc      	bne.n	5b92 <tcc_init+0x28a>
    5b98:	9b05      	ldr	r3, [sp, #20]
    5b9a:	63eb      	str	r3, [r5, #60]	; 0x3c
    5b9c:	2310      	movs	r3, #16
    5b9e:	68aa      	ldr	r2, [r5, #8]
    5ba0:	421a      	tst	r2, r3
    5ba2:	d1fc      	bne.n	5b9e <tcc_init+0x296>
    5ba4:	6823      	ldr	r3, [r4, #0]
    5ba6:	4a24      	ldr	r2, [pc, #144]	; (5c38 <tcc_init+0x330>)
    5ba8:	636b      	str	r3, [r5, #52]	; 0x34
    5baa:	68ab      	ldr	r3, [r5, #8]
    5bac:	4013      	ands	r3, r2
    5bae:	d1fc      	bne.n	5baa <tcc_init+0x2a2>
    5bb0:	6862      	ldr	r2, [r4, #4]
    5bb2:	4922      	ldr	r1, [pc, #136]	; (5c3c <tcc_init+0x334>)
    5bb4:	642a      	str	r2, [r5, #64]	; 0x40
    5bb6:	9a02      	ldr	r2, [sp, #8]
    5bb8:	4293      	cmp	r3, r2
    5bba:	da24      	bge.n	5c06 <tcc_init+0x2fe>
    5bbc:	000a      	movs	r2, r1
    5bbe:	409a      	lsls	r2, r3
    5bc0:	68a8      	ldr	r0, [r5, #8]
    5bc2:	4202      	tst	r2, r0
    5bc4:	d1fc      	bne.n	5bc0 <tcc_init+0x2b8>
    5bc6:	009a      	lsls	r2, r3, #2
    5bc8:	18a2      	adds	r2, r4, r2
    5bca:	69d0      	ldr	r0, [r2, #28]
    5bcc:	001a      	movs	r2, r3
    5bce:	3210      	adds	r2, #16
    5bd0:	0092      	lsls	r2, r2, #2
    5bd2:	18aa      	adds	r2, r5, r2
    5bd4:	6050      	str	r0, [r2, #4]
    5bd6:	3301      	adds	r3, #1
    5bd8:	e7ed      	b.n	5bb6 <tcc_init+0x2ae>
    5bda:	0002      	movs	r2, r0
    5bdc:	e76f      	b.n	5abe <tcc_init+0x1b6>
    5bde:	7833      	ldrb	r3, [r6, #0]
    5be0:	2b00      	cmp	r3, #0
    5be2:	d00d      	beq.n	5c00 <tcc_init+0x2f8>
    5be4:	2301      	movs	r3, #1
    5be6:	a90b      	add	r1, sp, #44	; 0x2c
    5be8:	708b      	strb	r3, [r1, #2]
    5bea:	2300      	movs	r3, #0
    5bec:	70cb      	strb	r3, [r1, #3]
    5bee:	3320      	adds	r3, #32
    5bf0:	18fb      	adds	r3, r7, r3
    5bf2:	781b      	ldrb	r3, [r3, #0]
    5bf4:	7838      	ldrb	r0, [r7, #0]
    5bf6:	700b      	strb	r3, [r1, #0]
    5bf8:	2301      	movs	r3, #1
    5bfa:	704b      	strb	r3, [r1, #1]
    5bfc:	4b10      	ldr	r3, [pc, #64]	; (5c40 <tcc_init+0x338>)
    5bfe:	4798      	blx	r3
    5c00:	3601      	adds	r6, #1
    5c02:	3704      	adds	r7, #4
    5c04:	e7a6      	b.n	5b54 <tcc_init+0x24c>
    5c06:	2000      	movs	r0, #0
    5c08:	e69b      	b.n	5942 <tcc_init+0x3a>
    5c0a:	46c0      	nop			; (mov r8, r8)
    5c0c:	000057e5 	.word	0x000057e5
    5c10:	40000400 	.word	0x40000400
    5c14:	0000d62c 	.word	0x0000d62c
    5c18:	0000d640 	.word	0x0000d640
    5c1c:	0000d64c 	.word	0x0000d64c
    5c20:	0000d638 	.word	0x0000d638
    5c24:	20001874 	.word	0x20001874
    5c28:	0000d63b 	.word	0x0000d63b
    5c2c:	0000774d 	.word	0x0000774d
    5c30:	000076c5 	.word	0x000076c5
    5c34:	00020040 	.word	0x00020040
    5c38:	00040080 	.word	0x00040080
    5c3c:	00080100 	.word	0x00080100
    5c40:	00007821 	.word	0x00007821

00005c44 <tcc_register_callback>:
    5c44:	0092      	lsls	r2, r2, #2
    5c46:	1883      	adds	r3, r0, r2
    5c48:	6059      	str	r1, [r3, #4]
    5c4a:	4b03      	ldr	r3, [pc, #12]	; (5c58 <tcc_register_callback+0x14>)
    5c4c:	58d3      	ldr	r3, [r2, r3]
    5c4e:	6b42      	ldr	r2, [r0, #52]	; 0x34
    5c50:	4313      	orrs	r3, r2
    5c52:	6343      	str	r3, [r0, #52]	; 0x34
    5c54:	2000      	movs	r0, #0
    5c56:	4770      	bx	lr
    5c58:	0000d650 	.word	0x0000d650

00005c5c <tcc_enable_callback>:
    5c5c:	b570      	push	{r4, r5, r6, lr}
    5c5e:	4b0b      	ldr	r3, [pc, #44]	; (5c8c <tcc_enable_callback+0x30>)
    5c60:	0004      	movs	r4, r0
    5c62:	6800      	ldr	r0, [r0, #0]
    5c64:	000d      	movs	r5, r1
    5c66:	4798      	blx	r3
    5c68:	4b09      	ldr	r3, [pc, #36]	; (5c90 <tcc_enable_callback+0x34>)
    5c6a:	00ad      	lsls	r5, r5, #2
    5c6c:	5c1a      	ldrb	r2, [r3, r0]
    5c6e:	231f      	movs	r3, #31
    5c70:	401a      	ands	r2, r3
    5c72:	3b1e      	subs	r3, #30
    5c74:	4093      	lsls	r3, r2
    5c76:	4a07      	ldr	r2, [pc, #28]	; (5c94 <tcc_enable_callback+0x38>)
    5c78:	6013      	str	r3, [r2, #0]
    5c7a:	4b07      	ldr	r3, [pc, #28]	; (5c98 <tcc_enable_callback+0x3c>)
    5c7c:	58ea      	ldr	r2, [r5, r3]
    5c7e:	6ba3      	ldr	r3, [r4, #56]	; 0x38
    5c80:	4313      	orrs	r3, r2
    5c82:	63a3      	str	r3, [r4, #56]	; 0x38
    5c84:	6823      	ldr	r3, [r4, #0]
    5c86:	629a      	str	r2, [r3, #40]	; 0x28
    5c88:	bd70      	pop	{r4, r5, r6, pc}
    5c8a:	46c0      	nop			; (mov r8, r8)
    5c8c:	000057e5 	.word	0x000057e5
    5c90:	0000d680 	.word	0x0000d680
    5c94:	e000e100 	.word	0xe000e100
    5c98:	0000d650 	.word	0x0000d650

00005c9c <_tcc_interrupt_handler>:
    5c9c:	b5f8      	push	{r3, r4, r5, r6, r7, lr}
    5c9e:	2500      	movs	r5, #0
    5ca0:	4b0b      	ldr	r3, [pc, #44]	; (5cd0 <_tcc_interrupt_handler+0x34>)
    5ca2:	0080      	lsls	r0, r0, #2
    5ca4:	58c4      	ldr	r4, [r0, r3]
    5ca6:	6823      	ldr	r3, [r4, #0]
    5ca8:	6b62      	ldr	r2, [r4, #52]	; 0x34
    5caa:	6ade      	ldr	r6, [r3, #44]	; 0x2c
    5cac:	6ba3      	ldr	r3, [r4, #56]	; 0x38
    5cae:	4013      	ands	r3, r2
    5cb0:	401e      	ands	r6, r3
    5cb2:	4b08      	ldr	r3, [pc, #32]	; (5cd4 <_tcc_interrupt_handler+0x38>)
    5cb4:	58ef      	ldr	r7, [r5, r3]
    5cb6:	4237      	tst	r7, r6
    5cb8:	d005      	beq.n	5cc6 <_tcc_interrupt_handler+0x2a>
    5cba:	1963      	adds	r3, r4, r5
    5cbc:	685b      	ldr	r3, [r3, #4]
    5cbe:	0020      	movs	r0, r4
    5cc0:	4798      	blx	r3
    5cc2:	6823      	ldr	r3, [r4, #0]
    5cc4:	62df      	str	r7, [r3, #44]	; 0x2c
    5cc6:	3504      	adds	r5, #4
    5cc8:	2d30      	cmp	r5, #48	; 0x30
    5cca:	d1f2      	bne.n	5cb2 <_tcc_interrupt_handler+0x16>
    5ccc:	bdf8      	pop	{r3, r4, r5, r6, r7, pc}
    5cce:	46c0      	nop			; (mov r8, r8)
    5cd0:	20001874 	.word	0x20001874
    5cd4:	0000d650 	.word	0x0000d650

00005cd8 <TCC0_Handler>:
    5cd8:	b510      	push	{r4, lr}
    5cda:	2000      	movs	r0, #0
    5cdc:	4b01      	ldr	r3, [pc, #4]	; (5ce4 <TCC0_Handler+0xc>)
    5cde:	4798      	blx	r3
    5ce0:	bd10      	pop	{r4, pc}
    5ce2:	46c0      	nop			; (mov r8, r8)
    5ce4:	00005c9d 	.word	0x00005c9d

00005ce8 <TCC1_Handler>:
    5ce8:	b510      	push	{r4, lr}
    5cea:	2001      	movs	r0, #1
    5cec:	4b01      	ldr	r3, [pc, #4]	; (5cf4 <TCC1_Handler+0xc>)
    5cee:	4798      	blx	r3
    5cf0:	bd10      	pop	{r4, pc}
    5cf2:	46c0      	nop			; (mov r8, r8)
    5cf4:	00005c9d 	.word	0x00005c9d

00005cf8 <TCC2_Handler>:
    5cf8:	b510      	push	{r4, lr}
    5cfa:	2002      	movs	r0, #2
    5cfc:	4b01      	ldr	r3, [pc, #4]	; (5d04 <TCC2_Handler+0xc>)
    5cfe:	4798      	blx	r3
    5d00:	bd10      	pop	{r4, pc}
    5d02:	46c0      	nop			; (mov r8, r8)
    5d04:	00005c9d 	.word	0x00005c9d

00005d08 <readRegister>:
    5d08:	b5f7      	push	{r0, r1, r2, r4, r5, r6, r7, lr}
    5d0a:	2201      	movs	r2, #1
    5d0c:	266a      	movs	r6, #106	; 0x6a
    5d0e:	4b11      	ldr	r3, [pc, #68]	; (5d54 <readRegister+0x4c>)
    5d10:	4d11      	ldr	r5, [pc, #68]	; (5d58 <readRegister+0x50>)
    5d12:	805a      	strh	r2, [r3, #2]
    5d14:	4a11      	ldr	r2, [pc, #68]	; (5d5c <readRegister+0x54>)
    5d16:	9000      	str	r0, [sp, #0]
    5d18:	7011      	strb	r1, [r2, #0]
    5d1a:	605a      	str	r2, [r3, #4]
    5d1c:	0019      	movs	r1, r3
    5d1e:	801e      	strh	r6, [r3, #0]
    5d20:	0028      	movs	r0, r5
    5d22:	4b0f      	ldr	r3, [pc, #60]	; (5d60 <readRegister+0x58>)
    5d24:	4798      	blx	r3
    5d26:	4f0f      	ldr	r7, [pc, #60]	; (5d64 <readRegister+0x5c>)
    5d28:	9001      	str	r0, [sp, #4]
    5d2a:	2032      	movs	r0, #50	; 0x32
    5d2c:	47b8      	blx	r7
    5d2e:	9b01      	ldr	r3, [sp, #4]
    5d30:	4c0d      	ldr	r4, [pc, #52]	; (5d68 <readRegister+0x60>)
    5d32:	2b00      	cmp	r3, #0
    5d34:	d108      	bne.n	5d48 <readRegister+0x40>
    5d36:	3301      	adds	r3, #1
    5d38:	8063      	strh	r3, [r4, #2]
    5d3a:	0021      	movs	r1, r4
    5d3c:	0028      	movs	r0, r5
    5d3e:	4b0b      	ldr	r3, [pc, #44]	; (5d6c <readRegister+0x64>)
    5d40:	8026      	strh	r6, [r4, #0]
    5d42:	4798      	blx	r3
    5d44:	2032      	movs	r0, #50	; 0x32
    5d46:	47b8      	blx	r7
    5d48:	6863      	ldr	r3, [r4, #4]
    5d4a:	9a00      	ldr	r2, [sp, #0]
    5d4c:	781b      	ldrb	r3, [r3, #0]
    5d4e:	2000      	movs	r0, #0
    5d50:	7013      	strb	r3, [r2, #0]
    5d52:	bdfe      	pop	{r1, r2, r3, r4, r5, r6, r7, pc}
    5d54:	20000018 	.word	0x20000018
    5d58:	20001a10 	.word	0x20001a10
    5d5c:	20000238 	.word	0x20000238
    5d60:	000057d1 	.word	0x000057d1
    5d64:	00002669 	.word	0x00002669
    5d68:	2000000c 	.word	0x2000000c
    5d6c:	000057bd 	.word	0x000057bd

00005d70 <checkChipPrecense>:
    5d70:	b513      	push	{r0, r1, r4, lr}
    5d72:	466b      	mov	r3, sp
    5d74:	1ddc      	adds	r4, r3, #7
    5d76:	210f      	movs	r1, #15
    5d78:	4b04      	ldr	r3, [pc, #16]	; (5d8c <checkChipPrecense+0x1c>)
    5d7a:	0020      	movs	r0, r4
    5d7c:	4798      	blx	r3
    5d7e:	7820      	ldrb	r0, [r4, #0]
    5d80:	3869      	subs	r0, #105	; 0x69
    5d82:	1e43      	subs	r3, r0, #1
    5d84:	4198      	sbcs	r0, r3
    5d86:	b2c0      	uxtb	r0, r0
    5d88:	bd16      	pop	{r1, r2, r4, pc}
    5d8a:	46c0      	nop			; (mov r8, r8)
    5d8c:	00005d09 	.word	0x00005d09

00005d90 <writeRegister>:
    5d90:	226a      	movs	r2, #106	; 0x6a
    5d92:	4b09      	ldr	r3, [pc, #36]	; (5db8 <writeRegister+0x28>)
    5d94:	b510      	push	{r4, lr}
    5d96:	801a      	strh	r2, [r3, #0]
    5d98:	3a68      	subs	r2, #104	; 0x68
    5d9a:	805a      	strh	r2, [r3, #2]
    5d9c:	4a07      	ldr	r2, [pc, #28]	; (5dbc <writeRegister+0x2c>)
    5d9e:	7010      	strb	r0, [r2, #0]
    5da0:	7051      	strb	r1, [r2, #1]
    5da2:	605a      	str	r2, [r3, #4]
    5da4:	0019      	movs	r1, r3
    5da6:	4806      	ldr	r0, [pc, #24]	; (5dc0 <writeRegister+0x30>)
    5da8:	4b06      	ldr	r3, [pc, #24]	; (5dc4 <writeRegister+0x34>)
    5daa:	4798      	blx	r3
    5dac:	2032      	movs	r0, #50	; 0x32
    5dae:	4b06      	ldr	r3, [pc, #24]	; (5dc8 <writeRegister+0x38>)
    5db0:	4798      	blx	r3
    5db2:	2000      	movs	r0, #0
    5db4:	bd10      	pop	{r4, pc}
    5db6:	46c0      	nop			; (mov r8, r8)
    5db8:	20000018 	.word	0x20000018
    5dbc:	20000238 	.word	0x20000238
    5dc0:	20001a10 	.word	0x20001a10
    5dc4:	000057d1 	.word	0x000057d1
    5dc8:	00002669 	.word	0x00002669

00005dcc <setDefaultSettings>:
    5dcc:	2201      	movs	r2, #1
    5dce:	21fa      	movs	r1, #250	; 0xfa
    5dd0:	4b0f      	ldr	r3, [pc, #60]	; (5e10 <setDefaultSettings+0x44>)
    5dd2:	b530      	push	{r4, r5, lr}
    5dd4:	701a      	strb	r2, [r3, #0]
    5dd6:	725a      	strb	r2, [r3, #9]
    5dd8:	729a      	strb	r2, [r3, #10]
    5dda:	72da      	strb	r2, [r3, #11]
    5ddc:	74da      	strb	r2, [r3, #19]
    5dde:	751a      	strb	r2, [r3, #20]
    5de0:	4a0c      	ldr	r2, [pc, #48]	; (5e14 <setDefaultSettings+0x48>)
    5de2:	00c9      	lsls	r1, r1, #3
    5de4:	20c8      	movs	r0, #200	; 0xc8
    5de6:	8059      	strh	r1, [r3, #2]
    5de8:	240d      	movs	r4, #13
    5dea:	2100      	movs	r1, #0
    5dec:	2510      	movs	r5, #16
    5dee:	82da      	strh	r2, [r3, #22]
    5df0:	220a      	movs	r2, #10
    5df2:	0040      	lsls	r0, r0, #1
    5df4:	819d      	strh	r5, [r3, #12]
    5df6:	809c      	strh	r4, [r3, #4]
    5df8:	80d8      	strh	r0, [r3, #6]
    5dfa:	7219      	strb	r1, [r3, #8]
    5dfc:	81dc      	strh	r4, [r3, #14]
    5dfe:	8218      	strh	r0, [r3, #16]
    5e00:	7499      	strb	r1, [r3, #18]
    5e02:	831a      	strh	r2, [r3, #24]
    5e04:	7699      	strb	r1, [r3, #26]
    5e06:	4b04      	ldr	r3, [pc, #16]	; (5e18 <setDefaultSettings+0x4c>)
    5e08:	8019      	strh	r1, [r3, #0]
    5e0a:	4b04      	ldr	r3, [pc, #16]	; (5e1c <setDefaultSettings+0x50>)
    5e0c:	8019      	strh	r1, [r3, #0]
    5e0e:	bd30      	pop	{r4, r5, pc}
    5e10:	20001880 	.word	0x20001880
    5e14:	00000bb8 	.word	0x00000bb8
    5e18:	2000189c 	.word	0x2000189c
    5e1c:	2000189e 	.word	0x2000189e

00005e20 <begin>:
    5e20:	b5f7      	push	{r0, r1, r2, r4, r5, r6, r7, lr}
    5e22:	466b      	mov	r3, sp
    5e24:	2500      	movs	r5, #0
    5e26:	1ddc      	adds	r4, r3, #7
    5e28:	4b65      	ldr	r3, [pc, #404]	; (5fc0 <begin+0x1a0>)
    5e2a:	7025      	strb	r5, [r4, #0]
    5e2c:	4798      	blx	r3
    5e2e:	7025      	strb	r5, [r4, #0]
    5e30:	4d64      	ldr	r5, [pc, #400]	; (5fc4 <begin+0x1a4>)
    5e32:	0006      	movs	r6, r0
    5e34:	7aaa      	ldrb	r2, [r5, #10]
    5e36:	2a01      	cmp	r2, #1
    5e38:	d14e      	bne.n	5ed8 <begin+0xb8>
    5e3a:	8a2b      	ldrh	r3, [r5, #16]
    5e3c:	2b64      	cmp	r3, #100	; 0x64
    5e3e:	d01a      	beq.n	5e76 <begin+0x56>
    5e40:	2bc8      	cmp	r3, #200	; 0xc8
    5e42:	d01a      	beq.n	5e7a <begin+0x5a>
    5e44:	2b32      	cmp	r3, #50	; 0x32
    5e46:	d101      	bne.n	5e4c <begin+0x2c>
    5e48:	3b2f      	subs	r3, #47	; 0x2f
    5e4a:	7023      	strb	r3, [r4, #0]
    5e4c:	89ab      	ldrh	r3, [r5, #12]
    5e4e:	2b04      	cmp	r3, #4
    5e50:	d015      	beq.n	5e7e <begin+0x5e>
    5e52:	2b08      	cmp	r3, #8
    5e54:	d018      	beq.n	5e88 <begin+0x68>
    5e56:	2b02      	cmp	r3, #2
    5e58:	d119      	bne.n	5e8e <begin+0x6e>
    5e5a:	22d0      	movs	r2, #208	; 0xd0
    5e5c:	89eb      	ldrh	r3, [r5, #14]
    5e5e:	0052      	lsls	r2, r2, #1
    5e60:	4293      	cmp	r3, r2
    5e62:	d061      	beq.n	5f28 <begin+0x108>
    5e64:	d81d      	bhi.n	5ea2 <begin+0x82>
    5e66:	2b1a      	cmp	r3, #26
    5e68:	d058      	beq.n	5f1c <begin+0xfc>
    5e6a:	d813      	bhi.n	5e94 <begin+0x74>
    5e6c:	2b0d      	cmp	r3, #13
    5e6e:	d02f      	beq.n	5ed0 <begin+0xb0>
    5e70:	7822      	ldrb	r2, [r4, #0]
    5e72:	2340      	movs	r3, #64	; 0x40
    5e74:	e02e      	b.n	5ed4 <begin+0xb4>
    5e76:	2302      	movs	r3, #2
    5e78:	e7e7      	b.n	5e4a <begin+0x2a>
    5e7a:	7022      	strb	r2, [r4, #0]
    5e7c:	e7e6      	b.n	5e4c <begin+0x2c>
    5e7e:	2308      	movs	r3, #8
    5e80:	7822      	ldrb	r2, [r4, #0]
    5e82:	4313      	orrs	r3, r2
    5e84:	7023      	strb	r3, [r4, #0]
    5e86:	e7e8      	b.n	5e5a <begin+0x3a>
    5e88:	7822      	ldrb	r2, [r4, #0]
    5e8a:	230c      	movs	r3, #12
    5e8c:	e7f9      	b.n	5e82 <begin+0x62>
    5e8e:	7822      	ldrb	r2, [r4, #0]
    5e90:	2304      	movs	r3, #4
    5e92:	e7f6      	b.n	5e82 <begin+0x62>
    5e94:	2b34      	cmp	r3, #52	; 0x34
    5e96:	d044      	beq.n	5f22 <begin+0x102>
    5e98:	2bd0      	cmp	r3, #208	; 0xd0
    5e9a:	d1e9      	bne.n	5e70 <begin+0x50>
    5e9c:	7822      	ldrb	r2, [r4, #0]
    5e9e:	2350      	movs	r3, #80	; 0x50
    5ea0:	e018      	b.n	5ed4 <begin+0xb4>
    5ea2:	4a49      	ldr	r2, [pc, #292]	; (5fc8 <begin+0x1a8>)
    5ea4:	4293      	cmp	r3, r2
    5ea6:	d045      	beq.n	5f34 <begin+0x114>
    5ea8:	d809      	bhi.n	5ebe <begin+0x9e>
    5eaa:	4a48      	ldr	r2, [pc, #288]	; (5fcc <begin+0x1ac>)
    5eac:	4293      	cmp	r3, r2
    5eae:	d03e      	beq.n	5f2e <begin+0x10e>
    5eb0:	4a47      	ldr	r2, [pc, #284]	; (5fd0 <begin+0x1b0>)
    5eb2:	4293      	cmp	r3, r2
    5eb4:	d1dc      	bne.n	5e70 <begin+0x50>
    5eb6:	2380      	movs	r3, #128	; 0x80
    5eb8:	7822      	ldrb	r2, [r4, #0]
    5eba:	425b      	negs	r3, r3
    5ebc:	e00a      	b.n	5ed4 <begin+0xb4>
    5ebe:	4a45      	ldr	r2, [pc, #276]	; (5fd4 <begin+0x1b4>)
    5ec0:	4293      	cmp	r3, r2
    5ec2:	d03a      	beq.n	5f3a <begin+0x11a>
    5ec4:	4a44      	ldr	r2, [pc, #272]	; (5fd8 <begin+0x1b8>)
    5ec6:	4293      	cmp	r3, r2
    5ec8:	d1d2      	bne.n	5e70 <begin+0x50>
    5eca:	7822      	ldrb	r2, [r4, #0]
    5ecc:	2350      	movs	r3, #80	; 0x50
    5ece:	e7f4      	b.n	5eba <begin+0x9a>
    5ed0:	2310      	movs	r3, #16
    5ed2:	7822      	ldrb	r2, [r4, #0]
    5ed4:	4313      	orrs	r3, r2
    5ed6:	7023      	strb	r3, [r4, #0]
    5ed8:	7821      	ldrb	r1, [r4, #0]
    5eda:	2010      	movs	r0, #16
    5edc:	4f3f      	ldr	r7, [pc, #252]	; (5fdc <begin+0x1bc>)
    5ede:	47b8      	blx	r7
    5ee0:	4b3f      	ldr	r3, [pc, #252]	; (5fe0 <begin+0x1c0>)
    5ee2:	2113      	movs	r1, #19
    5ee4:	0020      	movs	r0, r4
    5ee6:	4798      	blx	r3
    5ee8:	227f      	movs	r2, #127	; 0x7f
    5eea:	7823      	ldrb	r3, [r4, #0]
    5eec:	4013      	ands	r3, r2
    5eee:	7023      	strb	r3, [r4, #0]
    5ef0:	7aea      	ldrb	r2, [r5, #11]
    5ef2:	2a01      	cmp	r2, #1
    5ef4:	d102      	bne.n	5efc <begin+0xdc>
    5ef6:	3a81      	subs	r2, #129	; 0x81
    5ef8:	4313      	orrs	r3, r2
    5efa:	7023      	strb	r3, [r4, #0]
    5efc:	7821      	ldrb	r1, [r4, #0]
    5efe:	2013      	movs	r0, #19
    5f00:	47b8      	blx	r7
    5f02:	2300      	movs	r3, #0
    5f04:	7023      	strb	r3, [r4, #0]
    5f06:	782b      	ldrb	r3, [r5, #0]
    5f08:	2b01      	cmp	r3, #1
    5f0a:	d132      	bne.n	5f72 <begin+0x152>
    5f0c:	886b      	ldrh	r3, [r5, #2]
    5f0e:	2bf5      	cmp	r3, #245	; 0xf5
    5f10:	d021      	beq.n	5f56 <begin+0x136>
    5f12:	d815      	bhi.n	5f40 <begin+0x120>
    5f14:	2b7d      	cmp	r3, #125	; 0x7d
    5f16:	d01c      	beq.n	5f52 <begin+0x132>
    5f18:	230c      	movs	r3, #12
    5f1a:	e01b      	b.n	5f54 <begin+0x134>
    5f1c:	7822      	ldrb	r2, [r4, #0]
    5f1e:	2320      	movs	r3, #32
    5f20:	e7d8      	b.n	5ed4 <begin+0xb4>
    5f22:	7822      	ldrb	r2, [r4, #0]
    5f24:	2330      	movs	r3, #48	; 0x30
    5f26:	e7d5      	b.n	5ed4 <begin+0xb4>
    5f28:	7822      	ldrb	r2, [r4, #0]
    5f2a:	2360      	movs	r3, #96	; 0x60
    5f2c:	e7d2      	b.n	5ed4 <begin+0xb4>
    5f2e:	7822      	ldrb	r2, [r4, #0]
    5f30:	2370      	movs	r3, #112	; 0x70
    5f32:	e7cf      	b.n	5ed4 <begin+0xb4>
    5f34:	7822      	ldrb	r2, [r4, #0]
    5f36:	2370      	movs	r3, #112	; 0x70
    5f38:	e7bf      	b.n	5eba <begin+0x9a>
    5f3a:	7822      	ldrb	r2, [r4, #0]
    5f3c:	2360      	movs	r3, #96	; 0x60
    5f3e:	e7bc      	b.n	5eba <begin+0x9a>
    5f40:	22fa      	movs	r2, #250	; 0xfa
    5f42:	0052      	lsls	r2, r2, #1
    5f44:	4293      	cmp	r3, r2
    5f46:	d019      	beq.n	5f7c <begin+0x15c>
    5f48:	1892      	adds	r2, r2, r2
    5f4a:	4293      	cmp	r3, r2
    5f4c:	d1e4      	bne.n	5f18 <begin+0xf8>
    5f4e:	2308      	movs	r3, #8
    5f50:	e000      	b.n	5f54 <begin+0x134>
    5f52:	2302      	movs	r3, #2
    5f54:	7023      	strb	r3, [r4, #0]
    5f56:	88ab      	ldrh	r3, [r5, #4]
    5f58:	2bd0      	cmp	r3, #208	; 0xd0
    5f5a:	d027      	beq.n	5fac <begin+0x18c>
    5f5c:	d810      	bhi.n	5f80 <begin+0x160>
    5f5e:	2b1a      	cmp	r3, #26
    5f60:	d01b      	beq.n	5f9a <begin+0x17a>
    5f62:	2b34      	cmp	r3, #52	; 0x34
    5f64:	d01c      	beq.n	5fa0 <begin+0x180>
    5f66:	2b0d      	cmp	r3, #13
    5f68:	d11d      	bne.n	5fa6 <begin+0x186>
    5f6a:	2310      	movs	r3, #16
    5f6c:	7822      	ldrb	r2, [r4, #0]
    5f6e:	4313      	orrs	r3, r2
    5f70:	7023      	strb	r3, [r4, #0]
    5f72:	7821      	ldrb	r1, [r4, #0]
    5f74:	2011      	movs	r0, #17
    5f76:	47b8      	blx	r7
    5f78:	0030      	movs	r0, r6
    5f7a:	bdfe      	pop	{r1, r2, r3, r4, r5, r6, r7, pc}
    5f7c:	2304      	movs	r3, #4
    5f7e:	e7e9      	b.n	5f54 <begin+0x134>
    5f80:	4a12      	ldr	r2, [pc, #72]	; (5fcc <begin+0x1ac>)
    5f82:	4293      	cmp	r3, r2
    5f84:	d015      	beq.n	5fb2 <begin+0x192>
    5f86:	4a12      	ldr	r2, [pc, #72]	; (5fd0 <begin+0x1b0>)
    5f88:	4293      	cmp	r3, r2
    5f8a:	d015      	beq.n	5fb8 <begin+0x198>
    5f8c:	22d0      	movs	r2, #208	; 0xd0
    5f8e:	0052      	lsls	r2, r2, #1
    5f90:	4293      	cmp	r3, r2
    5f92:	d108      	bne.n	5fa6 <begin+0x186>
    5f94:	7822      	ldrb	r2, [r4, #0]
    5f96:	2360      	movs	r3, #96	; 0x60
    5f98:	e7e9      	b.n	5f6e <begin+0x14e>
    5f9a:	7822      	ldrb	r2, [r4, #0]
    5f9c:	2320      	movs	r3, #32
    5f9e:	e7e6      	b.n	5f6e <begin+0x14e>
    5fa0:	7822      	ldrb	r2, [r4, #0]
    5fa2:	2330      	movs	r3, #48	; 0x30
    5fa4:	e7e3      	b.n	5f6e <begin+0x14e>
    5fa6:	7822      	ldrb	r2, [r4, #0]
    5fa8:	2340      	movs	r3, #64	; 0x40
    5faa:	e7e0      	b.n	5f6e <begin+0x14e>
    5fac:	7822      	ldrb	r2, [r4, #0]
    5fae:	2350      	movs	r3, #80	; 0x50
    5fb0:	e7dd      	b.n	5f6e <begin+0x14e>
    5fb2:	7822      	ldrb	r2, [r4, #0]
    5fb4:	2370      	movs	r3, #112	; 0x70
    5fb6:	e7da      	b.n	5f6e <begin+0x14e>
    5fb8:	2380      	movs	r3, #128	; 0x80
    5fba:	7822      	ldrb	r2, [r4, #0]
    5fbc:	425b      	negs	r3, r3
    5fbe:	e7d6      	b.n	5f6e <begin+0x14e>
    5fc0:	00005d71 	.word	0x00005d71
    5fc4:	20001880 	.word	0x20001880
    5fc8:	00000d02 	.word	0x00000d02
    5fcc:	00000341 	.word	0x00000341
    5fd0:	0000067c 	.word	0x0000067c
    5fd4:	00001a04 	.word	0x00001a04
    5fd8:	00003412 	.word	0x00003412
    5fdc:	00005d91 	.word	0x00005d91
    5fe0:	00005d09 	.word	0x00005d09

00005fe4 <lsm6ds3_init>:
    5fe4:	b510      	push	{r4, lr}
    5fe6:	4b03      	ldr	r3, [pc, #12]	; (5ff4 <lsm6ds3_init+0x10>)
    5fe8:	4798      	blx	r3
    5fea:	4b03      	ldr	r3, [pc, #12]	; (5ff8 <lsm6ds3_init+0x14>)
    5fec:	4798      	blx	r3
    5fee:	4b03      	ldr	r3, [pc, #12]	; (5ffc <lsm6ds3_init+0x18>)
    5ff0:	4798      	blx	r3
    5ff2:	bd10      	pop	{r4, pc}
    5ff4:	00005d71 	.word	0x00005d71
    5ff8:	00005dcd 	.word	0x00005dcd
    5ffc:	00005e21 	.word	0x00005e21

00006000 <nvm_is_ready>:
    6000:	4b02      	ldr	r3, [pc, #8]	; (600c <nvm_is_ready+0xc>)
    6002:	7d18      	ldrb	r0, [r3, #20]
    6004:	2301      	movs	r3, #1
    6006:	4018      	ands	r0, r3
    6008:	4770      	bx	lr
    600a:	46c0      	nop			; (mov r8, r8)
    600c:	41004000 	.word	0x41004000

00006010 <nvm_set_config>:
    6010:	2304      	movs	r3, #4
    6012:	b570      	push	{r4, r5, r6, lr}
    6014:	4a1c      	ldr	r2, [pc, #112]	; (6088 <nvm_set_config+0x78>)
    6016:	4d1d      	ldr	r5, [pc, #116]	; (608c <nvm_set_config+0x7c>)
    6018:	69d1      	ldr	r1, [r2, #28]
    601a:	0004      	movs	r4, r0
    601c:	430b      	orrs	r3, r1
    601e:	61d3      	str	r3, [r2, #28]
    6020:	2320      	movs	r3, #32
    6022:	33ff      	adds	r3, #255	; 0xff
    6024:	832b      	strh	r3, [r5, #24]
    6026:	4b1a      	ldr	r3, [pc, #104]	; (6090 <nvm_set_config+0x80>)
    6028:	4798      	blx	r3
    602a:	0003      	movs	r3, r0
    602c:	2005      	movs	r0, #5
    602e:	2b00      	cmp	r3, #0
    6030:	d028      	beq.n	6084 <nvm_set_config+0x74>
    6032:	22c0      	movs	r2, #192	; 0xc0
    6034:	211e      	movs	r1, #30
    6036:	7823      	ldrb	r3, [r4, #0]
    6038:	0092      	lsls	r2, r2, #2
    603a:	021b      	lsls	r3, r3, #8
    603c:	4013      	ands	r3, r2
    603e:	78a2      	ldrb	r2, [r4, #2]
    6040:	0052      	lsls	r2, r2, #1
    6042:	400a      	ands	r2, r1
    6044:	2180      	movs	r1, #128	; 0x80
    6046:	4313      	orrs	r3, r2
    6048:	7862      	ldrb	r2, [r4, #1]
    604a:	02c9      	lsls	r1, r1, #11
    604c:	01d2      	lsls	r2, r2, #7
    604e:	4313      	orrs	r3, r2
    6050:	78e2      	ldrb	r2, [r4, #3]
    6052:	0492      	lsls	r2, r2, #18
    6054:	400a      	ands	r2, r1
    6056:	21c0      	movs	r1, #192	; 0xc0
    6058:	4313      	orrs	r3, r2
    605a:	7922      	ldrb	r2, [r4, #4]
    605c:	0289      	lsls	r1, r1, #10
    605e:	0412      	lsls	r2, r2, #16
    6060:	400a      	ands	r2, r1
    6062:	2108      	movs	r1, #8
    6064:	4313      	orrs	r3, r2
    6066:	606b      	str	r3, [r5, #4]
    6068:	68ab      	ldr	r3, [r5, #8]
    606a:	4a0a      	ldr	r2, [pc, #40]	; (6094 <nvm_set_config+0x84>)
    606c:	035b      	lsls	r3, r3, #13
    606e:	0f5b      	lsrs	r3, r3, #29
    6070:	4099      	lsls	r1, r3
    6072:	8011      	strh	r1, [r2, #0]
    6074:	68ab      	ldr	r3, [r5, #8]
    6076:	8053      	strh	r3, [r2, #2]
    6078:	7863      	ldrb	r3, [r4, #1]
    607a:	7113      	strb	r3, [r2, #4]
    607c:	8b28      	ldrh	r0, [r5, #24]
    607e:	05c0      	lsls	r0, r0, #23
    6080:	0fc0      	lsrs	r0, r0, #31
    6082:	0100      	lsls	r0, r0, #4
    6084:	bd70      	pop	{r4, r5, r6, pc}
    6086:	46c0      	nop			; (mov r8, r8)
    6088:	40000400 	.word	0x40000400
    608c:	41004000 	.word	0x41004000
    6090:	00006001 	.word	0x00006001
    6094:	20000242 	.word	0x20000242

00006098 <nvm_execute_command>:
    6098:	b5f7      	push	{r0, r1, r2, r4, r5, r6, r7, lr}
    609a:	4a24      	ldr	r2, [pc, #144]	; (612c <nvm_execute_command+0x94>)
    609c:	9101      	str	r1, [sp, #4]
    609e:	8853      	ldrh	r3, [r2, #2]
    60a0:	8811      	ldrh	r1, [r2, #0]
    60a2:	9a01      	ldr	r2, [sp, #4]
    60a4:	434b      	muls	r3, r1
    60a6:	0004      	movs	r4, r0
    60a8:	4293      	cmp	r3, r2
    60aa:	d207      	bcs.n	60bc <nvm_execute_command+0x24>
    60ac:	2280      	movs	r2, #128	; 0x80
    60ae:	9b01      	ldr	r3, [sp, #4]
    60b0:	491f      	ldr	r1, [pc, #124]	; (6130 <nvm_execute_command+0x98>)
    60b2:	0192      	lsls	r2, r2, #6
    60b4:	185b      	adds	r3, r3, r1
    60b6:	2018      	movs	r0, #24
    60b8:	4293      	cmp	r3, r2
    60ba:	d80f      	bhi.n	60dc <nvm_execute_command+0x44>
    60bc:	2380      	movs	r3, #128	; 0x80
    60be:	4d1d      	ldr	r5, [pc, #116]	; (6134 <nvm_execute_command+0x9c>)
    60c0:	02db      	lsls	r3, r3, #11
    60c2:	686f      	ldr	r7, [r5, #4]
    60c4:	002e      	movs	r6, r5
    60c6:	433b      	orrs	r3, r7
    60c8:	606b      	str	r3, [r5, #4]
    60ca:	2320      	movs	r3, #32
    60cc:	33ff      	adds	r3, #255	; 0xff
    60ce:	832b      	strh	r3, [r5, #24]
    60d0:	4b19      	ldr	r3, [pc, #100]	; (6138 <nvm_execute_command+0xa0>)
    60d2:	4798      	blx	r3
    60d4:	2800      	cmp	r0, #0
    60d6:	d102      	bne.n	60de <nvm_execute_command+0x46>
    60d8:	606f      	str	r7, [r5, #4]
    60da:	3005      	adds	r0, #5
    60dc:	bdfe      	pop	{r1, r2, r3, r4, r5, r6, r7, pc}
    60de:	2c06      	cmp	r4, #6
    60e0:	d814      	bhi.n	610c <nvm_execute_command+0x74>
    60e2:	2c05      	cmp	r4, #5
    60e4:	d21b      	bcs.n	611e <nvm_execute_command+0x86>
    60e6:	2c02      	cmp	r4, #2
    60e8:	d001      	beq.n	60ee <nvm_execute_command+0x56>
    60ea:	2c04      	cmp	r4, #4
    60ec:	d114      	bne.n	6118 <nvm_execute_command+0x80>
    60ee:	9b01      	ldr	r3, [sp, #4]
    60f0:	089b      	lsrs	r3, r3, #2
    60f2:	005b      	lsls	r3, r3, #1
    60f4:	61f3      	str	r3, [r6, #28]
    60f6:	23a5      	movs	r3, #165	; 0xa5
    60f8:	021b      	lsls	r3, r3, #8
    60fa:	431c      	orrs	r4, r3
    60fc:	8034      	strh	r4, [r6, #0]
    60fe:	4b0e      	ldr	r3, [pc, #56]	; (6138 <nvm_execute_command+0xa0>)
    6100:	4798      	blx	r3
    6102:	2800      	cmp	r0, #0
    6104:	d0fb      	beq.n	60fe <nvm_execute_command+0x66>
    6106:	6077      	str	r7, [r6, #4]
    6108:	2000      	movs	r0, #0
    610a:	e7e7      	b.n	60dc <nvm_execute_command+0x44>
    610c:	2c40      	cmp	r4, #64	; 0x40
    610e:	d303      	bcc.n	6118 <nvm_execute_command+0x80>
    6110:	2c41      	cmp	r4, #65	; 0x41
    6112:	d9ec      	bls.n	60ee <nvm_execute_command+0x56>
    6114:	2c45      	cmp	r4, #69	; 0x45
    6116:	d9ee      	bls.n	60f6 <nvm_execute_command+0x5e>
    6118:	6077      	str	r7, [r6, #4]
    611a:	2017      	movs	r0, #23
    611c:	e7de      	b.n	60dc <nvm_execute_command+0x44>
    611e:	8b2b      	ldrh	r3, [r5, #24]
    6120:	05db      	lsls	r3, r3, #23
    6122:	d5e4      	bpl.n	60ee <nvm_execute_command+0x56>
    6124:	606f      	str	r7, [r5, #4]
    6126:	2010      	movs	r0, #16
    6128:	e7d8      	b.n	60dc <nvm_execute_command+0x44>
    612a:	46c0      	nop			; (mov r8, r8)
    612c:	20000242 	.word	0x20000242
    6130:	ff7fc000 	.word	0xff7fc000
    6134:	41004000 	.word	0x41004000
    6138:	00006001 	.word	0x00006001

0000613c <nvm_write_buffer>:
    613c:	b5f7      	push	{r0, r1, r2, r4, r5, r6, r7, lr}
    613e:	4e21      	ldr	r6, [pc, #132]	; (61c4 <nvm_write_buffer+0x88>)
    6140:	9100      	str	r1, [sp, #0]
    6142:	8833      	ldrh	r3, [r6, #0]
    6144:	8871      	ldrh	r1, [r6, #2]
    6146:	0015      	movs	r5, r2
    6148:	4359      	muls	r1, r3
    614a:	0004      	movs	r4, r0
    614c:	2218      	movs	r2, #24
    614e:	4281      	cmp	r1, r0
    6150:	d326      	bcc.n	61a0 <nvm_write_buffer+0x64>
    6152:	1e59      	subs	r1, r3, #1
    6154:	4208      	tst	r0, r1
    6156:	d123      	bne.n	61a0 <nvm_write_buffer+0x64>
    6158:	3a01      	subs	r2, #1
    615a:	42ab      	cmp	r3, r5
    615c:	d320      	bcc.n	61a0 <nvm_write_buffer+0x64>
    615e:	4f1a      	ldr	r7, [pc, #104]	; (61c8 <nvm_write_buffer+0x8c>)
    6160:	47b8      	blx	r7
    6162:	2205      	movs	r2, #5
    6164:	2800      	cmp	r0, #0
    6166:	d01b      	beq.n	61a0 <nvm_write_buffer+0x64>
    6168:	4b18      	ldr	r3, [pc, #96]	; (61cc <nvm_write_buffer+0x90>)
    616a:	4a19      	ldr	r2, [pc, #100]	; (61d0 <nvm_write_buffer+0x94>)
    616c:	801a      	strh	r2, [r3, #0]
    616e:	9301      	str	r3, [sp, #4]
    6170:	47b8      	blx	r7
    6172:	2800      	cmp	r0, #0
    6174:	d0fc      	beq.n	6170 <nvm_write_buffer+0x34>
    6176:	2320      	movs	r3, #32
    6178:	9a01      	ldr	r2, [sp, #4]
    617a:	33ff      	adds	r3, #255	; 0xff
    617c:	8313      	strh	r3, [r2, #24]
    617e:	2300      	movs	r3, #0
    6180:	0862      	lsrs	r2, r4, #1
    6182:	0052      	lsls	r2, r2, #1
    6184:	1e68      	subs	r0, r5, #1
    6186:	429d      	cmp	r5, r3
    6188:	d80c      	bhi.n	61a4 <nvm_write_buffer+0x68>
    618a:	2200      	movs	r2, #0
    618c:	7933      	ldrb	r3, [r6, #4]
    618e:	4293      	cmp	r3, r2
    6190:	d106      	bne.n	61a0 <nvm_write_buffer+0x64>
    6192:	2d3f      	cmp	r5, #63	; 0x3f
    6194:	d804      	bhi.n	61a0 <nvm_write_buffer+0x64>
    6196:	0021      	movs	r1, r4
    6198:	2004      	movs	r0, #4
    619a:	4b0e      	ldr	r3, [pc, #56]	; (61d4 <nvm_write_buffer+0x98>)
    619c:	4798      	blx	r3
    619e:	0002      	movs	r2, r0
    61a0:	0010      	movs	r0, r2
    61a2:	bdfe      	pop	{r1, r2, r3, r4, r5, r6, r7, pc}
    61a4:	9900      	ldr	r1, [sp, #0]
    61a6:	5cc9      	ldrb	r1, [r1, r3]
    61a8:	4283      	cmp	r3, r0
    61aa:	db05      	blt.n	61b8 <nvm_write_buffer+0x7c>
    61ac:	b289      	uxth	r1, r1
    61ae:	3302      	adds	r3, #2
    61b0:	8011      	strh	r1, [r2, #0]
    61b2:	b29b      	uxth	r3, r3
    61b4:	3202      	adds	r2, #2
    61b6:	e7e6      	b.n	6186 <nvm_write_buffer+0x4a>
    61b8:	9f00      	ldr	r7, [sp, #0]
    61ba:	18ff      	adds	r7, r7, r3
    61bc:	787f      	ldrb	r7, [r7, #1]
    61be:	023f      	lsls	r7, r7, #8
    61c0:	4339      	orrs	r1, r7
    61c2:	e7f4      	b.n	61ae <nvm_write_buffer+0x72>
    61c4:	20000242 	.word	0x20000242
    61c8:	00006001 	.word	0x00006001
    61cc:	41004000 	.word	0x41004000
    61d0:	ffffa544 	.word	0xffffa544
    61d4:	00006099 	.word	0x00006099

000061d8 <nvm_read_buffer>:
    61d8:	b5f8      	push	{r3, r4, r5, r6, r7, lr}
    61da:	4b16      	ldr	r3, [pc, #88]	; (6234 <nvm_read_buffer+0x5c>)
    61dc:	000f      	movs	r7, r1
    61de:	0016      	movs	r6, r2
    61e0:	8859      	ldrh	r1, [r3, #2]
    61e2:	881a      	ldrh	r2, [r3, #0]
    61e4:	0005      	movs	r5, r0
    61e6:	4351      	muls	r1, r2
    61e8:	2318      	movs	r3, #24
    61ea:	4281      	cmp	r1, r0
    61ec:	d314      	bcc.n	6218 <nvm_read_buffer+0x40>
    61ee:	1e54      	subs	r4, r2, #1
    61f0:	4004      	ands	r4, r0
    61f2:	d111      	bne.n	6218 <nvm_read_buffer+0x40>
    61f4:	3b01      	subs	r3, #1
    61f6:	42b2      	cmp	r2, r6
    61f8:	d30e      	bcc.n	6218 <nvm_read_buffer+0x40>
    61fa:	4b0f      	ldr	r3, [pc, #60]	; (6238 <nvm_read_buffer+0x60>)
    61fc:	4798      	blx	r3
    61fe:	2305      	movs	r3, #5
    6200:	2800      	cmp	r0, #0
    6202:	d009      	beq.n	6218 <nvm_read_buffer+0x40>
    6204:	2220      	movs	r2, #32
    6206:	4b0d      	ldr	r3, [pc, #52]	; (623c <nvm_read_buffer+0x64>)
    6208:	32ff      	adds	r2, #255	; 0xff
    620a:	086d      	lsrs	r5, r5, #1
    620c:	831a      	strh	r2, [r3, #24]
    620e:	006d      	lsls	r5, r5, #1
    6210:	1e71      	subs	r1, r6, #1
    6212:	42a6      	cmp	r6, r4
    6214:	d802      	bhi.n	621c <nvm_read_buffer+0x44>
    6216:	2300      	movs	r3, #0
    6218:	0018      	movs	r0, r3
    621a:	bdf8      	pop	{r3, r4, r5, r6, r7, pc}
    621c:	882b      	ldrh	r3, [r5, #0]
    621e:	b29b      	uxth	r3, r3
    6220:	553b      	strb	r3, [r7, r4]
    6222:	428c      	cmp	r4, r1
    6224:	da02      	bge.n	622c <nvm_read_buffer+0x54>
    6226:	193a      	adds	r2, r7, r4
    6228:	0a1b      	lsrs	r3, r3, #8
    622a:	7053      	strb	r3, [r2, #1]
    622c:	3402      	adds	r4, #2
    622e:	b2a4      	uxth	r4, r4
    6230:	3502      	adds	r5, #2
    6232:	e7ee      	b.n	6212 <nvm_read_buffer+0x3a>
    6234:	20000242 	.word	0x20000242
    6238:	00006001 	.word	0x00006001
    623c:	41004000 	.word	0x41004000

00006240 <nvm_erase_row>:
    6240:	b570      	push	{r4, r5, r6, lr}
    6242:	4a13      	ldr	r2, [pc, #76]	; (6290 <nvm_erase_row+0x50>)
    6244:	0004      	movs	r4, r0
    6246:	8813      	ldrh	r3, [r2, #0]
    6248:	8852      	ldrh	r2, [r2, #2]
    624a:	2018      	movs	r0, #24
    624c:	435a      	muls	r2, r3
    624e:	42a2      	cmp	r2, r4
    6250:	d31c      	bcc.n	628c <nvm_erase_row+0x4c>
    6252:	009b      	lsls	r3, r3, #2
    6254:	3b01      	subs	r3, #1
    6256:	421c      	tst	r4, r3
    6258:	d118      	bne.n	628c <nvm_erase_row+0x4c>
    625a:	4d0e      	ldr	r5, [pc, #56]	; (6294 <nvm_erase_row+0x54>)
    625c:	47a8      	blx	r5
    625e:	0003      	movs	r3, r0
    6260:	2005      	movs	r0, #5
    6262:	2b00      	cmp	r3, #0
    6264:	d012      	beq.n	628c <nvm_erase_row+0x4c>
    6266:	2220      	movs	r2, #32
    6268:	4b0b      	ldr	r3, [pc, #44]	; (6298 <nvm_erase_row+0x58>)
    626a:	08a4      	lsrs	r4, r4, #2
    626c:	32ff      	adds	r2, #255	; 0xff
    626e:	0064      	lsls	r4, r4, #1
    6270:	831a      	strh	r2, [r3, #24]
    6272:	61dc      	str	r4, [r3, #28]
    6274:	001c      	movs	r4, r3
    6276:	4a09      	ldr	r2, [pc, #36]	; (629c <nvm_erase_row+0x5c>)
    6278:	801a      	strh	r2, [r3, #0]
    627a:	47a8      	blx	r5
    627c:	2800      	cmp	r0, #0
    627e:	d0fc      	beq.n	627a <nvm_erase_row+0x3a>
    6280:	231c      	movs	r3, #28
    6282:	8b20      	ldrh	r0, [r4, #24]
    6284:	4018      	ands	r0, r3
    6286:	1e43      	subs	r3, r0, #1
    6288:	4198      	sbcs	r0, r3
    628a:	0080      	lsls	r0, r0, #2
    628c:	bd70      	pop	{r4, r5, r6, pc}
    628e:	46c0      	nop			; (mov r8, r8)
    6290:	20000242 	.word	0x20000242
    6294:	00006001 	.word	0x00006001
    6298:	41004000 	.word	0x41004000
    629c:	ffffa502 	.word	0xffffa502

000062a0 <port_pin_set_config>:
    62a0:	b507      	push	{r0, r1, r2, lr}
    62a2:	2280      	movs	r2, #128	; 0x80
    62a4:	ab01      	add	r3, sp, #4
    62a6:	701a      	strb	r2, [r3, #0]
    62a8:	780a      	ldrb	r2, [r1, #0]
    62aa:	705a      	strb	r2, [r3, #1]
    62ac:	784a      	ldrb	r2, [r1, #1]
    62ae:	709a      	strb	r2, [r3, #2]
    62b0:	788a      	ldrb	r2, [r1, #2]
    62b2:	0019      	movs	r1, r3
    62b4:	70da      	strb	r2, [r3, #3]
    62b6:	4b01      	ldr	r3, [pc, #4]	; (62bc <port_pin_set_config+0x1c>)
    62b8:	4798      	blx	r3
    62ba:	bd07      	pop	{r0, r1, r2, pc}
    62bc:	00007821 	.word	0x00007821

000062c0 <system_board_init>:
    62c0:	4770      	bx	lr
	...

000062c4 <cpu_irq_enter_critical>:
    62c4:	4b09      	ldr	r3, [pc, #36]	; (62ec <cpu_irq_enter_critical+0x28>)
    62c6:	6819      	ldr	r1, [r3, #0]
    62c8:	2900      	cmp	r1, #0
    62ca:	d10b      	bne.n	62e4 <cpu_irq_enter_critical+0x20>
    62cc:	f3ef 8010 	mrs	r0, PRIMASK
    62d0:	4a07      	ldr	r2, [pc, #28]	; (62f0 <cpu_irq_enter_critical+0x2c>)
    62d2:	2800      	cmp	r0, #0
    62d4:	d105      	bne.n	62e2 <cpu_irq_enter_critical+0x1e>
    62d6:	b672      	cpsid	i
    62d8:	f3bf 8f5f 	dmb	sy
    62dc:	4905      	ldr	r1, [pc, #20]	; (62f4 <cpu_irq_enter_critical+0x30>)
    62de:	7008      	strb	r0, [r1, #0]
    62e0:	2101      	movs	r1, #1
    62e2:	7011      	strb	r1, [r2, #0]
    62e4:	681a      	ldr	r2, [r3, #0]
    62e6:	3201      	adds	r2, #1
    62e8:	601a      	str	r2, [r3, #0]
    62ea:	4770      	bx	lr
    62ec:	20000248 	.word	0x20000248
    62f0:	2000024c 	.word	0x2000024c
    62f4:	20000024 	.word	0x20000024

000062f8 <cpu_irq_leave_critical>:
    62f8:	4b08      	ldr	r3, [pc, #32]	; (631c <cpu_irq_leave_critical+0x24>)
    62fa:	681a      	ldr	r2, [r3, #0]
    62fc:	3a01      	subs	r2, #1
    62fe:	601a      	str	r2, [r3, #0]
    6300:	681b      	ldr	r3, [r3, #0]
    6302:	2b00      	cmp	r3, #0
    6304:	d109      	bne.n	631a <cpu_irq_leave_critical+0x22>
    6306:	4b06      	ldr	r3, [pc, #24]	; (6320 <cpu_irq_leave_critical+0x28>)
    6308:	781b      	ldrb	r3, [r3, #0]
    630a:	2b00      	cmp	r3, #0
    630c:	d005      	beq.n	631a <cpu_irq_leave_critical+0x22>
    630e:	2201      	movs	r2, #1
    6310:	4b04      	ldr	r3, [pc, #16]	; (6324 <cpu_irq_leave_critical+0x2c>)
    6312:	701a      	strb	r2, [r3, #0]
    6314:	f3bf 8f5f 	dmb	sy
    6318:	b662      	cpsie	i
    631a:	4770      	bx	lr
    631c:	20000248 	.word	0x20000248
    6320:	2000024c 	.word	0x2000024c
    6324:	20000024 	.word	0x20000024

00006328 <long_division>:
    6328:	b5f0      	push	{r4, r5, r6, r7, lr}
    632a:	2400      	movs	r4, #0
    632c:	b089      	sub	sp, #36	; 0x24
    632e:	9200      	str	r2, [sp, #0]
    6330:	9301      	str	r3, [sp, #4]
    6332:	233f      	movs	r3, #63	; 0x3f
    6334:	2600      	movs	r6, #0
    6336:	2700      	movs	r7, #0
    6338:	0025      	movs	r5, r4
    633a:	9006      	str	r0, [sp, #24]
    633c:	9107      	str	r1, [sp, #28]
    633e:	9303      	str	r3, [sp, #12]
    6340:	9a03      	ldr	r2, [sp, #12]
    6342:	4b13      	ldr	r3, [pc, #76]	; (6390 <long_division+0x68>)
    6344:	2001      	movs	r0, #1
    6346:	2100      	movs	r1, #0
    6348:	4798      	blx	r3
    634a:	19b6      	adds	r6, r6, r6
    634c:	417f      	adcs	r7, r7
    634e:	9b06      	ldr	r3, [sp, #24]
    6350:	9a07      	ldr	r2, [sp, #28]
    6352:	4003      	ands	r3, r0
    6354:	400a      	ands	r2, r1
    6356:	9604      	str	r6, [sp, #16]
    6358:	9705      	str	r7, [sp, #20]
    635a:	4313      	orrs	r3, r2
    635c:	d003      	beq.n	6366 <long_division+0x3e>
    635e:	2301      	movs	r3, #1
    6360:	4333      	orrs	r3, r6
    6362:	001e      	movs	r6, r3
    6364:	9f05      	ldr	r7, [sp, #20]
    6366:	9b01      	ldr	r3, [sp, #4]
    6368:	42bb      	cmp	r3, r7
    636a:	d809      	bhi.n	6380 <long_division+0x58>
    636c:	d102      	bne.n	6374 <long_division+0x4c>
    636e:	9b00      	ldr	r3, [sp, #0]
    6370:	42b3      	cmp	r3, r6
    6372:	d805      	bhi.n	6380 <long_division+0x58>
    6374:	9a00      	ldr	r2, [sp, #0]
    6376:	9b01      	ldr	r3, [sp, #4]
    6378:	1ab6      	subs	r6, r6, r2
    637a:	419f      	sbcs	r7, r3
    637c:	4304      	orrs	r4, r0
    637e:	430d      	orrs	r5, r1
    6380:	9b03      	ldr	r3, [sp, #12]
    6382:	1e5a      	subs	r2, r3, #1
    6384:	9203      	str	r2, [sp, #12]
    6386:	d2db      	bcs.n	6340 <long_division+0x18>
    6388:	0020      	movs	r0, r4
    638a:	0029      	movs	r1, r5
    638c:	b009      	add	sp, #36	; 0x24
    638e:	bdf0      	pop	{r4, r5, r6, r7, pc}
    6390:	00009825 	.word	0x00009825

00006394 <_sercom_get_sync_baud_val>:
    6394:	b510      	push	{r4, lr}
    6396:	0849      	lsrs	r1, r1, #1
    6398:	0004      	movs	r4, r0
    639a:	2300      	movs	r3, #0
    639c:	2040      	movs	r0, #64	; 0x40
    639e:	42a1      	cmp	r1, r4
    63a0:	d201      	bcs.n	63a6 <_sercom_get_sync_baud_val+0x12>
    63a2:	bd10      	pop	{r4, pc}
    63a4:	0003      	movs	r3, r0
    63a6:	1c58      	adds	r0, r3, #1
    63a8:	1b09      	subs	r1, r1, r4
    63aa:	b280      	uxth	r0, r0
    63ac:	428c      	cmp	r4, r1
    63ae:	d9f9      	bls.n	63a4 <_sercom_get_sync_baud_val+0x10>
    63b0:	2040      	movs	r0, #64	; 0x40
    63b2:	2bff      	cmp	r3, #255	; 0xff
    63b4:	d8f5      	bhi.n	63a2 <_sercom_get_sync_baud_val+0xe>
    63b6:	8013      	strh	r3, [r2, #0]
    63b8:	2000      	movs	r0, #0
    63ba:	e7f2      	b.n	63a2 <_sercom_get_sync_baud_val+0xe>

000063bc <_sercom_get_async_baud_val>:
    63bc:	b5f0      	push	{r4, r5, r6, r7, lr}
    63be:	b085      	sub	sp, #20
    63c0:	001e      	movs	r6, r3
    63c2:	ab0a      	add	r3, sp, #40	; 0x28
    63c4:	000d      	movs	r5, r1
    63c6:	7819      	ldrb	r1, [r3, #0]
    63c8:	0003      	movs	r3, r0
    63ca:	434b      	muls	r3, r1
    63cc:	9203      	str	r2, [sp, #12]
    63ce:	2740      	movs	r7, #64	; 0x40
    63d0:	42ab      	cmp	r3, r5
    63d2:	d817      	bhi.n	6404 <_sercom_get_async_baud_val+0x48>
    63d4:	2e00      	cmp	r6, #0
    63d6:	d118      	bne.n	640a <_sercom_get_async_baud_val+0x4e>
    63d8:	0002      	movs	r2, r0
    63da:	0033      	movs	r3, r6
    63dc:	0008      	movs	r0, r1
    63de:	4c1b      	ldr	r4, [pc, #108]	; (644c <_sercom_get_async_baud_val+0x90>)
    63e0:	0031      	movs	r1, r6
    63e2:	47a0      	blx	r4
    63e4:	002a      	movs	r2, r5
    63e6:	0001      	movs	r1, r0
    63e8:	0033      	movs	r3, r6
    63ea:	4c19      	ldr	r4, [pc, #100]	; (6450 <_sercom_get_async_baud_val+0x94>)
    63ec:	0030      	movs	r0, r6
    63ee:	47a0      	blx	r4
    63f0:	2200      	movs	r2, #0
    63f2:	2301      	movs	r3, #1
    63f4:	1a12      	subs	r2, r2, r0
    63f6:	418b      	sbcs	r3, r1
    63f8:	0c14      	lsrs	r4, r2, #16
    63fa:	0418      	lsls	r0, r3, #16
    63fc:	4304      	orrs	r4, r0
    63fe:	2700      	movs	r7, #0
    6400:	9b03      	ldr	r3, [sp, #12]
    6402:	801c      	strh	r4, [r3, #0]
    6404:	0038      	movs	r0, r7
    6406:	b005      	add	sp, #20
    6408:	bdf0      	pop	{r4, r5, r6, r7, pc}
    640a:	2400      	movs	r4, #0
    640c:	2e01      	cmp	r6, #1
    640e:	d1f6      	bne.n	63fe <_sercom_get_async_baud_val+0x42>
    6410:	000a      	movs	r2, r1
    6412:	0023      	movs	r3, r4
    6414:	0021      	movs	r1, r4
    6416:	4e0d      	ldr	r6, [pc, #52]	; (644c <_sercom_get_async_baud_val+0x90>)
    6418:	47b0      	blx	r6
    641a:	9000      	str	r0, [sp, #0]
    641c:	9101      	str	r1, [sp, #4]
    641e:	000b      	movs	r3, r1
    6420:	0002      	movs	r2, r0
    6422:	0021      	movs	r1, r4
    6424:	0028      	movs	r0, r5
    6426:	4c0a      	ldr	r4, [pc, #40]	; (6450 <_sercom_get_async_baud_val+0x94>)
    6428:	47a0      	blx	r4
    642a:	2380      	movs	r3, #128	; 0x80
    642c:	0006      	movs	r6, r0
    642e:	019b      	lsls	r3, r3, #6
    6430:	4298      	cmp	r0, r3
    6432:	d8e7      	bhi.n	6404 <_sercom_get_async_baud_val+0x48>
    6434:	9a00      	ldr	r2, [sp, #0]
    6436:	9b01      	ldr	r3, [sp, #4]
    6438:	0f69      	lsrs	r1, r5, #29
    643a:	00e8      	lsls	r0, r5, #3
    643c:	47a0      	blx	r4
    643e:	00f4      	lsls	r4, r6, #3
    6440:	1b04      	subs	r4, r0, r4
    6442:	b2e4      	uxtb	r4, r4
    6444:	0364      	lsls	r4, r4, #13
    6446:	4334      	orrs	r4, r6
    6448:	e7d9      	b.n	63fe <_sercom_get_async_baud_val+0x42>
    644a:	46c0      	nop			; (mov r8, r8)
    644c:	0000983d 	.word	0x0000983d
    6450:	00006329 	.word	0x00006329

00006454 <sercom_set_gclk_generator>:
    6454:	b537      	push	{r0, r1, r2, r4, r5, lr}
    6456:	4c0d      	ldr	r4, [pc, #52]	; (648c <sercom_set_gclk_generator+0x38>)
    6458:	0005      	movs	r5, r0
    645a:	7823      	ldrb	r3, [r4, #0]
    645c:	2b00      	cmp	r3, #0
    645e:	d001      	beq.n	6464 <sercom_set_gclk_generator+0x10>
    6460:	2900      	cmp	r1, #0
    6462:	d00c      	beq.n	647e <sercom_set_gclk_generator+0x2a>
    6464:	a901      	add	r1, sp, #4
    6466:	2013      	movs	r0, #19
    6468:	4b09      	ldr	r3, [pc, #36]	; (6490 <sercom_set_gclk_generator+0x3c>)
    646a:	700d      	strb	r5, [r1, #0]
    646c:	4798      	blx	r3
    646e:	2013      	movs	r0, #19
    6470:	4b08      	ldr	r3, [pc, #32]	; (6494 <sercom_set_gclk_generator+0x40>)
    6472:	4798      	blx	r3
    6474:	2301      	movs	r3, #1
    6476:	2000      	movs	r0, #0
    6478:	7065      	strb	r5, [r4, #1]
    647a:	7023      	strb	r3, [r4, #0]
    647c:	bd3e      	pop	{r1, r2, r3, r4, r5, pc}
    647e:	7863      	ldrb	r3, [r4, #1]
    6480:	0008      	movs	r0, r1
    6482:	42ab      	cmp	r3, r5
    6484:	d0fa      	beq.n	647c <sercom_set_gclk_generator+0x28>
    6486:	201d      	movs	r0, #29
    6488:	e7f8      	b.n	647c <sercom_set_gclk_generator+0x28>
    648a:	46c0      	nop			; (mov r8, r8)
    648c:	2000024d 	.word	0x2000024d
    6490:	0000774d 	.word	0x0000774d
    6494:	000076c5 	.word	0x000076c5

00006498 <_sercom_get_default_pad>:
    6498:	4a39      	ldr	r2, [pc, #228]	; (6580 <_sercom_get_default_pad+0xe8>)
    649a:	0003      	movs	r3, r0
    649c:	b500      	push	{lr}
    649e:	0008      	movs	r0, r1
    64a0:	4293      	cmp	r3, r2
    64a2:	d033      	beq.n	650c <_sercom_get_default_pad+0x74>
    64a4:	d807      	bhi.n	64b6 <_sercom_get_default_pad+0x1e>
    64a6:	4a37      	ldr	r2, [pc, #220]	; (6584 <_sercom_get_default_pad+0xec>)
    64a8:	4293      	cmp	r3, r2
    64aa:	d014      	beq.n	64d6 <_sercom_get_default_pad+0x3e>
    64ac:	4a36      	ldr	r2, [pc, #216]	; (6588 <_sercom_get_default_pad+0xf0>)
    64ae:	4293      	cmp	r3, r2
    64b0:	d01f      	beq.n	64f2 <_sercom_get_default_pad+0x5a>
    64b2:	2300      	movs	r3, #0
    64b4:	e017      	b.n	64e6 <_sercom_get_default_pad+0x4e>
    64b6:	4a35      	ldr	r2, [pc, #212]	; (658c <_sercom_get_default_pad+0xf4>)
    64b8:	4293      	cmp	r3, r2
    64ba:	d03a      	beq.n	6532 <_sercom_get_default_pad+0x9a>
    64bc:	4a34      	ldr	r2, [pc, #208]	; (6590 <_sercom_get_default_pad+0xf8>)
    64be:	4293      	cmp	r3, r2
    64c0:	d044      	beq.n	654c <_sercom_get_default_pad+0xb4>
    64c2:	4a34      	ldr	r2, [pc, #208]	; (6594 <_sercom_get_default_pad+0xfc>)
    64c4:	4293      	cmp	r3, r2
    64c6:	d1f4      	bne.n	64b2 <_sercom_get_default_pad+0x1a>
    64c8:	2300      	movs	r3, #0
    64ca:	2903      	cmp	r1, #3
    64cc:	d80b      	bhi.n	64e6 <_sercom_get_default_pad+0x4e>
    64ce:	f003 f829 	bl	9524 <__gnu_thumb1_case_uqi>
    64d2:	2a50      	.short	0x2a50
    64d4:	2e2c      	.short	0x2e2c
    64d6:	2300      	movs	r3, #0
    64d8:	2903      	cmp	r1, #3
    64da:	d804      	bhi.n	64e6 <_sercom_get_default_pad+0x4e>
    64dc:	f003 f822 	bl	9524 <__gnu_thumb1_case_uqi>
    64e0:	07050243 	.word	0x07050243
    64e4:	4b2c      	ldr	r3, [pc, #176]	; (6598 <_sercom_get_default_pad+0x100>)
    64e6:	0018      	movs	r0, r3
    64e8:	bd00      	pop	{pc}
    64ea:	4b2c      	ldr	r3, [pc, #176]	; (659c <_sercom_get_default_pad+0x104>)
    64ec:	e7fb      	b.n	64e6 <_sercom_get_default_pad+0x4e>
    64ee:	4b2c      	ldr	r3, [pc, #176]	; (65a0 <_sercom_get_default_pad+0x108>)
    64f0:	e7f9      	b.n	64e6 <_sercom_get_default_pad+0x4e>
    64f2:	2300      	movs	r3, #0
    64f4:	2903      	cmp	r1, #3
    64f6:	d8f6      	bhi.n	64e6 <_sercom_get_default_pad+0x4e>
    64f8:	f003 f814 	bl	9524 <__gnu_thumb1_case_uqi>
    64fc:	06040237 	.word	0x06040237
    6500:	4b28      	ldr	r3, [pc, #160]	; (65a4 <_sercom_get_default_pad+0x10c>)
    6502:	e7f0      	b.n	64e6 <_sercom_get_default_pad+0x4e>
    6504:	4b28      	ldr	r3, [pc, #160]	; (65a8 <_sercom_get_default_pad+0x110>)
    6506:	e7ee      	b.n	64e6 <_sercom_get_default_pad+0x4e>
    6508:	4b28      	ldr	r3, [pc, #160]	; (65ac <_sercom_get_default_pad+0x114>)
    650a:	e7ec      	b.n	64e6 <_sercom_get_default_pad+0x4e>
    650c:	2300      	movs	r3, #0
    650e:	2903      	cmp	r1, #3
    6510:	d8e9      	bhi.n	64e6 <_sercom_get_default_pad+0x4e>
    6512:	f003 f807 	bl	9524 <__gnu_thumb1_case_uqi>
    6516:	022c      	.short	0x022c
    6518:	0604      	.short	0x0604
    651a:	4b25      	ldr	r3, [pc, #148]	; (65b0 <_sercom_get_default_pad+0x118>)
    651c:	e7e3      	b.n	64e6 <_sercom_get_default_pad+0x4e>
    651e:	4b25      	ldr	r3, [pc, #148]	; (65b4 <_sercom_get_default_pad+0x11c>)
    6520:	e7e1      	b.n	64e6 <_sercom_get_default_pad+0x4e>
    6522:	4b25      	ldr	r3, [pc, #148]	; (65b8 <_sercom_get_default_pad+0x120>)
    6524:	e7df      	b.n	64e6 <_sercom_get_default_pad+0x4e>
    6526:	4b25      	ldr	r3, [pc, #148]	; (65bc <_sercom_get_default_pad+0x124>)
    6528:	e7dd      	b.n	64e6 <_sercom_get_default_pad+0x4e>
    652a:	4b25      	ldr	r3, [pc, #148]	; (65c0 <_sercom_get_default_pad+0x128>)
    652c:	e7db      	b.n	64e6 <_sercom_get_default_pad+0x4e>
    652e:	4b25      	ldr	r3, [pc, #148]	; (65c4 <_sercom_get_default_pad+0x12c>)
    6530:	e7d9      	b.n	64e6 <_sercom_get_default_pad+0x4e>
    6532:	2300      	movs	r3, #0
    6534:	2903      	cmp	r1, #3
    6536:	d8d6      	bhi.n	64e6 <_sercom_get_default_pad+0x4e>
    6538:	f002 fff4 	bl	9524 <__gnu_thumb1_case_uqi>
    653c:	0604021d 	.word	0x0604021d
    6540:	4b21      	ldr	r3, [pc, #132]	; (65c8 <_sercom_get_default_pad+0x130>)
    6542:	e7d0      	b.n	64e6 <_sercom_get_default_pad+0x4e>
    6544:	4b21      	ldr	r3, [pc, #132]	; (65cc <_sercom_get_default_pad+0x134>)
    6546:	e7ce      	b.n	64e6 <_sercom_get_default_pad+0x4e>
    6548:	4b21      	ldr	r3, [pc, #132]	; (65d0 <_sercom_get_default_pad+0x138>)
    654a:	e7cc      	b.n	64e6 <_sercom_get_default_pad+0x4e>
    654c:	2300      	movs	r3, #0
    654e:	2903      	cmp	r1, #3
    6550:	d8c9      	bhi.n	64e6 <_sercom_get_default_pad+0x4e>
    6552:	f002 ffe7 	bl	9524 <__gnu_thumb1_case_uqi>
    6556:	0212      	.short	0x0212
    6558:	0604      	.short	0x0604
    655a:	4b1e      	ldr	r3, [pc, #120]	; (65d4 <_sercom_get_default_pad+0x13c>)
    655c:	e7c3      	b.n	64e6 <_sercom_get_default_pad+0x4e>
    655e:	4b1e      	ldr	r3, [pc, #120]	; (65d8 <_sercom_get_default_pad+0x140>)
    6560:	e7c1      	b.n	64e6 <_sercom_get_default_pad+0x4e>
    6562:	4b1e      	ldr	r3, [pc, #120]	; (65dc <_sercom_get_default_pad+0x144>)
    6564:	e7bf      	b.n	64e6 <_sercom_get_default_pad+0x4e>
    6566:	4b1e      	ldr	r3, [pc, #120]	; (65e0 <_sercom_get_default_pad+0x148>)
    6568:	e7bd      	b.n	64e6 <_sercom_get_default_pad+0x4e>
    656a:	2303      	movs	r3, #3
    656c:	e7bb      	b.n	64e6 <_sercom_get_default_pad+0x4e>
    656e:	4b1d      	ldr	r3, [pc, #116]	; (65e4 <_sercom_get_default_pad+0x14c>)
    6570:	e7b9      	b.n	64e6 <_sercom_get_default_pad+0x4e>
    6572:	4b1d      	ldr	r3, [pc, #116]	; (65e8 <_sercom_get_default_pad+0x150>)
    6574:	e7b7      	b.n	64e6 <_sercom_get_default_pad+0x4e>
    6576:	4b1d      	ldr	r3, [pc, #116]	; (65ec <_sercom_get_default_pad+0x154>)
    6578:	e7b5      	b.n	64e6 <_sercom_get_default_pad+0x4e>
    657a:	4b1d      	ldr	r3, [pc, #116]	; (65f0 <_sercom_get_default_pad+0x158>)
    657c:	e7b3      	b.n	64e6 <_sercom_get_default_pad+0x4e>
    657e:	46c0      	nop			; (mov r8, r8)
    6580:	42001000 	.word	0x42001000
    6584:	42000800 	.word	0x42000800
    6588:	42000c00 	.word	0x42000c00
    658c:	42001800 	.word	0x42001800
    6590:	42001c00 	.word	0x42001c00
    6594:	42001400 	.word	0x42001400
    6598:	00050003 	.word	0x00050003
    659c:	00060003 	.word	0x00060003
    65a0:	00070003 	.word	0x00070003
    65a4:	00010003 	.word	0x00010003
    65a8:	001e0003 	.word	0x001e0003
    65ac:	001f0003 	.word	0x001f0003
    65b0:	00090003 	.word	0x00090003
    65b4:	000a0003 	.word	0x000a0003
    65b8:	000b0003 	.word	0x000b0003
    65bc:	00110003 	.word	0x00110003
    65c0:	00120003 	.word	0x00120003
    65c4:	00130003 	.word	0x00130003
    65c8:	000d0003 	.word	0x000d0003
    65cc:	000e0003 	.word	0x000e0003
    65d0:	000f0003 	.word	0x000f0003
    65d4:	00170003 	.word	0x00170003
    65d8:	00180003 	.word	0x00180003
    65dc:	00190003 	.word	0x00190003
    65e0:	00040003 	.word	0x00040003
    65e4:	00080003 	.word	0x00080003
    65e8:	00100003 	.word	0x00100003
    65ec:	000c0003 	.word	0x000c0003
    65f0:	00160003 	.word	0x00160003

000065f4 <_sercom_get_sercom_inst_index>:
    65f4:	b570      	push	{r4, r5, r6, lr}
    65f6:	b086      	sub	sp, #24
    65f8:	4669      	mov	r1, sp
    65fa:	4b09      	ldr	r3, [pc, #36]	; (6620 <_sercom_get_sercom_inst_index+0x2c>)
    65fc:	466a      	mov	r2, sp
    65fe:	cb70      	ldmia	r3!, {r4, r5, r6}
    6600:	c170      	stmia	r1!, {r4, r5, r6}
    6602:	cb70      	ldmia	r3!, {r4, r5, r6}
    6604:	c170      	stmia	r1!, {r4, r5, r6}
    6606:	2300      	movs	r3, #0
    6608:	0099      	lsls	r1, r3, #2
    660a:	5851      	ldr	r1, [r2, r1]
    660c:	4281      	cmp	r1, r0
    660e:	d102      	bne.n	6616 <_sercom_get_sercom_inst_index+0x22>
    6610:	b2d8      	uxtb	r0, r3
    6612:	b006      	add	sp, #24
    6614:	bd70      	pop	{r4, r5, r6, pc}
    6616:	3301      	adds	r3, #1
    6618:	2b06      	cmp	r3, #6
    661a:	d1f5      	bne.n	6608 <_sercom_get_sercom_inst_index+0x14>
    661c:	2000      	movs	r0, #0
    661e:	e7f8      	b.n	6612 <_sercom_get_sercom_inst_index+0x1e>
    6620:	0000d684 	.word	0x0000d684

00006624 <_sercom_default_handler>:
    6624:	4770      	bx	lr
	...

00006628 <_sercom_set_handler>:
    6628:	b5f0      	push	{r4, r5, r6, r7, lr}
    662a:	4c09      	ldr	r4, [pc, #36]	; (6650 <_sercom_set_handler+0x28>)
    662c:	4a09      	ldr	r2, [pc, #36]	; (6654 <_sercom_set_handler+0x2c>)
    662e:	7823      	ldrb	r3, [r4, #0]
    6630:	2b00      	cmp	r3, #0
    6632:	d109      	bne.n	6648 <_sercom_set_handler+0x20>
    6634:	001e      	movs	r6, r3
    6636:	4f08      	ldr	r7, [pc, #32]	; (6658 <_sercom_set_handler+0x30>)
    6638:	4d08      	ldr	r5, [pc, #32]	; (665c <_sercom_set_handler+0x34>)
    663a:	50d7      	str	r7, [r2, r3]
    663c:	50ee      	str	r6, [r5, r3]
    663e:	3304      	adds	r3, #4
    6640:	2b18      	cmp	r3, #24
    6642:	d1fa      	bne.n	663a <_sercom_set_handler+0x12>
    6644:	3b17      	subs	r3, #23
    6646:	7023      	strb	r3, [r4, #0]
    6648:	0080      	lsls	r0, r0, #2
    664a:	5011      	str	r1, [r2, r0]
    664c:	bdf0      	pop	{r4, r5, r6, r7, pc}
    664e:	46c0      	nop			; (mov r8, r8)
    6650:	2000024f 	.word	0x2000024f
    6654:	20000250 	.word	0x20000250
    6658:	00006625 	.word	0x00006625
    665c:	200018a0 	.word	0x200018a0

00006660 <_sercom_get_interrupt_vector>:
    6660:	b507      	push	{r0, r1, r2, lr}
    6662:	2309      	movs	r3, #9
    6664:	466a      	mov	r2, sp
    6666:	7013      	strb	r3, [r2, #0]
    6668:	3301      	adds	r3, #1
    666a:	7053      	strb	r3, [r2, #1]
    666c:	3301      	adds	r3, #1
    666e:	7093      	strb	r3, [r2, #2]
    6670:	3301      	adds	r3, #1
    6672:	70d3      	strb	r3, [r2, #3]
    6674:	3301      	adds	r3, #1
    6676:	7113      	strb	r3, [r2, #4]
    6678:	3301      	adds	r3, #1
    667a:	7153      	strb	r3, [r2, #5]
    667c:	4b02      	ldr	r3, [pc, #8]	; (6688 <_sercom_get_interrupt_vector+0x28>)
    667e:	4798      	blx	r3
    6680:	466b      	mov	r3, sp
    6682:	5618      	ldrsb	r0, [r3, r0]
    6684:	bd0e      	pop	{r1, r2, r3, pc}
    6686:	46c0      	nop			; (mov r8, r8)
    6688:	000065f5 	.word	0x000065f5

0000668c <SERCOM0_Handler>:
    668c:	b510      	push	{r4, lr}
    668e:	4b02      	ldr	r3, [pc, #8]	; (6698 <SERCOM0_Handler+0xc>)
    6690:	2000      	movs	r0, #0
    6692:	681b      	ldr	r3, [r3, #0]
    6694:	4798      	blx	r3
    6696:	bd10      	pop	{r4, pc}
    6698:	20000250 	.word	0x20000250

0000669c <SERCOM1_Handler>:
    669c:	b510      	push	{r4, lr}
    669e:	4b02      	ldr	r3, [pc, #8]	; (66a8 <SERCOM1_Handler+0xc>)
    66a0:	2001      	movs	r0, #1
    66a2:	685b      	ldr	r3, [r3, #4]
    66a4:	4798      	blx	r3
    66a6:	bd10      	pop	{r4, pc}
    66a8:	20000250 	.word	0x20000250

000066ac <SERCOM2_Handler>:
    66ac:	b510      	push	{r4, lr}
    66ae:	4b02      	ldr	r3, [pc, #8]	; (66b8 <SERCOM2_Handler+0xc>)
    66b0:	2002      	movs	r0, #2
    66b2:	689b      	ldr	r3, [r3, #8]
    66b4:	4798      	blx	r3
    66b6:	bd10      	pop	{r4, pc}
    66b8:	20000250 	.word	0x20000250

000066bc <SERCOM3_Handler>:
    66bc:	b510      	push	{r4, lr}
    66be:	4b02      	ldr	r3, [pc, #8]	; (66c8 <SERCOM3_Handler+0xc>)
    66c0:	2003      	movs	r0, #3
    66c2:	68db      	ldr	r3, [r3, #12]
    66c4:	4798      	blx	r3
    66c6:	bd10      	pop	{r4, pc}
    66c8:	20000250 	.word	0x20000250

000066cc <SERCOM4_Handler>:
    66cc:	b510      	push	{r4, lr}
    66ce:	4b02      	ldr	r3, [pc, #8]	; (66d8 <SERCOM4_Handler+0xc>)
    66d0:	2004      	movs	r0, #4
    66d2:	691b      	ldr	r3, [r3, #16]
    66d4:	4798      	blx	r3
    66d6:	bd10      	pop	{r4, pc}
    66d8:	20000250 	.word	0x20000250

000066dc <SERCOM5_Handler>:
    66dc:	b510      	push	{r4, lr}
    66de:	4b02      	ldr	r3, [pc, #8]	; (66e8 <SERCOM5_Handler+0xc>)
    66e0:	2005      	movs	r0, #5
    66e2:	695b      	ldr	r3, [r3, #20]
    66e4:	4798      	blx	r3
    66e6:	bd10      	pop	{r4, pc}
    66e8:	20000250 	.word	0x20000250

000066ec <port_pin_set_output_level>:
    66ec:	2200      	movs	r2, #0
    66ee:	b510      	push	{r4, lr}
    66f0:	0943      	lsrs	r3, r0, #5
    66f2:	09c4      	lsrs	r4, r0, #7
    66f4:	4294      	cmp	r4, r2
    66f6:	d102      	bne.n	66fe <port_pin_set_output_level+0x12>
    66f8:	01da      	lsls	r2, r3, #7
    66fa:	4b06      	ldr	r3, [pc, #24]	; (6714 <port_pin_set_output_level+0x28>)
    66fc:	18d2      	adds	r2, r2, r3
    66fe:	231f      	movs	r3, #31
    6700:	4018      	ands	r0, r3
    6702:	3b1e      	subs	r3, #30
    6704:	4083      	lsls	r3, r0
    6706:	2900      	cmp	r1, #0
    6708:	d001      	beq.n	670e <port_pin_set_output_level+0x22>
    670a:	6193      	str	r3, [r2, #24]
    670c:	bd10      	pop	{r4, pc}
    670e:	6153      	str	r3, [r2, #20]
    6710:	e7fc      	b.n	670c <port_pin_set_output_level+0x20>
    6712:	46c0      	nop			; (mov r8, r8)
    6714:	41004400 	.word	0x41004400

00006718 <spi_write>:
    6718:	6803      	ldr	r3, [r0, #0]
    671a:	2005      	movs	r0, #5
    671c:	7e1a      	ldrb	r2, [r3, #24]
    671e:	07d2      	lsls	r2, r2, #31
    6720:	d503      	bpl.n	672a <spi_write+0x12>
    6722:	2000      	movs	r0, #0
    6724:	05c9      	lsls	r1, r1, #23
    6726:	0dc9      	lsrs	r1, r1, #23
    6728:	6299      	str	r1, [r3, #40]	; 0x28
    672a:	4770      	bx	lr

0000672c <spi_read>:
    672c:	b530      	push	{r4, r5, lr}
    672e:	2404      	movs	r4, #4
    6730:	6803      	ldr	r3, [r0, #0]
    6732:	2210      	movs	r2, #16
    6734:	7e1d      	ldrb	r5, [r3, #24]
    6736:	4225      	tst	r5, r4
    6738:	d00c      	beq.n	6754 <spi_read+0x28>
    673a:	8b5d      	ldrh	r5, [r3, #26]
    673c:	2200      	movs	r2, #0
    673e:	4225      	tst	r5, r4
    6740:	d001      	beq.n	6746 <spi_read+0x1a>
    6742:	835c      	strh	r4, [r3, #26]
    6744:	321e      	adds	r2, #30
    6746:	7980      	ldrb	r0, [r0, #6]
    6748:	6a9b      	ldr	r3, [r3, #40]	; 0x28
    674a:	2801      	cmp	r0, #1
    674c:	d104      	bne.n	6758 <spi_read+0x2c>
    674e:	05db      	lsls	r3, r3, #23
    6750:	0ddb      	lsrs	r3, r3, #23
    6752:	800b      	strh	r3, [r1, #0]
    6754:	0010      	movs	r0, r2
    6756:	bd30      	pop	{r4, r5, pc}
    6758:	b2db      	uxtb	r3, r3
    675a:	e7fa      	b.n	6752 <spi_read+0x26>

0000675c <spi_init>:
    675c:	b5f0      	push	{r4, r5, r6, r7, lr}
    675e:	0005      	movs	r5, r0
    6760:	6029      	str	r1, [r5, #0]
    6762:	0014      	movs	r4, r2
    6764:	680a      	ldr	r2, [r1, #0]
    6766:	b089      	sub	sp, #36	; 0x24
    6768:	000f      	movs	r7, r1
    676a:	231c      	movs	r3, #28
    676c:	0792      	lsls	r2, r2, #30
    676e:	d500      	bpl.n	6772 <spi_init+0x16>
    6770:	e0ba      	b.n	68e8 <spi_init+0x18c>
    6772:	2601      	movs	r6, #1
    6774:	680b      	ldr	r3, [r1, #0]
    6776:	4033      	ands	r3, r6
    6778:	9301      	str	r3, [sp, #4]
    677a:	9a01      	ldr	r2, [sp, #4]
    677c:	2305      	movs	r3, #5
    677e:	2a00      	cmp	r2, #0
    6780:	d000      	beq.n	6784 <spi_init+0x28>
    6782:	e0b1      	b.n	68e8 <spi_init+0x18c>
    6784:	0008      	movs	r0, r1
    6786:	4b5a      	ldr	r3, [pc, #360]	; (68f0 <spi_init+0x194>)
    6788:	4798      	blx	r3
    678a:	1c81      	adds	r1, r0, #2
    678c:	408e      	lsls	r6, r1
    678e:	4b59      	ldr	r3, [pc, #356]	; (68f4 <spi_init+0x198>)
    6790:	3014      	adds	r0, #20
    6792:	6a1a      	ldr	r2, [r3, #32]
    6794:	4316      	orrs	r6, r2
    6796:	621e      	str	r6, [r3, #32]
    6798:	1d63      	adds	r3, r4, #5
    679a:	7fdb      	ldrb	r3, [r3, #31]
    679c:	aa02      	add	r2, sp, #8
    679e:	b2c6      	uxtb	r6, r0
    67a0:	7013      	strb	r3, [r2, #0]
    67a2:	0011      	movs	r1, r2
    67a4:	0030      	movs	r0, r6
    67a6:	4b54      	ldr	r3, [pc, #336]	; (68f8 <spi_init+0x19c>)
    67a8:	4798      	blx	r3
    67aa:	0030      	movs	r0, r6
    67ac:	4b53      	ldr	r3, [pc, #332]	; (68fc <spi_init+0x1a0>)
    67ae:	4798      	blx	r3
    67b0:	1d63      	adds	r3, r4, #5
    67b2:	7fd8      	ldrb	r0, [r3, #31]
    67b4:	9901      	ldr	r1, [sp, #4]
    67b6:	4b52      	ldr	r3, [pc, #328]	; (6900 <spi_init+0x1a4>)
    67b8:	4798      	blx	r3
    67ba:	7823      	ldrb	r3, [r4, #0]
    67bc:	2b01      	cmp	r3, #1
    67be:	d103      	bne.n	67c8 <spi_init+0x6c>
    67c0:	683a      	ldr	r2, [r7, #0]
    67c2:	330b      	adds	r3, #11
    67c4:	4313      	orrs	r3, r2
    67c6:	603b      	str	r3, [r7, #0]
    67c8:	002b      	movs	r3, r5
    67ca:	002a      	movs	r2, r5
    67cc:	2600      	movs	r6, #0
    67ce:	330c      	adds	r3, #12
    67d0:	3228      	adds	r2, #40	; 0x28
    67d2:	c340      	stmia	r3!, {r6}
    67d4:	4293      	cmp	r3, r2
    67d6:	d1fc      	bne.n	67d2 <spi_init+0x76>
    67d8:	002b      	movs	r3, r5
    67da:	3336      	adds	r3, #54	; 0x36
    67dc:	86ae      	strh	r6, [r5, #52]	; 0x34
    67de:	62ee      	str	r6, [r5, #44]	; 0x2c
    67e0:	862e      	strh	r6, [r5, #48]	; 0x30
    67e2:	62ae      	str	r6, [r5, #40]	; 0x28
    67e4:	701e      	strb	r6, [r3, #0]
    67e6:	705e      	strb	r6, [r3, #1]
    67e8:	709e      	strb	r6, [r3, #2]
    67ea:	2303      	movs	r3, #3
    67ec:	6828      	ldr	r0, [r5, #0]
    67ee:	726b      	strb	r3, [r5, #9]
    67f0:	4b3f      	ldr	r3, [pc, #252]	; (68f0 <spi_init+0x194>)
    67f2:	712e      	strb	r6, [r5, #4]
    67f4:	4798      	blx	r3
    67f6:	0007      	movs	r7, r0
    67f8:	4b42      	ldr	r3, [pc, #264]	; (6904 <spi_init+0x1a8>)
    67fa:	4943      	ldr	r1, [pc, #268]	; (6908 <spi_init+0x1ac>)
    67fc:	4798      	blx	r3
    67fe:	4b43      	ldr	r3, [pc, #268]	; (690c <spi_init+0x1b0>)
    6800:	00bf      	lsls	r7, r7, #2
    6802:	50fd      	str	r5, [r7, r3]
    6804:	2380      	movs	r3, #128	; 0x80
    6806:	aa02      	add	r2, sp, #8
    6808:	7113      	strb	r3, [r2, #4]
    680a:	2301      	movs	r3, #1
    680c:	7193      	strb	r3, [r2, #6]
    680e:	7823      	ldrb	r3, [r4, #0]
    6810:	682f      	ldr	r7, [r5, #0]
    6812:	7156      	strb	r6, [r2, #5]
    6814:	71d6      	strb	r6, [r2, #7]
    6816:	2b00      	cmp	r3, #0
    6818:	d100      	bne.n	681c <spi_init+0xc0>
    681a:	7196      	strb	r6, [r2, #6]
    681c:	2600      	movs	r6, #0
    681e:	6aa3      	ldr	r3, [r4, #40]	; 0x28
    6820:	9304      	str	r3, [sp, #16]
    6822:	6ae3      	ldr	r3, [r4, #44]	; 0x2c
    6824:	9305      	str	r3, [sp, #20]
    6826:	6b23      	ldr	r3, [r4, #48]	; 0x30
    6828:	9306      	str	r3, [sp, #24]
    682a:	6b63      	ldr	r3, [r4, #52]	; 0x34
    682c:	9307      	str	r3, [sp, #28]
    682e:	00b3      	lsls	r3, r6, #2
    6830:	aa04      	add	r2, sp, #16
    6832:	5898      	ldr	r0, [r3, r2]
    6834:	b2f1      	uxtb	r1, r6
    6836:	2800      	cmp	r0, #0
    6838:	d102      	bne.n	6840 <spi_init+0xe4>
    683a:	0038      	movs	r0, r7
    683c:	4b34      	ldr	r3, [pc, #208]	; (6910 <spi_init+0x1b4>)
    683e:	4798      	blx	r3
    6840:	1c43      	adds	r3, r0, #1
    6842:	d006      	beq.n	6852 <spi_init+0xf6>
    6844:	ab02      	add	r3, sp, #8
    6846:	7118      	strb	r0, [r3, #4]
    6848:	0c00      	lsrs	r0, r0, #16
    684a:	b2c0      	uxtb	r0, r0
    684c:	a903      	add	r1, sp, #12
    684e:	4b31      	ldr	r3, [pc, #196]	; (6914 <spi_init+0x1b8>)
    6850:	4798      	blx	r3
    6852:	3601      	adds	r6, #1
    6854:	2e04      	cmp	r6, #4
    6856:	d1ea      	bne.n	682e <spi_init+0xd2>
    6858:	7823      	ldrb	r3, [r4, #0]
    685a:	716b      	strb	r3, [r5, #5]
    685c:	7c23      	ldrb	r3, [r4, #16]
    685e:	71ab      	strb	r3, [r5, #6]
    6860:	7ca3      	ldrb	r3, [r4, #18]
    6862:	71eb      	strb	r3, [r5, #7]
    6864:	7d23      	ldrb	r3, [r4, #20]
    6866:	722b      	strb	r3, [r5, #8]
    6868:	ab02      	add	r3, sp, #8
    686a:	1c9e      	adds	r6, r3, #2
    686c:	2300      	movs	r3, #0
    686e:	8033      	strh	r3, [r6, #0]
    6870:	7823      	ldrb	r3, [r4, #0]
    6872:	2b01      	cmp	r3, #1
    6874:	d110      	bne.n	6898 <spi_init+0x13c>
    6876:	4b1e      	ldr	r3, [pc, #120]	; (68f0 <spi_init+0x194>)
    6878:	6828      	ldr	r0, [r5, #0]
    687a:	4798      	blx	r3
    687c:	3014      	adds	r0, #20
    687e:	4b26      	ldr	r3, [pc, #152]	; (6918 <spi_init+0x1bc>)
    6880:	b2c0      	uxtb	r0, r0
    6882:	4798      	blx	r3
    6884:	4b25      	ldr	r3, [pc, #148]	; (691c <spi_init+0x1c0>)
    6886:	0001      	movs	r1, r0
    6888:	0032      	movs	r2, r6
    688a:	69a0      	ldr	r0, [r4, #24]
    688c:	4798      	blx	r3
    688e:	2317      	movs	r3, #23
    6890:	2800      	cmp	r0, #0
    6892:	d129      	bne.n	68e8 <spi_init+0x18c>
    6894:	7833      	ldrb	r3, [r6, #0]
    6896:	733b      	strb	r3, [r7, #12]
    6898:	68a3      	ldr	r3, [r4, #8]
    689a:	6862      	ldr	r2, [r4, #4]
    689c:	7c61      	ldrb	r1, [r4, #17]
    689e:	431a      	orrs	r2, r3
    68a0:	68e3      	ldr	r3, [r4, #12]
    68a2:	431a      	orrs	r2, r3
    68a4:	7c23      	ldrb	r3, [r4, #16]
    68a6:	2900      	cmp	r1, #0
    68a8:	d103      	bne.n	68b2 <spi_init+0x156>
    68aa:	491d      	ldr	r1, [pc, #116]	; (6920 <spi_init+0x1c4>)
    68ac:	7889      	ldrb	r1, [r1, #2]
    68ae:	0789      	lsls	r1, r1, #30
    68b0:	d501      	bpl.n	68b6 <spi_init+0x15a>
    68b2:	2180      	movs	r1, #128	; 0x80
    68b4:	430a      	orrs	r2, r1
    68b6:	7ca1      	ldrb	r1, [r4, #18]
    68b8:	2900      	cmp	r1, #0
    68ba:	d002      	beq.n	68c2 <spi_init+0x166>
    68bc:	2180      	movs	r1, #128	; 0x80
    68be:	0289      	lsls	r1, r1, #10
    68c0:	430b      	orrs	r3, r1
    68c2:	7ce1      	ldrb	r1, [r4, #19]
    68c4:	2900      	cmp	r1, #0
    68c6:	d002      	beq.n	68ce <spi_init+0x172>
    68c8:	2180      	movs	r1, #128	; 0x80
    68ca:	0089      	lsls	r1, r1, #2
    68cc:	430b      	orrs	r3, r1
    68ce:	7d21      	ldrb	r1, [r4, #20]
    68d0:	2900      	cmp	r1, #0
    68d2:	d002      	beq.n	68da <spi_init+0x17e>
    68d4:	2180      	movs	r1, #128	; 0x80
    68d6:	0189      	lsls	r1, r1, #6
    68d8:	430b      	orrs	r3, r1
    68da:	6839      	ldr	r1, [r7, #0]
    68dc:	430a      	orrs	r2, r1
    68de:	603a      	str	r2, [r7, #0]
    68e0:	687a      	ldr	r2, [r7, #4]
    68e2:	4313      	orrs	r3, r2
    68e4:	607b      	str	r3, [r7, #4]
    68e6:	2300      	movs	r3, #0
    68e8:	0018      	movs	r0, r3
    68ea:	b009      	add	sp, #36	; 0x24
    68ec:	bdf0      	pop	{r4, r5, r6, r7, pc}
    68ee:	46c0      	nop			; (mov r8, r8)
    68f0:	000065f5 	.word	0x000065f5
    68f4:	40000400 	.word	0x40000400
    68f8:	0000774d 	.word	0x0000774d
    68fc:	000076c5 	.word	0x000076c5
    6900:	00006455 	.word	0x00006455
    6904:	00006629 	.word	0x00006629
    6908:	00006abd 	.word	0x00006abd
    690c:	200018a0 	.word	0x200018a0
    6910:	00006499 	.word	0x00006499
    6914:	00007821 	.word	0x00007821
    6918:	00007769 	.word	0x00007769
    691c:	00006395 	.word	0x00006395
    6920:	41002000 	.word	0x41002000

00006924 <spi_read_buffer_wait>:
    6924:	b5f0      	push	{r4, r5, r6, r7, lr}
    6926:	b085      	sub	sp, #20
    6928:	9301      	str	r3, [sp, #4]
    692a:	0003      	movs	r3, r0
    692c:	0004      	movs	r4, r0
    692e:	2005      	movs	r0, #5
    6930:	9100      	str	r1, [sp, #0]
    6932:	3338      	adds	r3, #56	; 0x38
    6934:	781b      	ldrb	r3, [r3, #0]
    6936:	0016      	movs	r6, r2
    6938:	4283      	cmp	r3, r0
    693a:	d033      	beq.n	69a4 <spi_read_buffer_wait+0x80>
    693c:	3012      	adds	r0, #18
    693e:	2a00      	cmp	r2, #0
    6940:	d030      	beq.n	69a4 <spi_read_buffer_wait+0x80>
    6942:	79e3      	ldrb	r3, [r4, #7]
    6944:	3005      	adds	r0, #5
    6946:	2b00      	cmp	r3, #0
    6948:	d02c      	beq.n	69a4 <spi_read_buffer_wait+0x80>
    694a:	2500      	movs	r5, #0
    694c:	7963      	ldrb	r3, [r4, #5]
    694e:	2b01      	cmp	r3, #1
    6950:	d108      	bne.n	6964 <spi_read_buffer_wait+0x40>
    6952:	6822      	ldr	r2, [r4, #0]
    6954:	2101      	movs	r1, #1
    6956:	7e13      	ldrb	r3, [r2, #24]
    6958:	420b      	tst	r3, r1
    695a:	d0fb      	beq.n	6954 <spi_read_buffer_wait+0x30>
    695c:	9901      	ldr	r1, [sp, #4]
    695e:	0020      	movs	r0, r4
    6960:	4b12      	ldr	r3, [pc, #72]	; (69ac <spi_read_buffer_wait+0x88>)
    6962:	4798      	blx	r3
    6964:	6822      	ldr	r2, [r4, #0]
    6966:	2104      	movs	r1, #4
    6968:	7e13      	ldrb	r3, [r2, #24]
    696a:	420b      	tst	r3, r1
    696c:	d0fb      	beq.n	6966 <spi_read_buffer_wait+0x42>
    696e:	ab02      	add	r3, sp, #8
    6970:	1d9f      	adds	r7, r3, #6
    6972:	2300      	movs	r3, #0
    6974:	0039      	movs	r1, r7
    6976:	803b      	strh	r3, [r7, #0]
    6978:	0020      	movs	r0, r4
    697a:	4b0d      	ldr	r3, [pc, #52]	; (69b0 <spi_read_buffer_wait+0x8c>)
    697c:	4798      	blx	r3
    697e:	2800      	cmp	r0, #0
    6980:	d110      	bne.n	69a4 <spi_read_buffer_wait+0x80>
    6982:	9900      	ldr	r1, [sp, #0]
    6984:	883a      	ldrh	r2, [r7, #0]
    6986:	1c6b      	adds	r3, r5, #1
    6988:	554a      	strb	r2, [r1, r5]
    698a:	79a1      	ldrb	r1, [r4, #6]
    698c:	b29b      	uxth	r3, r3
    698e:	2901      	cmp	r1, #1
    6990:	d10a      	bne.n	69a8 <spi_read_buffer_wait+0x84>
    6992:	9900      	ldr	r1, [sp, #0]
    6994:	3502      	adds	r5, #2
    6996:	0a12      	lsrs	r2, r2, #8
    6998:	b2ad      	uxth	r5, r5
    699a:	54ca      	strb	r2, [r1, r3]
    699c:	3e01      	subs	r6, #1
    699e:	b2b6      	uxth	r6, r6
    69a0:	2e00      	cmp	r6, #0
    69a2:	d1d3      	bne.n	694c <spi_read_buffer_wait+0x28>
    69a4:	b005      	add	sp, #20
    69a6:	bdf0      	pop	{r4, r5, r6, r7, pc}
    69a8:	001d      	movs	r5, r3
    69aa:	e7f7      	b.n	699c <spi_read_buffer_wait+0x78>
    69ac:	00006719 	.word	0x00006719
    69b0:	0000672d 	.word	0x0000672d

000069b4 <spi_select_slave>:
    69b4:	b573      	push	{r0, r1, r4, r5, r6, lr}
    69b6:	000e      	movs	r6, r1
    69b8:	7941      	ldrb	r1, [r0, #5]
    69ba:	0005      	movs	r5, r0
    69bc:	0014      	movs	r4, r2
    69be:	2015      	movs	r0, #21
    69c0:	2901      	cmp	r1, #1
    69c2:	d103      	bne.n	69cc <spi_select_slave+0x18>
    69c4:	7a2a      	ldrb	r2, [r5, #8]
    69c6:	2a00      	cmp	r2, #0
    69c8:	d001      	beq.n	69ce <spi_select_slave+0x1a>
    69ca:	2000      	movs	r0, #0
    69cc:	bd76      	pop	{r1, r2, r4, r5, r6, pc}
    69ce:	7830      	ldrb	r0, [r6, #0]
    69d0:	4b14      	ldr	r3, [pc, #80]	; (6a24 <spi_select_slave+0x70>)
    69d2:	2c00      	cmp	r4, #0
    69d4:	d022      	beq.n	6a1c <spi_select_slave+0x68>
    69d6:	7874      	ldrb	r4, [r6, #1]
    69d8:	2c00      	cmp	r4, #0
    69da:	d01c      	beq.n	6a16 <spi_select_slave+0x62>
    69dc:	682c      	ldr	r4, [r5, #0]
    69de:	7e24      	ldrb	r4, [r4, #24]
    69e0:	420c      	tst	r4, r1
    69e2:	d102      	bne.n	69ea <spi_select_slave+0x36>
    69e4:	4798      	blx	r3
    69e6:	2005      	movs	r0, #5
    69e8:	e7f0      	b.n	69cc <spi_select_slave+0x18>
    69ea:	0011      	movs	r1, r2
    69ec:	4798      	blx	r3
    69ee:	4b0e      	ldr	r3, [pc, #56]	; (6a28 <spi_select_slave+0x74>)
    69f0:	78b1      	ldrb	r1, [r6, #2]
    69f2:	0028      	movs	r0, r5
    69f4:	4798      	blx	r3
    69f6:	79eb      	ldrb	r3, [r5, #7]
    69f8:	2b00      	cmp	r3, #0
    69fa:	d1e6      	bne.n	69ca <spi_select_slave+0x16>
    69fc:	6829      	ldr	r1, [r5, #0]
    69fe:	3304      	adds	r3, #4
    6a00:	7e0a      	ldrb	r2, [r1, #24]
    6a02:	421a      	tst	r2, r3
    6a04:	d0fc      	beq.n	6a00 <spi_select_slave+0x4c>
    6a06:	466b      	mov	r3, sp
    6a08:	2400      	movs	r4, #0
    6a0a:	1d99      	adds	r1, r3, #6
    6a0c:	0028      	movs	r0, r5
    6a0e:	4b07      	ldr	r3, [pc, #28]	; (6a2c <spi_select_slave+0x78>)
    6a10:	800c      	strh	r4, [r1, #0]
    6a12:	4798      	blx	r3
    6a14:	e7d9      	b.n	69ca <spi_select_slave+0x16>
    6a16:	0021      	movs	r1, r4
    6a18:	4798      	blx	r3
    6a1a:	e7d6      	b.n	69ca <spi_select_slave+0x16>
    6a1c:	4798      	blx	r3
    6a1e:	0020      	movs	r0, r4
    6a20:	e7d4      	b.n	69cc <spi_select_slave+0x18>
    6a22:	46c0      	nop			; (mov r8, r8)
    6a24:	000066ed 	.word	0x000066ed
    6a28:	00006719 	.word	0x00006719
    6a2c:	0000672d 	.word	0x0000672d

00006a30 <spi_write_buffer_wait>:
    6a30:	0003      	movs	r3, r0
    6a32:	b5f7      	push	{r0, r1, r2, r4, r5, r6, r7, lr}
    6a34:	0004      	movs	r4, r0
    6a36:	2005      	movs	r0, #5
    6a38:	3338      	adds	r3, #56	; 0x38
    6a3a:	781b      	ldrb	r3, [r3, #0]
    6a3c:	000f      	movs	r7, r1
    6a3e:	0015      	movs	r5, r2
    6a40:	4283      	cmp	r3, r0
    6a42:	d003      	beq.n	6a4c <spi_write_buffer_wait+0x1c>
    6a44:	3012      	adds	r0, #18
    6a46:	2600      	movs	r6, #0
    6a48:	2a00      	cmp	r2, #0
    6a4a:	d120      	bne.n	6a8e <spi_write_buffer_wait+0x5e>
    6a4c:	bdfe      	pop	{r1, r2, r3, r4, r5, r6, r7, pc}
    6a4e:	2101      	movs	r1, #1
    6a50:	7e1a      	ldrb	r2, [r3, #24]
    6a52:	420a      	tst	r2, r1
    6a54:	d0fb      	beq.n	6a4e <spi_write_buffer_wait+0x1e>
    6a56:	79a2      	ldrb	r2, [r4, #6]
    6a58:	1873      	adds	r3, r6, r1
    6a5a:	b29b      	uxth	r3, r3
    6a5c:	5db9      	ldrb	r1, [r7, r6]
    6a5e:	2a01      	cmp	r2, #1
    6a60:	d017      	beq.n	6a92 <spi_write_buffer_wait+0x62>
    6a62:	001e      	movs	r6, r3
    6a64:	b289      	uxth	r1, r1
    6a66:	4b13      	ldr	r3, [pc, #76]	; (6ab4 <spi_write_buffer_wait+0x84>)
    6a68:	0020      	movs	r0, r4
    6a6a:	4798      	blx	r3
    6a6c:	79e3      	ldrb	r3, [r4, #7]
    6a6e:	2b00      	cmp	r3, #0
    6a70:	d009      	beq.n	6a86 <spi_write_buffer_wait+0x56>
    6a72:	6822      	ldr	r2, [r4, #0]
    6a74:	2104      	movs	r1, #4
    6a76:	7e13      	ldrb	r3, [r2, #24]
    6a78:	420b      	tst	r3, r1
    6a7a:	d0fb      	beq.n	6a74 <spi_write_buffer_wait+0x44>
    6a7c:	466b      	mov	r3, sp
    6a7e:	0020      	movs	r0, r4
    6a80:	1d99      	adds	r1, r3, #6
    6a82:	4b0d      	ldr	r3, [pc, #52]	; (6ab8 <spi_write_buffer_wait+0x88>)
    6a84:	4798      	blx	r3
    6a86:	3d01      	subs	r5, #1
    6a88:	b2ad      	uxth	r5, r5
    6a8a:	2d00      	cmp	r5, #0
    6a8c:	d007      	beq.n	6a9e <spi_write_buffer_wait+0x6e>
    6a8e:	6823      	ldr	r3, [r4, #0]
    6a90:	e7dd      	b.n	6a4e <spi_write_buffer_wait+0x1e>
    6a92:	5cfb      	ldrb	r3, [r7, r3]
    6a94:	3602      	adds	r6, #2
    6a96:	021b      	lsls	r3, r3, #8
    6a98:	b2b6      	uxth	r6, r6
    6a9a:	4319      	orrs	r1, r3
    6a9c:	e7e3      	b.n	6a66 <spi_write_buffer_wait+0x36>
    6a9e:	7963      	ldrb	r3, [r4, #5]
    6aa0:	0028      	movs	r0, r5
    6aa2:	2b01      	cmp	r3, #1
    6aa4:	d1d2      	bne.n	6a4c <spi_write_buffer_wait+0x1c>
    6aa6:	6821      	ldr	r1, [r4, #0]
    6aa8:	3301      	adds	r3, #1
    6aaa:	7e0a      	ldrb	r2, [r1, #24]
    6aac:	421a      	tst	r2, r3
    6aae:	d0fc      	beq.n	6aaa <spi_write_buffer_wait+0x7a>
    6ab0:	2000      	movs	r0, #0
    6ab2:	e7cb      	b.n	6a4c <spi_write_buffer_wait+0x1c>
    6ab4:	00006719 	.word	0x00006719
    6ab8:	0000672d 	.word	0x0000672d

00006abc <_spi_interrupt_handler>:
    6abc:	b5f8      	push	{r3, r4, r5, r6, r7, lr}
    6abe:	4b68      	ldr	r3, [pc, #416]	; (6c60 <_spi_interrupt_handler+0x1a4>)
    6ac0:	0080      	lsls	r0, r0, #2
    6ac2:	58c4      	ldr	r4, [r0, r3]
    6ac4:	0023      	movs	r3, r4
    6ac6:	0022      	movs	r2, r4
    6ac8:	3337      	adds	r3, #55	; 0x37
    6aca:	3236      	adds	r2, #54	; 0x36
    6acc:	6825      	ldr	r5, [r4, #0]
    6ace:	781b      	ldrb	r3, [r3, #0]
    6ad0:	7816      	ldrb	r6, [r2, #0]
    6ad2:	401e      	ands	r6, r3
    6ad4:	7e2b      	ldrb	r3, [r5, #24]
    6ad6:	7daf      	ldrb	r7, [r5, #22]
    6ad8:	401f      	ands	r7, r3
    6ada:	07fb      	lsls	r3, r7, #31
    6adc:	d534      	bpl.n	6b48 <_spi_interrupt_handler+0x8c>
    6ade:	7962      	ldrb	r2, [r4, #5]
    6ae0:	2a01      	cmp	r2, #1
    6ae2:	d131      	bne.n	6b48 <_spi_interrupt_handler+0x8c>
    6ae4:	7a63      	ldrb	r3, [r4, #9]
    6ae6:	2b00      	cmp	r3, #0
    6ae8:	d10d      	bne.n	6b06 <_spi_interrupt_handler+0x4a>
    6aea:	4b5e      	ldr	r3, [pc, #376]	; (6c64 <_spi_interrupt_handler+0x1a8>)
    6aec:	881b      	ldrh	r3, [r3, #0]
    6aee:	62ab      	str	r3, [r5, #40]	; 0x28
    6af0:	8e63      	ldrh	r3, [r4, #50]	; 0x32
    6af2:	3b01      	subs	r3, #1
    6af4:	b29b      	uxth	r3, r3
    6af6:	8663      	strh	r3, [r4, #50]	; 0x32
    6af8:	8e63      	ldrh	r3, [r4, #50]	; 0x32
    6afa:	2b00      	cmp	r3, #0
    6afc:	d100      	bne.n	6b00 <_spi_interrupt_handler+0x44>
    6afe:	752a      	strb	r2, [r5, #20]
    6b00:	7963      	ldrb	r3, [r4, #5]
    6b02:	2b01      	cmp	r3, #1
    6b04:	d120      	bne.n	6b48 <_spi_interrupt_handler+0x8c>
    6b06:	7a63      	ldrb	r3, [r4, #9]
    6b08:	2b00      	cmp	r3, #0
    6b0a:	d01d      	beq.n	6b48 <_spi_interrupt_handler+0x8c>
    6b0c:	6ae1      	ldr	r1, [r4, #44]	; 0x2c
    6b0e:	6822      	ldr	r2, [r4, #0]
    6b10:	1c48      	adds	r0, r1, #1
    6b12:	780b      	ldrb	r3, [r1, #0]
    6b14:	62e0      	str	r0, [r4, #44]	; 0x2c
    6b16:	79a0      	ldrb	r0, [r4, #6]
    6b18:	b2db      	uxtb	r3, r3
    6b1a:	2801      	cmp	r0, #1
    6b1c:	d051      	beq.n	6bc2 <_spi_interrupt_handler+0x106>
    6b1e:	b29b      	uxth	r3, r3
    6b20:	05db      	lsls	r3, r3, #23
    6b22:	0ddb      	lsrs	r3, r3, #23
    6b24:	6293      	str	r3, [r2, #40]	; 0x28
    6b26:	8ea3      	ldrh	r3, [r4, #52]	; 0x34
    6b28:	3b01      	subs	r3, #1
    6b2a:	b29b      	uxth	r3, r3
    6b2c:	86a3      	strh	r3, [r4, #52]	; 0x34
    6b2e:	8ea3      	ldrh	r3, [r4, #52]	; 0x34
    6b30:	2b00      	cmp	r3, #0
    6b32:	d109      	bne.n	6b48 <_spi_interrupt_handler+0x8c>
    6b34:	3301      	adds	r3, #1
    6b36:	752b      	strb	r3, [r5, #20]
    6b38:	7a63      	ldrb	r3, [r4, #9]
    6b3a:	2b01      	cmp	r3, #1
    6b3c:	d104      	bne.n	6b48 <_spi_interrupt_handler+0x8c>
    6b3e:	79e3      	ldrb	r3, [r4, #7]
    6b40:	2b00      	cmp	r3, #0
    6b42:	d101      	bne.n	6b48 <_spi_interrupt_handler+0x8c>
    6b44:	3302      	adds	r3, #2
    6b46:	75ab      	strb	r3, [r5, #22]
    6b48:	2104      	movs	r1, #4
    6b4a:	420f      	tst	r7, r1
    6b4c:	d015      	beq.n	6b7a <_spi_interrupt_handler+0xbe>
    6b4e:	8b6b      	ldrh	r3, [r5, #26]
    6b50:	420b      	tst	r3, r1
    6b52:	d03c      	beq.n	6bce <_spi_interrupt_handler+0x112>
    6b54:	7a63      	ldrb	r3, [r4, #9]
    6b56:	2b01      	cmp	r3, #1
    6b58:	d00c      	beq.n	6b74 <_spi_interrupt_handler+0xb8>
    6b5a:	0023      	movs	r3, r4
    6b5c:	221e      	movs	r2, #30
    6b5e:	3338      	adds	r3, #56	; 0x38
    6b60:	701a      	strb	r2, [r3, #0]
    6b62:	2303      	movs	r3, #3
    6b64:	7263      	strb	r3, [r4, #9]
    6b66:	3302      	adds	r3, #2
    6b68:	752b      	strb	r3, [r5, #20]
    6b6a:	0733      	lsls	r3, r6, #28
    6b6c:	d502      	bpl.n	6b74 <_spi_interrupt_handler+0xb8>
    6b6e:	0020      	movs	r0, r4
    6b70:	69a3      	ldr	r3, [r4, #24]
    6b72:	4798      	blx	r3
    6b74:	6aab      	ldr	r3, [r5, #40]	; 0x28
    6b76:	2304      	movs	r3, #4
    6b78:	836b      	strh	r3, [r5, #26]
    6b7a:	2102      	movs	r1, #2
    6b7c:	420f      	tst	r7, r1
    6b7e:	d014      	beq.n	6baa <_spi_interrupt_handler+0xee>
    6b80:	7963      	ldrb	r3, [r4, #5]
    6b82:	2b01      	cmp	r3, #1
    6b84:	d111      	bne.n	6baa <_spi_interrupt_handler+0xee>
    6b86:	7a63      	ldrb	r3, [r4, #9]
    6b88:	b2db      	uxtb	r3, r3
    6b8a:	2b01      	cmp	r3, #1
    6b8c:	d10d      	bne.n	6baa <_spi_interrupt_handler+0xee>
    6b8e:	79e2      	ldrb	r2, [r4, #7]
    6b90:	2a00      	cmp	r2, #0
    6b92:	d10a      	bne.n	6baa <_spi_interrupt_handler+0xee>
    6b94:	7529      	strb	r1, [r5, #20]
    6b96:	3101      	adds	r1, #1
    6b98:	7261      	strb	r1, [r4, #9]
    6b9a:	0021      	movs	r1, r4
    6b9c:	3138      	adds	r1, #56	; 0x38
    6b9e:	700a      	strb	r2, [r1, #0]
    6ba0:	421e      	tst	r6, r3
    6ba2:	d002      	beq.n	6baa <_spi_interrupt_handler+0xee>
    6ba4:	0020      	movs	r0, r4
    6ba6:	68e3      	ldr	r3, [r4, #12]
    6ba8:	4798      	blx	r3
    6baa:	b27f      	sxtb	r7, r7
    6bac:	2f00      	cmp	r7, #0
    6bae:	da07      	bge.n	6bc0 <_spi_interrupt_handler+0x104>
    6bb0:	2380      	movs	r3, #128	; 0x80
    6bb2:	752b      	strb	r3, [r5, #20]
    6bb4:	762b      	strb	r3, [r5, #24]
    6bb6:	0673      	lsls	r3, r6, #25
    6bb8:	d502      	bpl.n	6bc0 <_spi_interrupt_handler+0x104>
    6bba:	6a63      	ldr	r3, [r4, #36]	; 0x24
    6bbc:	0020      	movs	r0, r4
    6bbe:	4798      	blx	r3
    6bc0:	bdf8      	pop	{r3, r4, r5, r6, r7, pc}
    6bc2:	7848      	ldrb	r0, [r1, #1]
    6bc4:	3102      	adds	r1, #2
    6bc6:	0200      	lsls	r0, r0, #8
    6bc8:	4303      	orrs	r3, r0
    6bca:	62e1      	str	r1, [r4, #44]	; 0x2c
    6bcc:	e7a8      	b.n	6b20 <_spi_interrupt_handler+0x64>
    6bce:	7a62      	ldrb	r2, [r4, #9]
    6bd0:	6823      	ldr	r3, [r4, #0]
    6bd2:	b2d2      	uxtb	r2, r2
    6bd4:	6a9b      	ldr	r3, [r3, #40]	; 0x28
    6bd6:	2a01      	cmp	r2, #1
    6bd8:	d113      	bne.n	6c02 <_spi_interrupt_handler+0x146>
    6bda:	8e63      	ldrh	r3, [r4, #50]	; 0x32
    6bdc:	3b01      	subs	r3, #1
    6bde:	b29b      	uxth	r3, r3
    6be0:	8663      	strh	r3, [r4, #50]	; 0x32
    6be2:	8e63      	ldrh	r3, [r4, #50]	; 0x32
    6be4:	b29b      	uxth	r3, r3
    6be6:	2b00      	cmp	r3, #0
    6be8:	d1c7      	bne.n	6b7a <_spi_interrupt_handler+0xbe>
    6bea:	7529      	strb	r1, [r5, #20]
    6bec:	0021      	movs	r1, r4
    6bee:	3138      	adds	r1, #56	; 0x38
    6bf0:	700b      	strb	r3, [r1, #0]
    6bf2:	3303      	adds	r3, #3
    6bf4:	7263      	strb	r3, [r4, #9]
    6bf6:	4216      	tst	r6, r2
    6bf8:	d0bf      	beq.n	6b7a <_spi_interrupt_handler+0xbe>
    6bfa:	0020      	movs	r0, r4
    6bfc:	68e3      	ldr	r3, [r4, #12]
    6bfe:	4798      	blx	r3
    6c00:	e7bb      	b.n	6b7a <_spi_interrupt_handler+0xbe>
    6c02:	05db      	lsls	r3, r3, #23
    6c04:	6aa1      	ldr	r1, [r4, #40]	; 0x28
    6c06:	0ddb      	lsrs	r3, r3, #23
    6c08:	b2da      	uxtb	r2, r3
    6c0a:	700a      	strb	r2, [r1, #0]
    6c0c:	6aa2      	ldr	r2, [r4, #40]	; 0x28
    6c0e:	1c51      	adds	r1, r2, #1
    6c10:	62a1      	str	r1, [r4, #40]	; 0x28
    6c12:	79a1      	ldrb	r1, [r4, #6]
    6c14:	2901      	cmp	r1, #1
    6c16:	d104      	bne.n	6c22 <_spi_interrupt_handler+0x166>
    6c18:	0a1b      	lsrs	r3, r3, #8
    6c1a:	7053      	strb	r3, [r2, #1]
    6c1c:	6aa3      	ldr	r3, [r4, #40]	; 0x28
    6c1e:	3301      	adds	r3, #1
    6c20:	62a3      	str	r3, [r4, #40]	; 0x28
    6c22:	8e23      	ldrh	r3, [r4, #48]	; 0x30
    6c24:	3b01      	subs	r3, #1
    6c26:	b29b      	uxth	r3, r3
    6c28:	8623      	strh	r3, [r4, #48]	; 0x30
    6c2a:	8e23      	ldrh	r3, [r4, #48]	; 0x30
    6c2c:	b29b      	uxth	r3, r3
    6c2e:	2b00      	cmp	r3, #0
    6c30:	d1a3      	bne.n	6b7a <_spi_interrupt_handler+0xbe>
    6c32:	0022      	movs	r2, r4
    6c34:	3238      	adds	r2, #56	; 0x38
    6c36:	7013      	strb	r3, [r2, #0]
    6c38:	3304      	adds	r3, #4
    6c3a:	752b      	strb	r3, [r5, #20]
    6c3c:	7a62      	ldrb	r2, [r4, #9]
    6c3e:	2a02      	cmp	r2, #2
    6c40:	d104      	bne.n	6c4c <_spi_interrupt_handler+0x190>
    6c42:	421e      	tst	r6, r3
    6c44:	d099      	beq.n	6b7a <_spi_interrupt_handler+0xbe>
    6c46:	0020      	movs	r0, r4
    6c48:	6963      	ldr	r3, [r4, #20]
    6c4a:	e7d8      	b.n	6bfe <_spi_interrupt_handler+0x142>
    6c4c:	7a63      	ldrb	r3, [r4, #9]
    6c4e:	2b00      	cmp	r3, #0
    6c50:	d000      	beq.n	6c54 <_spi_interrupt_handler+0x198>
    6c52:	e792      	b.n	6b7a <_spi_interrupt_handler+0xbe>
    6c54:	07b3      	lsls	r3, r6, #30
    6c56:	d400      	bmi.n	6c5a <_spi_interrupt_handler+0x19e>
    6c58:	e78f      	b.n	6b7a <_spi_interrupt_handler+0xbe>
    6c5a:	0020      	movs	r0, r4
    6c5c:	6923      	ldr	r3, [r4, #16]
    6c5e:	e7ce      	b.n	6bfe <_spi_interrupt_handler+0x142>
    6c60:	200018a0 	.word	0x200018a0
    6c64:	200018b8 	.word	0x200018b8

00006c68 <_usart_wait_for_sync>:
    6c68:	6802      	ldr	r2, [r0, #0]
    6c6a:	69d3      	ldr	r3, [r2, #28]
    6c6c:	2b00      	cmp	r3, #0
    6c6e:	d1fc      	bne.n	6c6a <_usart_wait_for_sync+0x2>
    6c70:	4770      	bx	lr
	...

00006c74 <usart_init>:
    6c74:	b5f0      	push	{r4, r5, r6, r7, lr}
    6c76:	0007      	movs	r7, r0
    6c78:	b093      	sub	sp, #76	; 0x4c
    6c7a:	4ba0      	ldr	r3, [pc, #640]	; (6efc <usart_init+0x288>)
    6c7c:	6039      	str	r1, [r7, #0]
    6c7e:	0008      	movs	r0, r1
    6c80:	0016      	movs	r6, r2
    6c82:	9104      	str	r1, [sp, #16]
    6c84:	4798      	blx	r3
    6c86:	2201      	movs	r2, #1
    6c88:	9b04      	ldr	r3, [sp, #16]
    6c8a:	0005      	movs	r5, r0
    6c8c:	681b      	ldr	r3, [r3, #0]
    6c8e:	2005      	movs	r0, #5
    6c90:	4213      	tst	r3, r2
    6c92:	d000      	beq.n	6c96 <usart_init+0x22>
    6c94:	e10f      	b.n	6eb6 <usart_init+0x242>
    6c96:	9b04      	ldr	r3, [sp, #16]
    6c98:	3017      	adds	r0, #23
    6c9a:	681c      	ldr	r4, [r3, #0]
    6c9c:	2302      	movs	r3, #2
    6c9e:	401c      	ands	r4, r3
    6ca0:	d000      	beq.n	6ca4 <usart_init+0x30>
    6ca2:	e108      	b.n	6eb6 <usart_init+0x242>
    6ca4:	18eb      	adds	r3, r5, r3
    6ca6:	381b      	subs	r0, #27
    6ca8:	4098      	lsls	r0, r3
    6caa:	0003      	movs	r3, r0
    6cac:	4a94      	ldr	r2, [pc, #592]	; (6f00 <usart_init+0x28c>)
    6cae:	3514      	adds	r5, #20
    6cb0:	6a11      	ldr	r1, [r2, #32]
    6cb2:	b2ed      	uxtb	r5, r5
    6cb4:	430b      	orrs	r3, r1
    6cb6:	6213      	str	r3, [r2, #32]
    6cb8:	0033      	movs	r3, r6
    6cba:	332d      	adds	r3, #45	; 0x2d
    6cbc:	9302      	str	r3, [sp, #8]
    6cbe:	781b      	ldrb	r3, [r3, #0]
    6cc0:	a90c      	add	r1, sp, #48	; 0x30
    6cc2:	700b      	strb	r3, [r1, #0]
    6cc4:	0028      	movs	r0, r5
    6cc6:	4b8f      	ldr	r3, [pc, #572]	; (6f04 <usart_init+0x290>)
    6cc8:	4798      	blx	r3
    6cca:	0028      	movs	r0, r5
    6ccc:	4b8e      	ldr	r3, [pc, #568]	; (6f08 <usart_init+0x294>)
    6cce:	4798      	blx	r3
    6cd0:	9b02      	ldr	r3, [sp, #8]
    6cd2:	0021      	movs	r1, r4
    6cd4:	7818      	ldrb	r0, [r3, #0]
    6cd6:	4b8d      	ldr	r3, [pc, #564]	; (6f0c <usart_init+0x298>)
    6cd8:	4798      	blx	r3
    6cda:	7af3      	ldrb	r3, [r6, #11]
    6cdc:	2508      	movs	r5, #8
    6cde:	717b      	strb	r3, [r7, #5]
    6ce0:	1d73      	adds	r3, r6, #5
    6ce2:	7fdb      	ldrb	r3, [r3, #31]
    6ce4:	71bb      	strb	r3, [r7, #6]
    6ce6:	1db3      	adds	r3, r6, #6
    6ce8:	7fdb      	ldrb	r3, [r3, #31]
    6cea:	71fb      	strb	r3, [r7, #7]
    6cec:	7ef3      	ldrb	r3, [r6, #27]
    6cee:	723b      	strb	r3, [r7, #8]
    6cf0:	7f33      	ldrb	r3, [r6, #28]
    6cf2:	727b      	strb	r3, [r7, #9]
    6cf4:	683b      	ldr	r3, [r7, #0]
    6cf6:	9303      	str	r3, [sp, #12]
    6cf8:	0018      	movs	r0, r3
    6cfa:	4b80      	ldr	r3, [pc, #512]	; (6efc <usart_init+0x288>)
    6cfc:	4798      	blx	r3
    6cfe:	ab0e      	add	r3, sp, #56	; 0x38
    6d00:	801c      	strh	r4, [r3, #0]
    6d02:	8a33      	ldrh	r3, [r6, #16]
    6d04:	3014      	adds	r0, #20
    6d06:	9302      	str	r3, [sp, #8]
    6d08:	2380      	movs	r3, #128	; 0x80
    6d0a:	9a02      	ldr	r2, [sp, #8]
    6d0c:	01db      	lsls	r3, r3, #7
    6d0e:	429a      	cmp	r2, r3
    6d10:	d014      	beq.n	6d3c <usart_init+0xc8>
    6d12:	d808      	bhi.n	6d26 <usart_init+0xb2>
    6d14:	2380      	movs	r3, #128	; 0x80
    6d16:	2510      	movs	r5, #16
    6d18:	019b      	lsls	r3, r3, #6
    6d1a:	429a      	cmp	r2, r3
    6d1c:	d100      	bne.n	6d20 <usart_init+0xac>
    6d1e:	e0cd      	b.n	6ebc <usart_init+0x248>
    6d20:	2510      	movs	r5, #16
    6d22:	2400      	movs	r4, #0
    6d24:	e00a      	b.n	6d3c <usart_init+0xc8>
    6d26:	23c0      	movs	r3, #192	; 0xc0
    6d28:	9a02      	ldr	r2, [sp, #8]
    6d2a:	01db      	lsls	r3, r3, #7
    6d2c:	429a      	cmp	r2, r3
    6d2e:	d100      	bne.n	6d32 <usart_init+0xbe>
    6d30:	e0c3      	b.n	6eba <usart_init+0x246>
    6d32:	2380      	movs	r3, #128	; 0x80
    6d34:	2503      	movs	r5, #3
    6d36:	021b      	lsls	r3, r3, #8
    6d38:	429a      	cmp	r2, r3
    6d3a:	d1f1      	bne.n	6d20 <usart_init+0xac>
    6d3c:	6833      	ldr	r3, [r6, #0]
    6d3e:	9306      	str	r3, [sp, #24]
    6d40:	68f3      	ldr	r3, [r6, #12]
    6d42:	9307      	str	r3, [sp, #28]
    6d44:	6973      	ldr	r3, [r6, #20]
    6d46:	9308      	str	r3, [sp, #32]
    6d48:	7e33      	ldrb	r3, [r6, #24]
    6d4a:	9309      	str	r3, [sp, #36]	; 0x24
    6d4c:	1df3      	adds	r3, r6, #7
    6d4e:	7fdb      	ldrb	r3, [r3, #31]
    6d50:	930a      	str	r3, [sp, #40]	; 0x28
    6d52:	6873      	ldr	r3, [r6, #4]
    6d54:	9305      	str	r3, [sp, #20]
    6d56:	0033      	movs	r3, r6
    6d58:	9a05      	ldr	r2, [sp, #20]
    6d5a:	3308      	adds	r3, #8
    6d5c:	2a00      	cmp	r2, #0
    6d5e:	d100      	bne.n	6d62 <usart_init+0xee>
    6d60:	e0ae      	b.n	6ec0 <usart_init+0x24c>
    6d62:	2280      	movs	r2, #128	; 0x80
    6d64:	9905      	ldr	r1, [sp, #20]
    6d66:	0552      	lsls	r2, r2, #21
    6d68:	4291      	cmp	r1, r2
    6d6a:	d10e      	bne.n	6d8a <usart_init+0x116>
    6d6c:	7fdb      	ldrb	r3, [r3, #31]
    6d6e:	2b00      	cmp	r3, #0
    6d70:	d10b      	bne.n	6d8a <usart_init+0x116>
    6d72:	4b67      	ldr	r3, [pc, #412]	; (6f10 <usart_init+0x29c>)
    6d74:	b2c0      	uxtb	r0, r0
    6d76:	6a34      	ldr	r4, [r6, #32]
    6d78:	4798      	blx	r3
    6d7a:	aa0e      	add	r2, sp, #56	; 0x38
    6d7c:	0001      	movs	r1, r0
    6d7e:	4b65      	ldr	r3, [pc, #404]	; (6f14 <usart_init+0x2a0>)
    6d80:	0020      	movs	r0, r4
    6d82:	4798      	blx	r3
    6d84:	2800      	cmp	r0, #0
    6d86:	d000      	beq.n	6d8a <usart_init+0x116>
    6d88:	e095      	b.n	6eb6 <usart_init+0x242>
    6d8a:	7e73      	ldrb	r3, [r6, #25]
    6d8c:	2b00      	cmp	r3, #0
    6d8e:	d002      	beq.n	6d96 <usart_init+0x122>
    6d90:	7eb3      	ldrb	r3, [r6, #26]
    6d92:	9a03      	ldr	r2, [sp, #12]
    6d94:	7393      	strb	r3, [r2, #14]
    6d96:	4b60      	ldr	r3, [pc, #384]	; (6f18 <usart_init+0x2a4>)
    6d98:	0038      	movs	r0, r7
    6d9a:	4798      	blx	r3
    6d9c:	ab0a      	add	r3, sp, #40	; 0x28
    6d9e:	8a1b      	ldrh	r3, [r3, #16]
    6da0:	9a03      	ldr	r2, [sp, #12]
    6da2:	9c06      	ldr	r4, [sp, #24]
    6da4:	8193      	strh	r3, [r2, #12]
    6da6:	9b07      	ldr	r3, [sp, #28]
    6da8:	431c      	orrs	r4, r3
    6daa:	9b08      	ldr	r3, [sp, #32]
    6dac:	431c      	orrs	r4, r3
    6dae:	9b05      	ldr	r3, [sp, #20]
    6db0:	431c      	orrs	r4, r3
    6db2:	9b02      	ldr	r3, [sp, #8]
    6db4:	431c      	orrs	r4, r3
    6db6:	9b09      	ldr	r3, [sp, #36]	; 0x24
    6db8:	021b      	lsls	r3, r3, #8
    6dba:	431c      	orrs	r4, r3
    6dbc:	9b0a      	ldr	r3, [sp, #40]	; 0x28
    6dbe:	075b      	lsls	r3, r3, #29
    6dc0:	431c      	orrs	r4, r3
    6dc2:	0033      	movs	r3, r6
    6dc4:	3308      	adds	r3, #8
    6dc6:	7fdb      	ldrb	r3, [r3, #31]
    6dc8:	2b00      	cmp	r3, #0
    6dca:	d101      	bne.n	6dd0 <usart_init+0x15c>
    6dcc:	3304      	adds	r3, #4
    6dce:	431c      	orrs	r4, r3
    6dd0:	7e75      	ldrb	r5, [r6, #25]
    6dd2:	7f33      	ldrb	r3, [r6, #28]
    6dd4:	02ad      	lsls	r5, r5, #10
    6dd6:	025b      	lsls	r3, r3, #9
    6dd8:	431d      	orrs	r5, r3
    6dda:	7f73      	ldrb	r3, [r6, #29]
    6ddc:	7af2      	ldrb	r2, [r6, #11]
    6dde:	021b      	lsls	r3, r3, #8
    6de0:	431d      	orrs	r5, r3
    6de2:	1d73      	adds	r3, r6, #5
    6de4:	7fdb      	ldrb	r3, [r3, #31]
    6de6:	045b      	lsls	r3, r3, #17
    6de8:	431d      	orrs	r5, r3
    6dea:	1db3      	adds	r3, r6, #6
    6dec:	7fdb      	ldrb	r3, [r3, #31]
    6dee:	041b      	lsls	r3, r3, #16
    6df0:	432b      	orrs	r3, r5
    6df2:	7ab5      	ldrb	r5, [r6, #10]
    6df4:	4315      	orrs	r5, r2
    6df6:	431d      	orrs	r5, r3
    6df8:	8933      	ldrh	r3, [r6, #8]
    6dfa:	2bff      	cmp	r3, #255	; 0xff
    6dfc:	d100      	bne.n	6e00 <usart_init+0x18c>
    6dfe:	e075      	b.n	6eec <usart_init+0x278>
    6e00:	2280      	movs	r2, #128	; 0x80
    6e02:	0452      	lsls	r2, r2, #17
    6e04:	4314      	orrs	r4, r2
    6e06:	431d      	orrs	r5, r3
    6e08:	0033      	movs	r3, r6
    6e0a:	332c      	adds	r3, #44	; 0x2c
    6e0c:	781b      	ldrb	r3, [r3, #0]
    6e0e:	2b00      	cmp	r3, #0
    6e10:	d103      	bne.n	6e1a <usart_init+0x1a6>
    6e12:	4b42      	ldr	r3, [pc, #264]	; (6f1c <usart_init+0x2a8>)
    6e14:	789b      	ldrb	r3, [r3, #2]
    6e16:	079b      	lsls	r3, r3, #30
    6e18:	d501      	bpl.n	6e1e <usart_init+0x1aa>
    6e1a:	2380      	movs	r3, #128	; 0x80
    6e1c:	431c      	orrs	r4, r3
    6e1e:	0038      	movs	r0, r7
    6e20:	4b3d      	ldr	r3, [pc, #244]	; (6f18 <usart_init+0x2a4>)
    6e22:	4798      	blx	r3
    6e24:	9b03      	ldr	r3, [sp, #12]
    6e26:	0038      	movs	r0, r7
    6e28:	605d      	str	r5, [r3, #4]
    6e2a:	4b3b      	ldr	r3, [pc, #236]	; (6f18 <usart_init+0x2a4>)
    6e2c:	4798      	blx	r3
    6e2e:	9b03      	ldr	r3, [sp, #12]
    6e30:	2500      	movs	r5, #0
    6e32:	601c      	str	r4, [r3, #0]
    6e34:	2380      	movs	r3, #128	; 0x80
    6e36:	ac0d      	add	r4, sp, #52	; 0x34
    6e38:	7023      	strb	r3, [r4, #0]
    6e3a:	6b33      	ldr	r3, [r6, #48]	; 0x30
    6e3c:	7065      	strb	r5, [r4, #1]
    6e3e:	930e      	str	r3, [sp, #56]	; 0x38
    6e40:	6b73      	ldr	r3, [r6, #52]	; 0x34
    6e42:	70e5      	strb	r5, [r4, #3]
    6e44:	930f      	str	r3, [sp, #60]	; 0x3c
    6e46:	6bb3      	ldr	r3, [r6, #56]	; 0x38
    6e48:	70a5      	strb	r5, [r4, #2]
    6e4a:	9310      	str	r3, [sp, #64]	; 0x40
    6e4c:	6bf3      	ldr	r3, [r6, #60]	; 0x3c
    6e4e:	9302      	str	r3, [sp, #8]
    6e50:	9311      	str	r3, [sp, #68]	; 0x44
    6e52:	2010      	movs	r0, #16
    6e54:	aa0a      	add	r2, sp, #40	; 0x28
    6e56:	00ab      	lsls	r3, r5, #2
    6e58:	1812      	adds	r2, r2, r0
    6e5a:	58d0      	ldr	r0, [r2, r3]
    6e5c:	b2e9      	uxtb	r1, r5
    6e5e:	2800      	cmp	r0, #0
    6e60:	d102      	bne.n	6e68 <usart_init+0x1f4>
    6e62:	9804      	ldr	r0, [sp, #16]
    6e64:	4b2e      	ldr	r3, [pc, #184]	; (6f20 <usart_init+0x2ac>)
    6e66:	4798      	blx	r3
    6e68:	1c43      	adds	r3, r0, #1
    6e6a:	d005      	beq.n	6e78 <usart_init+0x204>
    6e6c:	7020      	strb	r0, [r4, #0]
    6e6e:	0c00      	lsrs	r0, r0, #16
    6e70:	b2c0      	uxtb	r0, r0
    6e72:	0021      	movs	r1, r4
    6e74:	4b2b      	ldr	r3, [pc, #172]	; (6f24 <usart_init+0x2b0>)
    6e76:	4798      	blx	r3
    6e78:	3501      	adds	r5, #1
    6e7a:	2d04      	cmp	r5, #4
    6e7c:	d1e9      	bne.n	6e52 <usart_init+0x1de>
    6e7e:	003b      	movs	r3, r7
    6e80:	2400      	movs	r4, #0
    6e82:	3330      	adds	r3, #48	; 0x30
    6e84:	85fc      	strh	r4, [r7, #46]	; 0x2e
    6e86:	60fc      	str	r4, [r7, #12]
    6e88:	613c      	str	r4, [r7, #16]
    6e8a:	617c      	str	r4, [r7, #20]
    6e8c:	61bc      	str	r4, [r7, #24]
    6e8e:	61fc      	str	r4, [r7, #28]
    6e90:	623c      	str	r4, [r7, #32]
    6e92:	62bc      	str	r4, [r7, #40]	; 0x28
    6e94:	627c      	str	r4, [r7, #36]	; 0x24
    6e96:	85bc      	strh	r4, [r7, #44]	; 0x2c
    6e98:	709c      	strb	r4, [r3, #2]
    6e9a:	701c      	strb	r4, [r3, #0]
    6e9c:	705c      	strb	r4, [r3, #1]
    6e9e:	70dc      	strb	r4, [r3, #3]
    6ea0:	6838      	ldr	r0, [r7, #0]
    6ea2:	4b16      	ldr	r3, [pc, #88]	; (6efc <usart_init+0x288>)
    6ea4:	4798      	blx	r3
    6ea6:	0005      	movs	r5, r0
    6ea8:	4b1f      	ldr	r3, [pc, #124]	; (6f28 <usart_init+0x2b4>)
    6eaa:	4920      	ldr	r1, [pc, #128]	; (6f2c <usart_init+0x2b8>)
    6eac:	4798      	blx	r3
    6eae:	0020      	movs	r0, r4
    6eb0:	4b1f      	ldr	r3, [pc, #124]	; (6f30 <usart_init+0x2bc>)
    6eb2:	00ad      	lsls	r5, r5, #2
    6eb4:	50ef      	str	r7, [r5, r3]
    6eb6:	b013      	add	sp, #76	; 0x4c
    6eb8:	bdf0      	pop	{r4, r5, r6, r7, pc}
    6eba:	2508      	movs	r5, #8
    6ebc:	2401      	movs	r4, #1
    6ebe:	e73d      	b.n	6d3c <usart_init+0xc8>
    6ec0:	7fdb      	ldrb	r3, [r3, #31]
    6ec2:	2b00      	cmp	r3, #0
    6ec4:	d007      	beq.n	6ed6 <usart_init+0x262>
    6ec6:	0023      	movs	r3, r4
    6ec8:	6ab1      	ldr	r1, [r6, #40]	; 0x28
    6eca:	6a30      	ldr	r0, [r6, #32]
    6ecc:	9500      	str	r5, [sp, #0]
    6ece:	aa0e      	add	r2, sp, #56	; 0x38
    6ed0:	4c18      	ldr	r4, [pc, #96]	; (6f34 <usart_init+0x2c0>)
    6ed2:	47a0      	blx	r4
    6ed4:	e756      	b.n	6d84 <usart_init+0x110>
    6ed6:	6a33      	ldr	r3, [r6, #32]
    6ed8:	b2c0      	uxtb	r0, r0
    6eda:	930b      	str	r3, [sp, #44]	; 0x2c
    6edc:	4b0c      	ldr	r3, [pc, #48]	; (6f10 <usart_init+0x29c>)
    6ede:	4798      	blx	r3
    6ee0:	9500      	str	r5, [sp, #0]
    6ee2:	0001      	movs	r1, r0
    6ee4:	0023      	movs	r3, r4
    6ee6:	aa0e      	add	r2, sp, #56	; 0x38
    6ee8:	980b      	ldr	r0, [sp, #44]	; 0x2c
    6eea:	e7f1      	b.n	6ed0 <usart_init+0x25c>
    6eec:	7ef3      	ldrb	r3, [r6, #27]
    6eee:	2b00      	cmp	r3, #0
    6ef0:	d100      	bne.n	6ef4 <usart_init+0x280>
    6ef2:	e789      	b.n	6e08 <usart_init+0x194>
    6ef4:	2380      	movs	r3, #128	; 0x80
    6ef6:	04db      	lsls	r3, r3, #19
    6ef8:	431c      	orrs	r4, r3
    6efa:	e785      	b.n	6e08 <usart_init+0x194>
    6efc:	000065f5 	.word	0x000065f5
    6f00:	40000400 	.word	0x40000400
    6f04:	0000774d 	.word	0x0000774d
    6f08:	000076c5 	.word	0x000076c5
    6f0c:	00006455 	.word	0x00006455
    6f10:	00007769 	.word	0x00007769
    6f14:	00006395 	.word	0x00006395
    6f18:	00006c69 	.word	0x00006c69
    6f1c:	41002000 	.word	0x41002000
    6f20:	00006499 	.word	0x00006499
    6f24:	00007821 	.word	0x00007821
    6f28:	00006629 	.word	0x00006629
    6f2c:	00006fdd 	.word	0x00006fdd
    6f30:	200018a0 	.word	0x200018a0
    6f34:	000063bd 	.word	0x000063bd

00006f38 <usart_write_wait>:
    6f38:	b570      	push	{r4, r5, r6, lr}
    6f3a:	79c2      	ldrb	r2, [r0, #7]
    6f3c:	000d      	movs	r5, r1
    6f3e:	231c      	movs	r3, #28
    6f40:	2a00      	cmp	r2, #0
    6f42:	d00c      	beq.n	6f5e <usart_write_wait+0x26>
    6f44:	8dc2      	ldrh	r2, [r0, #46]	; 0x2e
    6f46:	3b17      	subs	r3, #23
    6f48:	2a00      	cmp	r2, #0
    6f4a:	d108      	bne.n	6f5e <usart_write_wait+0x26>
    6f4c:	4b05      	ldr	r3, [pc, #20]	; (6f64 <usart_write_wait+0x2c>)
    6f4e:	6804      	ldr	r4, [r0, #0]
    6f50:	4798      	blx	r3
    6f52:	2302      	movs	r3, #2
    6f54:	8525      	strh	r5, [r4, #40]	; 0x28
    6f56:	7e22      	ldrb	r2, [r4, #24]
    6f58:	421a      	tst	r2, r3
    6f5a:	d0fc      	beq.n	6f56 <usart_write_wait+0x1e>
    6f5c:	2300      	movs	r3, #0
    6f5e:	0018      	movs	r0, r3
    6f60:	bd70      	pop	{r4, r5, r6, pc}
    6f62:	46c0      	nop			; (mov r8, r8)
    6f64:	00006c69 	.word	0x00006c69

00006f68 <usart_read_wait>:
    6f68:	b570      	push	{r4, r5, r6, lr}
    6f6a:	7982      	ldrb	r2, [r0, #6]
    6f6c:	000e      	movs	r6, r1
    6f6e:	231c      	movs	r3, #28
    6f70:	2a00      	cmp	r2, #0
    6f72:	d013      	beq.n	6f9c <usart_read_wait+0x34>
    6f74:	8d82      	ldrh	r2, [r0, #44]	; 0x2c
    6f76:	3b17      	subs	r3, #23
    6f78:	2a00      	cmp	r2, #0
    6f7a:	d10f      	bne.n	6f9c <usart_read_wait+0x34>
    6f7c:	2504      	movs	r5, #4
    6f7e:	6804      	ldr	r4, [r0, #0]
    6f80:	7e22      	ldrb	r2, [r4, #24]
    6f82:	422a      	tst	r2, r5
    6f84:	d00a      	beq.n	6f9c <usart_read_wait+0x34>
    6f86:	4b14      	ldr	r3, [pc, #80]	; (6fd8 <usart_read_wait+0x70>)
    6f88:	4798      	blx	r3
    6f8a:	8b63      	ldrh	r3, [r4, #26]
    6f8c:	b2db      	uxtb	r3, r3
    6f8e:	069a      	lsls	r2, r3, #26
    6f90:	d01d      	beq.n	6fce <usart_read_wait+0x66>
    6f92:	2202      	movs	r2, #2
    6f94:	4213      	tst	r3, r2
    6f96:	d003      	beq.n	6fa0 <usart_read_wait+0x38>
    6f98:	231a      	movs	r3, #26
    6f9a:	8362      	strh	r2, [r4, #26]
    6f9c:	0018      	movs	r0, r3
    6f9e:	bd70      	pop	{r4, r5, r6, pc}
    6fa0:	422b      	tst	r3, r5
    6fa2:	d002      	beq.n	6faa <usart_read_wait+0x42>
    6fa4:	8365      	strh	r5, [r4, #26]
    6fa6:	231e      	movs	r3, #30
    6fa8:	e7f8      	b.n	6f9c <usart_read_wait+0x34>
    6faa:	2201      	movs	r2, #1
    6fac:	4213      	tst	r3, r2
    6fae:	d002      	beq.n	6fb6 <usart_read_wait+0x4e>
    6fb0:	8362      	strh	r2, [r4, #26]
    6fb2:	2313      	movs	r3, #19
    6fb4:	e7f2      	b.n	6f9c <usart_read_wait+0x34>
    6fb6:	2210      	movs	r2, #16
    6fb8:	4213      	tst	r3, r2
    6fba:	d002      	beq.n	6fc2 <usart_read_wait+0x5a>
    6fbc:	8362      	strh	r2, [r4, #26]
    6fbe:	2342      	movs	r3, #66	; 0x42
    6fc0:	e7ec      	b.n	6f9c <usart_read_wait+0x34>
    6fc2:	2220      	movs	r2, #32
    6fc4:	4213      	tst	r3, r2
    6fc6:	d002      	beq.n	6fce <usart_read_wait+0x66>
    6fc8:	8362      	strh	r2, [r4, #26]
    6fca:	2341      	movs	r3, #65	; 0x41
    6fcc:	e7e6      	b.n	6f9c <usart_read_wait+0x34>
    6fce:	8d23      	ldrh	r3, [r4, #40]	; 0x28
    6fd0:	8033      	strh	r3, [r6, #0]
    6fd2:	2300      	movs	r3, #0
    6fd4:	e7e2      	b.n	6f9c <usart_read_wait+0x34>
    6fd6:	46c0      	nop			; (mov r8, r8)
    6fd8:	00006c69 	.word	0x00006c69

00006fdc <_usart_interrupt_handler>:
    6fdc:	b5f8      	push	{r3, r4, r5, r6, r7, lr}
    6fde:	4b58      	ldr	r3, [pc, #352]	; (7140 <_usart_interrupt_handler+0x164>)
    6fe0:	0080      	lsls	r0, r0, #2
    6fe2:	58c4      	ldr	r4, [r0, r3]
    6fe4:	6825      	ldr	r5, [r4, #0]
    6fe6:	69eb      	ldr	r3, [r5, #28]
    6fe8:	2b00      	cmp	r3, #0
    6fea:	d1fc      	bne.n	6fe6 <_usart_interrupt_handler+0xa>
    6fec:	7e2b      	ldrb	r3, [r5, #24]
    6fee:	7daf      	ldrb	r7, [r5, #22]
    6ff0:	401f      	ands	r7, r3
    6ff2:	0023      	movs	r3, r4
    6ff4:	3330      	adds	r3, #48	; 0x30
    6ff6:	781a      	ldrb	r2, [r3, #0]
    6ff8:	785e      	ldrb	r6, [r3, #1]
    6ffa:	2301      	movs	r3, #1
    6ffc:	4016      	ands	r6, r2
    6ffe:	421f      	tst	r7, r3
    7000:	d019      	beq.n	7036 <_usart_interrupt_handler+0x5a>
    7002:	8de2      	ldrh	r2, [r4, #46]	; 0x2e
    7004:	2a00      	cmp	r2, #0
    7006:	d100      	bne.n	700a <_usart_interrupt_handler+0x2e>
    7008:	e072      	b.n	70f0 <_usart_interrupt_handler+0x114>
    700a:	6aa2      	ldr	r2, [r4, #40]	; 0x28
    700c:	1c51      	adds	r1, r2, #1
    700e:	7813      	ldrb	r3, [r2, #0]
    7010:	62a1      	str	r1, [r4, #40]	; 0x28
    7012:	7961      	ldrb	r1, [r4, #5]
    7014:	b2db      	uxtb	r3, r3
    7016:	2901      	cmp	r1, #1
    7018:	d064      	beq.n	70e4 <_usart_interrupt_handler+0x108>
    701a:	b29b      	uxth	r3, r3
    701c:	05db      	lsls	r3, r3, #23
    701e:	0ddb      	lsrs	r3, r3, #23
    7020:	852b      	strh	r3, [r5, #40]	; 0x28
    7022:	8de3      	ldrh	r3, [r4, #46]	; 0x2e
    7024:	3b01      	subs	r3, #1
    7026:	b29b      	uxth	r3, r3
    7028:	85e3      	strh	r3, [r4, #46]	; 0x2e
    702a:	2b00      	cmp	r3, #0
    702c:	d103      	bne.n	7036 <_usart_interrupt_handler+0x5a>
    702e:	3301      	adds	r3, #1
    7030:	752b      	strb	r3, [r5, #20]
    7032:	3301      	adds	r3, #1
    7034:	75ab      	strb	r3, [r5, #22]
    7036:	2302      	movs	r3, #2
    7038:	421f      	tst	r7, r3
    703a:	d009      	beq.n	7050 <_usart_interrupt_handler+0x74>
    703c:	752b      	strb	r3, [r5, #20]
    703e:	0023      	movs	r3, r4
    7040:	2200      	movs	r2, #0
    7042:	3333      	adds	r3, #51	; 0x33
    7044:	701a      	strb	r2, [r3, #0]
    7046:	07f3      	lsls	r3, r6, #31
    7048:	d502      	bpl.n	7050 <_usart_interrupt_handler+0x74>
    704a:	0020      	movs	r0, r4
    704c:	68e3      	ldr	r3, [r4, #12]
    704e:	4798      	blx	r3
    7050:	2304      	movs	r3, #4
    7052:	421f      	tst	r7, r3
    7054:	d027      	beq.n	70a6 <_usart_interrupt_handler+0xca>
    7056:	8da2      	ldrh	r2, [r4, #44]	; 0x2c
    7058:	2a00      	cmp	r2, #0
    705a:	d100      	bne.n	705e <_usart_interrupt_handler+0x82>
    705c:	e06d      	b.n	713a <_usart_interrupt_handler+0x15e>
    705e:	8b6b      	ldrh	r3, [r5, #26]
    7060:	b2db      	uxtb	r3, r3
    7062:	071a      	lsls	r2, r3, #28
    7064:	d446      	bmi.n	70f4 <_usart_interrupt_handler+0x118>
    7066:	223f      	movs	r2, #63	; 0x3f
    7068:	4013      	ands	r3, r2
    706a:	d045      	beq.n	70f8 <_usart_interrupt_handler+0x11c>
    706c:	2202      	movs	r2, #2
    706e:	211a      	movs	r1, #26
    7070:	4213      	tst	r3, r2
    7072:	d10f      	bne.n	7094 <_usart_interrupt_handler+0xb8>
    7074:	2204      	movs	r2, #4
    7076:	211e      	movs	r1, #30
    7078:	4213      	tst	r3, r2
    707a:	d10b      	bne.n	7094 <_usart_interrupt_handler+0xb8>
    707c:	2201      	movs	r2, #1
    707e:	2113      	movs	r1, #19
    7080:	4213      	tst	r3, r2
    7082:	d107      	bne.n	7094 <_usart_interrupt_handler+0xb8>
    7084:	2210      	movs	r2, #16
    7086:	2142      	movs	r1, #66	; 0x42
    7088:	4213      	tst	r3, r2
    708a:	d103      	bne.n	7094 <_usart_interrupt_handler+0xb8>
    708c:	2220      	movs	r2, #32
    708e:	4213      	tst	r3, r2
    7090:	d004      	beq.n	709c <_usart_interrupt_handler+0xc0>
    7092:	2141      	movs	r1, #65	; 0x41
    7094:	0023      	movs	r3, r4
    7096:	3332      	adds	r3, #50	; 0x32
    7098:	7019      	strb	r1, [r3, #0]
    709a:	836a      	strh	r2, [r5, #26]
    709c:	0773      	lsls	r3, r6, #29
    709e:	d502      	bpl.n	70a6 <_usart_interrupt_handler+0xca>
    70a0:	0020      	movs	r0, r4
    70a2:	6963      	ldr	r3, [r4, #20]
    70a4:	4798      	blx	r3
    70a6:	2310      	movs	r3, #16
    70a8:	421f      	tst	r7, r3
    70aa:	d006      	beq.n	70ba <_usart_interrupt_handler+0xde>
    70ac:	752b      	strb	r3, [r5, #20]
    70ae:	762b      	strb	r3, [r5, #24]
    70b0:	421e      	tst	r6, r3
    70b2:	d002      	beq.n	70ba <_usart_interrupt_handler+0xde>
    70b4:	0020      	movs	r0, r4
    70b6:	69e3      	ldr	r3, [r4, #28]
    70b8:	4798      	blx	r3
    70ba:	2320      	movs	r3, #32
    70bc:	421f      	tst	r7, r3
    70be:	d006      	beq.n	70ce <_usart_interrupt_handler+0xf2>
    70c0:	752b      	strb	r3, [r5, #20]
    70c2:	762b      	strb	r3, [r5, #24]
    70c4:	0733      	lsls	r3, r6, #28
    70c6:	d502      	bpl.n	70ce <_usart_interrupt_handler+0xf2>
    70c8:	0020      	movs	r0, r4
    70ca:	69a3      	ldr	r3, [r4, #24]
    70cc:	4798      	blx	r3
    70ce:	2308      	movs	r3, #8
    70d0:	421f      	tst	r7, r3
    70d2:	d006      	beq.n	70e2 <_usart_interrupt_handler+0x106>
    70d4:	752b      	strb	r3, [r5, #20]
    70d6:	762b      	strb	r3, [r5, #24]
    70d8:	06b3      	lsls	r3, r6, #26
    70da:	d502      	bpl.n	70e2 <_usart_interrupt_handler+0x106>
    70dc:	6a23      	ldr	r3, [r4, #32]
    70de:	0020      	movs	r0, r4
    70e0:	4798      	blx	r3
    70e2:	bdf8      	pop	{r3, r4, r5, r6, r7, pc}
    70e4:	7851      	ldrb	r1, [r2, #1]
    70e6:	3202      	adds	r2, #2
    70e8:	0209      	lsls	r1, r1, #8
    70ea:	430b      	orrs	r3, r1
    70ec:	62a2      	str	r2, [r4, #40]	; 0x28
    70ee:	e795      	b.n	701c <_usart_interrupt_handler+0x40>
    70f0:	752b      	strb	r3, [r5, #20]
    70f2:	e7a0      	b.n	7036 <_usart_interrupt_handler+0x5a>
    70f4:	2237      	movs	r2, #55	; 0x37
    70f6:	e7b7      	b.n	7068 <_usart_interrupt_handler+0x8c>
    70f8:	8d2b      	ldrh	r3, [r5, #40]	; 0x28
    70fa:	6a61      	ldr	r1, [r4, #36]	; 0x24
    70fc:	05db      	lsls	r3, r3, #23
    70fe:	0ddb      	lsrs	r3, r3, #23
    7100:	b2da      	uxtb	r2, r3
    7102:	700a      	strb	r2, [r1, #0]
    7104:	6a62      	ldr	r2, [r4, #36]	; 0x24
    7106:	1c51      	adds	r1, r2, #1
    7108:	6261      	str	r1, [r4, #36]	; 0x24
    710a:	7961      	ldrb	r1, [r4, #5]
    710c:	2901      	cmp	r1, #1
    710e:	d104      	bne.n	711a <_usart_interrupt_handler+0x13e>
    7110:	0a1b      	lsrs	r3, r3, #8
    7112:	7053      	strb	r3, [r2, #1]
    7114:	6a63      	ldr	r3, [r4, #36]	; 0x24
    7116:	3301      	adds	r3, #1
    7118:	6263      	str	r3, [r4, #36]	; 0x24
    711a:	8da3      	ldrh	r3, [r4, #44]	; 0x2c
    711c:	3b01      	subs	r3, #1
    711e:	b29b      	uxth	r3, r3
    7120:	85a3      	strh	r3, [r4, #44]	; 0x2c
    7122:	2b00      	cmp	r3, #0
    7124:	d1bf      	bne.n	70a6 <_usart_interrupt_handler+0xca>
    7126:	2204      	movs	r2, #4
    7128:	752a      	strb	r2, [r5, #20]
    712a:	0022      	movs	r2, r4
    712c:	3232      	adds	r2, #50	; 0x32
    712e:	7013      	strb	r3, [r2, #0]
    7130:	07b3      	lsls	r3, r6, #30
    7132:	d5b8      	bpl.n	70a6 <_usart_interrupt_handler+0xca>
    7134:	0020      	movs	r0, r4
    7136:	6923      	ldr	r3, [r4, #16]
    7138:	e7b4      	b.n	70a4 <_usart_interrupt_handler+0xc8>
    713a:	752b      	strb	r3, [r5, #20]
    713c:	e7b3      	b.n	70a6 <_usart_interrupt_handler+0xca>
    713e:	46c0      	nop			; (mov r8, r8)
    7140:	200018a0 	.word	0x200018a0

00007144 <_system_dfll_wait_for_sync>:
    7144:	2310      	movs	r3, #16
    7146:	4902      	ldr	r1, [pc, #8]	; (7150 <_system_dfll_wait_for_sync+0xc>)
    7148:	68ca      	ldr	r2, [r1, #12]
    714a:	421a      	tst	r2, r3
    714c:	d0fc      	beq.n	7148 <_system_dfll_wait_for_sync+0x4>
    714e:	4770      	bx	lr
    7150:	40000800 	.word	0x40000800

00007154 <system_clock_source_enable.part.0>:
    7154:	2202      	movs	r2, #2
    7156:	b5f8      	push	{r3, r4, r5, r6, r7, lr}
    7158:	2600      	movs	r6, #0
    715a:	4d09      	ldr	r5, [pc, #36]	; (7180 <system_clock_source_enable.part.0+0x2c>)
    715c:	4c09      	ldr	r4, [pc, #36]	; (7184 <system_clock_source_enable.part.0+0x30>)
    715e:	682b      	ldr	r3, [r5, #0]
    7160:	4f09      	ldr	r7, [pc, #36]	; (7188 <system_clock_source_enable.part.0+0x34>)
    7162:	4313      	orrs	r3, r2
    7164:	602b      	str	r3, [r5, #0]
    7166:	84a2      	strh	r2, [r4, #36]	; 0x24
    7168:	47b8      	blx	r7
    716a:	68ab      	ldr	r3, [r5, #8]
    716c:	62e3      	str	r3, [r4, #44]	; 0x2c
    716e:	686b      	ldr	r3, [r5, #4]
    7170:	62a3      	str	r3, [r4, #40]	; 0x28
    7172:	84a6      	strh	r6, [r4, #36]	; 0x24
    7174:	47b8      	blx	r7
    7176:	682b      	ldr	r3, [r5, #0]
    7178:	0030      	movs	r0, r6
    717a:	b29b      	uxth	r3, r3
    717c:	84a3      	strh	r3, [r4, #36]	; 0x24
    717e:	bdf8      	pop	{r3, r4, r5, r6, r7, pc}
    7180:	20000268 	.word	0x20000268
    7184:	40000800 	.word	0x40000800
    7188:	00007145 	.word	0x00007145

0000718c <system_clock_source_get_hz>:
    718c:	b570      	push	{r4, r5, r6, lr}
    718e:	2808      	cmp	r0, #8
    7190:	d806      	bhi.n	71a0 <system_clock_source_get_hz+0x14>
    7192:	f002 f9c7 	bl	9524 <__gnu_thumb1_case_uqi>
    7196:	0508      	.short	0x0508
    7198:	122e2e05 	.word	0x122e2e05
    719c:	150b      	.short	0x150b
    719e:	26          	.byte	0x26
    719f:	00          	.byte	0x00
    71a0:	2400      	movs	r4, #0
    71a2:	0020      	movs	r0, r4
    71a4:	bd70      	pop	{r4, r5, r6, pc}
    71a6:	4b15      	ldr	r3, [pc, #84]	; (71fc <system_clock_source_get_hz+0x70>)
    71a8:	691c      	ldr	r4, [r3, #16]
    71aa:	e7fa      	b.n	71a2 <system_clock_source_get_hz+0x16>
    71ac:	4b14      	ldr	r3, [pc, #80]	; (7200 <system_clock_source_get_hz+0x74>)
    71ae:	4c15      	ldr	r4, [pc, #84]	; (7204 <system_clock_source_get_hz+0x78>)
    71b0:	6a1b      	ldr	r3, [r3, #32]
    71b2:	059b      	lsls	r3, r3, #22
    71b4:	0f9b      	lsrs	r3, r3, #30
    71b6:	40dc      	lsrs	r4, r3
    71b8:	e7f3      	b.n	71a2 <system_clock_source_get_hz+0x16>
    71ba:	4b10      	ldr	r3, [pc, #64]	; (71fc <system_clock_source_get_hz+0x70>)
    71bc:	695c      	ldr	r4, [r3, #20]
    71be:	e7f0      	b.n	71a2 <system_clock_source_get_hz+0x16>
    71c0:	4d0e      	ldr	r5, [pc, #56]	; (71fc <system_clock_source_get_hz+0x70>)
    71c2:	2400      	movs	r4, #0
    71c4:	682b      	ldr	r3, [r5, #0]
    71c6:	079b      	lsls	r3, r3, #30
    71c8:	d5eb      	bpl.n	71a2 <system_clock_source_get_hz+0x16>
    71ca:	4b0f      	ldr	r3, [pc, #60]	; (7208 <system_clock_source_get_hz+0x7c>)
    71cc:	4798      	blx	r3
    71ce:	682b      	ldr	r3, [r5, #0]
    71d0:	075b      	lsls	r3, r3, #29
    71d2:	d511      	bpl.n	71f8 <system_clock_source_get_hz+0x6c>
    71d4:	0020      	movs	r0, r4
    71d6:	4b0d      	ldr	r3, [pc, #52]	; (720c <system_clock_source_get_hz+0x80>)
    71d8:	4798      	blx	r3
    71da:	68ac      	ldr	r4, [r5, #8]
    71dc:	b2a4      	uxth	r4, r4
    71de:	4344      	muls	r4, r0
    71e0:	e7df      	b.n	71a2 <system_clock_source_get_hz+0x16>
    71e2:	4b0b      	ldr	r3, [pc, #44]	; (7210 <system_clock_source_get_hz+0x84>)
    71e4:	2400      	movs	r4, #0
    71e6:	781b      	ldrb	r3, [r3, #0]
    71e8:	075b      	lsls	r3, r3, #29
    71ea:	d5da      	bpl.n	71a2 <system_clock_source_get_hz+0x16>
    71ec:	4b03      	ldr	r3, [pc, #12]	; (71fc <system_clock_source_get_hz+0x70>)
    71ee:	68dc      	ldr	r4, [r3, #12]
    71f0:	e7d7      	b.n	71a2 <system_clock_source_get_hz+0x16>
    71f2:	2480      	movs	r4, #128	; 0x80
    71f4:	0224      	lsls	r4, r4, #8
    71f6:	e7d4      	b.n	71a2 <system_clock_source_get_hz+0x16>
    71f8:	4c06      	ldr	r4, [pc, #24]	; (7214 <system_clock_source_get_hz+0x88>)
    71fa:	e7d2      	b.n	71a2 <system_clock_source_get_hz+0x16>
    71fc:	20000268 	.word	0x20000268
    7200:	40000800 	.word	0x40000800
    7204:	007a1200 	.word	0x007a1200
    7208:	00007145 	.word	0x00007145
    720c:	00007769 	.word	0x00007769
    7210:	40000850 	.word	0x40000850
    7214:	02dc6c00 	.word	0x02dc6c00

00007218 <system_clock_source_osc8m_set_config>:
    7218:	b570      	push	{r4, r5, r6, lr}
    721a:	7884      	ldrb	r4, [r0, #2]
    721c:	7802      	ldrb	r2, [r0, #0]
    721e:	7845      	ldrb	r5, [r0, #1]
    7220:	2001      	movs	r0, #1
    7222:	2640      	movs	r6, #64	; 0x40
    7224:	4005      	ands	r5, r0
    7226:	4020      	ands	r0, r4
    7228:	2480      	movs	r4, #128	; 0x80
    722a:	4908      	ldr	r1, [pc, #32]	; (724c <system_clock_source_osc8m_set_config+0x34>)
    722c:	01ad      	lsls	r5, r5, #6
    722e:	6a0b      	ldr	r3, [r1, #32]
    7230:	01c0      	lsls	r0, r0, #7
    7232:	43b3      	bics	r3, r6
    7234:	432b      	orrs	r3, r5
    7236:	43a3      	bics	r3, r4
    7238:	4303      	orrs	r3, r0
    723a:	2003      	movs	r0, #3
    723c:	4002      	ands	r2, r0
    723e:	4804      	ldr	r0, [pc, #16]	; (7250 <system_clock_source_osc8m_set_config+0x38>)
    7240:	0212      	lsls	r2, r2, #8
    7242:	4003      	ands	r3, r0
    7244:	4313      	orrs	r3, r2
    7246:	620b      	str	r3, [r1, #32]
    7248:	bd70      	pop	{r4, r5, r6, pc}
    724a:	46c0      	nop			; (mov r8, r8)
    724c:	40000800 	.word	0x40000800
    7250:	fffffcff 	.word	0xfffffcff

00007254 <system_clock_source_xosc32k_set_config>:
    7254:	b5f0      	push	{r4, r5, r6, r7, lr}
    7256:	4b22      	ldr	r3, [pc, #136]	; (72e0 <system_clock_source_xosc32k_set_config+0x8c>)
    7258:	7842      	ldrb	r2, [r0, #1]
    725a:	7807      	ldrb	r7, [r0, #0]
    725c:	b085      	sub	sp, #20
    725e:	469c      	mov	ip, r3
    7260:	8a9b      	ldrh	r3, [r3, #20]
    7262:	9203      	str	r2, [sp, #12]
    7264:	427a      	negs	r2, r7
    7266:	4157      	adcs	r7, r2
    7268:	7b42      	ldrb	r2, [r0, #13]
    726a:	7884      	ldrb	r4, [r0, #2]
    726c:	78c5      	ldrb	r5, [r0, #3]
    726e:	7906      	ldrb	r6, [r0, #4]
    7270:	9201      	str	r2, [sp, #4]
    7272:	7b02      	ldrb	r2, [r0, #12]
    7274:	9202      	str	r2, [sp, #8]
    7276:	7b81      	ldrb	r1, [r0, #14]
    7278:	4a1a      	ldr	r2, [pc, #104]	; (72e4 <system_clock_source_xosc32k_set_config+0x90>)
    727a:	6880      	ldr	r0, [r0, #8]
    727c:	6150      	str	r0, [r2, #20]
    727e:	00b8      	lsls	r0, r7, #2
    7280:	2704      	movs	r7, #4
    7282:	2201      	movs	r2, #1
    7284:	43bb      	bics	r3, r7
    7286:	4318      	orrs	r0, r3
    7288:	2308      	movs	r3, #8
    728a:	4015      	ands	r5, r2
    728c:	40bd      	lsls	r5, r7
    728e:	4016      	ands	r6, r2
    7290:	4398      	bics	r0, r3
    7292:	00f6      	lsls	r6, r6, #3
    7294:	4306      	orrs	r6, r0
    7296:	18db      	adds	r3, r3, r3
    7298:	439e      	bics	r6, r3
    729a:	4335      	orrs	r5, r6
    729c:	3310      	adds	r3, #16
    729e:	439d      	bics	r5, r3
    72a0:	002b      	movs	r3, r5
    72a2:	2040      	movs	r0, #64	; 0x40
    72a4:	4014      	ands	r4, r2
    72a6:	0164      	lsls	r4, r4, #5
    72a8:	4323      	orrs	r3, r4
    72aa:	9c02      	ldr	r4, [sp, #8]
    72ac:	4383      	bics	r3, r0
    72ae:	4014      	ands	r4, r2
    72b0:	01a4      	lsls	r4, r4, #6
    72b2:	4323      	orrs	r3, r4
    72b4:	2480      	movs	r4, #128	; 0x80
    72b6:	9801      	ldr	r0, [sp, #4]
    72b8:	43a3      	bics	r3, r4
    72ba:	4010      	ands	r0, r2
    72bc:	01c0      	lsls	r0, r0, #7
    72be:	4303      	orrs	r3, r0
    72c0:	2007      	movs	r0, #7
    72c2:	9c03      	ldr	r4, [sp, #12]
    72c4:	4011      	ands	r1, r2
    72c6:	4020      	ands	r0, r4
    72c8:	4c07      	ldr	r4, [pc, #28]	; (72e8 <system_clock_source_xosc32k_set_config+0x94>)
    72ca:	0200      	lsls	r0, r0, #8
    72cc:	4023      	ands	r3, r4
    72ce:	4a07      	ldr	r2, [pc, #28]	; (72ec <system_clock_source_xosc32k_set_config+0x98>)
    72d0:	4303      	orrs	r3, r0
    72d2:	401a      	ands	r2, r3
    72d4:	4663      	mov	r3, ip
    72d6:	0309      	lsls	r1, r1, #12
    72d8:	430a      	orrs	r2, r1
    72da:	829a      	strh	r2, [r3, #20]
    72dc:	b005      	add	sp, #20
    72de:	bdf0      	pop	{r4, r5, r6, r7, pc}
    72e0:	40000800 	.word	0x40000800
    72e4:	20000268 	.word	0x20000268
    72e8:	fffff8ff 	.word	0xfffff8ff
    72ec:	ffffefff 	.word	0xffffefff

000072f0 <system_clock_source_dfll_set_config>:
    72f0:	b510      	push	{r4, lr}
    72f2:	7a02      	ldrb	r2, [r0, #8]
    72f4:	8943      	ldrh	r3, [r0, #10]
    72f6:	0692      	lsls	r2, r2, #26
    72f8:	059b      	lsls	r3, r3, #22
    72fa:	0d9b      	lsrs	r3, r3, #22
    72fc:	0c12      	lsrs	r2, r2, #16
    72fe:	431a      	orrs	r2, r3
    7300:	4b17      	ldr	r3, [pc, #92]	; (7360 <system_clock_source_dfll_set_config+0x70>)
    7302:	605a      	str	r2, [r3, #4]
    7304:	79c1      	ldrb	r1, [r0, #7]
    7306:	7982      	ldrb	r2, [r0, #6]
    7308:	8884      	ldrh	r4, [r0, #4]
    730a:	430a      	orrs	r2, r1
    730c:	8841      	ldrh	r1, [r0, #2]
    730e:	4321      	orrs	r1, r4
    7310:	430a      	orrs	r2, r1
    7312:	7841      	ldrb	r1, [r0, #1]
    7314:	7804      	ldrb	r4, [r0, #0]
    7316:	01c9      	lsls	r1, r1, #7
    7318:	430a      	orrs	r2, r1
    731a:	601a      	str	r2, [r3, #0]
    731c:	2c04      	cmp	r4, #4
    731e:	d10d      	bne.n	733c <system_clock_source_dfll_set_config+0x4c>
    7320:	7b02      	ldrb	r2, [r0, #12]
    7322:	8a01      	ldrh	r1, [r0, #16]
    7324:	0692      	lsls	r2, r2, #26
    7326:	430a      	orrs	r2, r1
    7328:	89c1      	ldrh	r1, [r0, #14]
    732a:	480e      	ldr	r0, [pc, #56]	; (7364 <system_clock_source_dfll_set_config+0x74>)
    732c:	0409      	lsls	r1, r1, #16
    732e:	4001      	ands	r1, r0
    7330:	430a      	orrs	r2, r1
    7332:	609a      	str	r2, [r3, #8]
    7334:	681a      	ldr	r2, [r3, #0]
    7336:	4314      	orrs	r4, r2
    7338:	601c      	str	r4, [r3, #0]
    733a:	bd10      	pop	{r4, pc}
    733c:	2c20      	cmp	r4, #32
    733e:	d1fc      	bne.n	733a <system_clock_source_dfll_set_config+0x4a>
    7340:	7b02      	ldrb	r2, [r0, #12]
    7342:	8a01      	ldrh	r1, [r0, #16]
    7344:	0692      	lsls	r2, r2, #26
    7346:	430a      	orrs	r2, r1
    7348:	89c1      	ldrh	r1, [r0, #14]
    734a:	4806      	ldr	r0, [pc, #24]	; (7364 <system_clock_source_dfll_set_config+0x74>)
    734c:	0409      	lsls	r1, r1, #16
    734e:	4001      	ands	r1, r0
    7350:	430a      	orrs	r2, r1
    7352:	609a      	str	r2, [r3, #8]
    7354:	6819      	ldr	r1, [r3, #0]
    7356:	4a04      	ldr	r2, [pc, #16]	; (7368 <system_clock_source_dfll_set_config+0x78>)
    7358:	430a      	orrs	r2, r1
    735a:	601a      	str	r2, [r3, #0]
    735c:	e7ed      	b.n	733a <system_clock_source_dfll_set_config+0x4a>
    735e:	46c0      	nop			; (mov r8, r8)
    7360:	20000268 	.word	0x20000268
    7364:	03ff0000 	.word	0x03ff0000
    7368:	00000424 	.word	0x00000424

0000736c <system_clock_source_enable>:
    736c:	b510      	push	{r4, lr}
    736e:	2808      	cmp	r0, #8
    7370:	d806      	bhi.n	7380 <system_clock_source_enable+0x14>
    7372:	f002 f8d7 	bl	9524 <__gnu_thumb1_case_uqi>
    7376:	0514      	.short	0x0514
    7378:	1a0e0c05 	.word	0x1a0e0c05
    737c:	2007      	.short	0x2007
    737e:	23          	.byte	0x23
    737f:	00          	.byte	0x00
    7380:	2017      	movs	r0, #23
    7382:	bd10      	pop	{r4, pc}
    7384:	2302      	movs	r3, #2
    7386:	4a10      	ldr	r2, [pc, #64]	; (73c8 <system_clock_source_enable+0x5c>)
    7388:	6a11      	ldr	r1, [r2, #32]
    738a:	430b      	orrs	r3, r1
    738c:	6213      	str	r3, [r2, #32]
    738e:	2000      	movs	r0, #0
    7390:	e7f7      	b.n	7382 <system_clock_source_enable+0x16>
    7392:	2302      	movs	r3, #2
    7394:	4a0c      	ldr	r2, [pc, #48]	; (73c8 <system_clock_source_enable+0x5c>)
    7396:	6991      	ldr	r1, [r2, #24]
    7398:	430b      	orrs	r3, r1
    739a:	6193      	str	r3, [r2, #24]
    739c:	e7f7      	b.n	738e <system_clock_source_enable+0x22>
    739e:	2302      	movs	r3, #2
    73a0:	4a09      	ldr	r2, [pc, #36]	; (73c8 <system_clock_source_enable+0x5c>)
    73a2:	8a11      	ldrh	r1, [r2, #16]
    73a4:	430b      	orrs	r3, r1
    73a6:	8213      	strh	r3, [r2, #16]
    73a8:	e7f1      	b.n	738e <system_clock_source_enable+0x22>
    73aa:	2302      	movs	r3, #2
    73ac:	4a06      	ldr	r2, [pc, #24]	; (73c8 <system_clock_source_enable+0x5c>)
    73ae:	8a91      	ldrh	r1, [r2, #20]
    73b0:	430b      	orrs	r3, r1
    73b2:	8293      	strh	r3, [r2, #20]
    73b4:	e7eb      	b.n	738e <system_clock_source_enable+0x22>
    73b6:	4b05      	ldr	r3, [pc, #20]	; (73cc <system_clock_source_enable+0x60>)
    73b8:	4798      	blx	r3
    73ba:	e7e2      	b.n	7382 <system_clock_source_enable+0x16>
    73bc:	2302      	movs	r3, #2
    73be:	4a04      	ldr	r2, [pc, #16]	; (73d0 <system_clock_source_enable+0x64>)
    73c0:	7811      	ldrb	r1, [r2, #0]
    73c2:	430b      	orrs	r3, r1
    73c4:	7013      	strb	r3, [r2, #0]
    73c6:	e7e2      	b.n	738e <system_clock_source_enable+0x22>
    73c8:	40000800 	.word	0x40000800
    73cc:	00007155 	.word	0x00007155
    73d0:	40000844 	.word	0x40000844

000073d4 <system_clock_init>:
    73d4:	23c2      	movs	r3, #194	; 0xc2
    73d6:	221e      	movs	r2, #30
    73d8:	b5f0      	push	{r4, r5, r6, r7, lr}
    73da:	4d45      	ldr	r5, [pc, #276]	; (74f0 <system_clock_init+0x11c>)
    73dc:	00db      	lsls	r3, r3, #3
    73de:	4945      	ldr	r1, [pc, #276]	; (74f4 <system_clock_init+0x120>)
    73e0:	60ab      	str	r3, [r5, #8]
    73e2:	684b      	ldr	r3, [r1, #4]
    73e4:	2400      	movs	r4, #0
    73e6:	4393      	bics	r3, r2
    73e8:	001a      	movs	r2, r3
    73ea:	2304      	movs	r3, #4
    73ec:	4313      	orrs	r3, r2
    73ee:	604b      	str	r3, [r1, #4]
    73f0:	2302      	movs	r3, #2
    73f2:	b08f      	sub	sp, #60	; 0x3c
    73f4:	ae09      	add	r6, sp, #36	; 0x24
    73f6:	7033      	strb	r3, [r6, #0]
    73f8:	b2e0      	uxtb	r0, r4
    73fa:	0031      	movs	r1, r6
    73fc:	4b3e      	ldr	r3, [pc, #248]	; (74f8 <system_clock_init+0x124>)
    73fe:	3401      	adds	r4, #1
    7400:	4798      	blx	r3
    7402:	2c25      	cmp	r4, #37	; 0x25
    7404:	d1f8      	bne.n	73f8 <system_clock_init+0x24>
    7406:	2280      	movs	r2, #128	; 0x80
    7408:	a805      	add	r0, sp, #20
    740a:	0212      	lsls	r2, r2, #8
    740c:	2300      	movs	r3, #0
    740e:	6082      	str	r2, [r0, #8]
    7410:	2201      	movs	r2, #1
    7412:	7003      	strb	r3, [r0, #0]
    7414:	7083      	strb	r3, [r0, #2]
    7416:	70c3      	strb	r3, [r0, #3]
    7418:	7102      	strb	r2, [r0, #4]
    741a:	7303      	strb	r3, [r0, #12]
    741c:	7383      	strb	r3, [r0, #14]
    741e:	3202      	adds	r2, #2
    7420:	7343      	strb	r3, [r0, #13]
    7422:	4b36      	ldr	r3, [pc, #216]	; (74fc <system_clock_init+0x128>)
    7424:	7042      	strb	r2, [r0, #1]
    7426:	4798      	blx	r3
    7428:	2005      	movs	r0, #5
    742a:	4c35      	ldr	r4, [pc, #212]	; (7500 <system_clock_init+0x12c>)
    742c:	47a0      	blx	r4
    742e:	2302      	movs	r3, #2
    7430:	68ea      	ldr	r2, [r5, #12]
    7432:	421a      	tst	r2, r3
    7434:	d0fc      	beq.n	7430 <system_clock_init+0x5c>
    7436:	2380      	movs	r3, #128	; 0x80
    7438:	8aaa      	ldrh	r2, [r5, #20]
    743a:	4313      	orrs	r3, r2
    743c:	82ab      	strh	r3, [r5, #20]
    743e:	223f      	movs	r2, #63	; 0x3f
    7440:	2300      	movs	r3, #0
    7442:	8172      	strh	r2, [r6, #10]
    7444:	8073      	strh	r3, [r6, #2]
    7446:	80b3      	strh	r3, [r6, #4]
    7448:	71b3      	strb	r3, [r6, #6]
    744a:	71f3      	strb	r3, [r6, #7]
    744c:	7073      	strb	r3, [r6, #1]
    744e:	3a3b      	subs	r2, #59	; 0x3b
    7450:	4b2c      	ldr	r3, [pc, #176]	; (7504 <system_clock_init+0x130>)
    7452:	7032      	strb	r2, [r6, #0]
    7454:	681b      	ldr	r3, [r3, #0]
    7456:	0e9b      	lsrs	r3, r3, #26
    7458:	2b3f      	cmp	r3, #63	; 0x3f
    745a:	d100      	bne.n	745e <system_clock_init+0x8a>
    745c:	3b20      	subs	r3, #32
    745e:	7233      	strb	r3, [r6, #8]
    7460:	4b29      	ldr	r3, [pc, #164]	; (7508 <system_clock_init+0x134>)
    7462:	2701      	movs	r7, #1
    7464:	8233      	strh	r3, [r6, #16]
    7466:	2307      	movs	r3, #7
    7468:	7333      	strb	r3, [r6, #12]
    746a:	3338      	adds	r3, #56	; 0x38
    746c:	81f3      	strh	r3, [r6, #14]
    746e:	0030      	movs	r0, r6
    7470:	2600      	movs	r6, #0
    7472:	4b26      	ldr	r3, [pc, #152]	; (750c <system_clock_init+0x138>)
    7474:	4798      	blx	r3
    7476:	a801      	add	r0, sp, #4
    7478:	4b25      	ldr	r3, [pc, #148]	; (7510 <system_clock_init+0x13c>)
    747a:	7046      	strb	r6, [r0, #1]
    747c:	7087      	strb	r7, [r0, #2]
    747e:	7006      	strb	r6, [r0, #0]
    7480:	4798      	blx	r3
    7482:	2006      	movs	r0, #6
    7484:	47a0      	blx	r4
    7486:	4b23      	ldr	r3, [pc, #140]	; (7514 <system_clock_init+0x140>)
    7488:	4798      	blx	r3
    748a:	2305      	movs	r3, #5
    748c:	ac02      	add	r4, sp, #8
    748e:	0021      	movs	r1, r4
    7490:	7023      	strb	r3, [r4, #0]
    7492:	0038      	movs	r0, r7
    7494:	4b20      	ldr	r3, [pc, #128]	; (7518 <system_clock_init+0x144>)
    7496:	6067      	str	r7, [r4, #4]
    7498:	7066      	strb	r6, [r4, #1]
    749a:	7226      	strb	r6, [r4, #8]
    749c:	7266      	strb	r6, [r4, #9]
    749e:	4798      	blx	r3
    74a0:	0038      	movs	r0, r7
    74a2:	4b1e      	ldr	r3, [pc, #120]	; (751c <system_clock_init+0x148>)
    74a4:	4798      	blx	r3
    74a6:	0021      	movs	r1, r4
    74a8:	0030      	movs	r0, r6
    74aa:	4b13      	ldr	r3, [pc, #76]	; (74f8 <system_clock_init+0x124>)
    74ac:	7027      	strb	r7, [r4, #0]
    74ae:	4798      	blx	r3
    74b0:	0030      	movs	r0, r6
    74b2:	4b1b      	ldr	r3, [pc, #108]	; (7520 <system_clock_init+0x14c>)
    74b4:	4798      	blx	r3
    74b6:	4b1b      	ldr	r3, [pc, #108]	; (7524 <system_clock_init+0x150>)
    74b8:	4798      	blx	r3
    74ba:	22d0      	movs	r2, #208	; 0xd0
    74bc:	68eb      	ldr	r3, [r5, #12]
    74be:	4013      	ands	r3, r2
    74c0:	2bd0      	cmp	r3, #208	; 0xd0
    74c2:	d1fb      	bne.n	74bc <system_clock_init+0xe8>
    74c4:	2500      	movs	r5, #0
    74c6:	4b18      	ldr	r3, [pc, #96]	; (7528 <system_clock_init+0x154>)
    74c8:	0021      	movs	r1, r4
    74ca:	721d      	strb	r5, [r3, #8]
    74cc:	725d      	strb	r5, [r3, #9]
    74ce:	729d      	strb	r5, [r3, #10]
    74d0:	72dd      	strb	r5, [r3, #11]
    74d2:	2301      	movs	r3, #1
    74d4:	6063      	str	r3, [r4, #4]
    74d6:	3306      	adds	r3, #6
    74d8:	7023      	strb	r3, [r4, #0]
    74da:	0028      	movs	r0, r5
    74dc:	4b0e      	ldr	r3, [pc, #56]	; (7518 <system_clock_init+0x144>)
    74de:	7065      	strb	r5, [r4, #1]
    74e0:	7225      	strb	r5, [r4, #8]
    74e2:	7265      	strb	r5, [r4, #9]
    74e4:	4798      	blx	r3
    74e6:	0028      	movs	r0, r5
    74e8:	4b0c      	ldr	r3, [pc, #48]	; (751c <system_clock_init+0x148>)
    74ea:	4798      	blx	r3
    74ec:	b00f      	add	sp, #60	; 0x3c
    74ee:	bdf0      	pop	{r4, r5, r6, r7, pc}
    74f0:	40000800 	.word	0x40000800
    74f4:	41004000 	.word	0x41004000
    74f8:	0000774d 	.word	0x0000774d
    74fc:	00007255 	.word	0x00007255
    7500:	0000736d 	.word	0x0000736d
    7504:	00806024 	.word	0x00806024
    7508:	000005b9 	.word	0x000005b9
    750c:	000072f1 	.word	0x000072f1
    7510:	00007219 	.word	0x00007219
    7514:	00007539 	.word	0x00007539
    7518:	00007559 	.word	0x00007559
    751c:	000075fd 	.word	0x000075fd
    7520:	000076c5 	.word	0x000076c5
    7524:	00007155 	.word	0x00007155
    7528:	40000400 	.word	0x40000400

0000752c <system_gclk_is_syncing>:
    752c:	4b01      	ldr	r3, [pc, #4]	; (7534 <system_gclk_is_syncing+0x8>)
    752e:	7858      	ldrb	r0, [r3, #1]
    7530:	09c0      	lsrs	r0, r0, #7
    7532:	4770      	bx	lr
    7534:	40000c00 	.word	0x40000c00

00007538 <system_gclk_init>:
    7538:	2308      	movs	r3, #8
    753a:	4a05      	ldr	r2, [pc, #20]	; (7550 <system_gclk_init+0x18>)
    753c:	6991      	ldr	r1, [r2, #24]
    753e:	430b      	orrs	r3, r1
    7540:	6193      	str	r3, [r2, #24]
    7542:	2301      	movs	r3, #1
    7544:	4a03      	ldr	r2, [pc, #12]	; (7554 <system_gclk_init+0x1c>)
    7546:	7013      	strb	r3, [r2, #0]
    7548:	7811      	ldrb	r1, [r2, #0]
    754a:	4219      	tst	r1, r3
    754c:	d1fc      	bne.n	7548 <system_gclk_init+0x10>
    754e:	4770      	bx	lr
    7550:	40000400 	.word	0x40000400
    7554:	40000c00 	.word	0x40000c00

00007558 <system_gclk_gen_set_config>:
    7558:	b5f8      	push	{r3, r4, r5, r6, r7, lr}
    755a:	780c      	ldrb	r4, [r1, #0]
    755c:	784b      	ldrb	r3, [r1, #1]
    755e:	0224      	lsls	r4, r4, #8
    7560:	0006      	movs	r6, r0
    7562:	0005      	movs	r5, r0
    7564:	4304      	orrs	r4, r0
    7566:	2b00      	cmp	r3, #0
    7568:	d002      	beq.n	7570 <system_gclk_gen_set_config+0x18>
    756a:	2380      	movs	r3, #128	; 0x80
    756c:	02db      	lsls	r3, r3, #11
    756e:	431c      	orrs	r4, r3
    7570:	7a4b      	ldrb	r3, [r1, #9]
    7572:	2b00      	cmp	r3, #0
    7574:	d002      	beq.n	757c <system_gclk_gen_set_config+0x24>
    7576:	2380      	movs	r3, #128	; 0x80
    7578:	031b      	lsls	r3, r3, #12
    757a:	431c      	orrs	r4, r3
    757c:	684b      	ldr	r3, [r1, #4]
    757e:	2b01      	cmp	r3, #1
    7580:	d912      	bls.n	75a8 <system_gclk_gen_set_config+0x50>
    7582:	1e5d      	subs	r5, r3, #1
    7584:	401d      	ands	r5, r3
    7586:	2202      	movs	r2, #2
    7588:	2d00      	cmp	r5, #0
    758a:	d006      	beq.n	759a <system_gclk_gen_set_config+0x42>
    758c:	021d      	lsls	r5, r3, #8
    758e:	2380      	movs	r3, #128	; 0x80
    7590:	4335      	orrs	r5, r6
    7592:	029b      	lsls	r3, r3, #10
    7594:	e007      	b.n	75a6 <system_gclk_gen_set_config+0x4e>
    7596:	3501      	adds	r5, #1
    7598:	0052      	lsls	r2, r2, #1
    759a:	429a      	cmp	r2, r3
    759c:	d3fb      	bcc.n	7596 <system_gclk_gen_set_config+0x3e>
    759e:	2380      	movs	r3, #128	; 0x80
    75a0:	022d      	lsls	r5, r5, #8
    75a2:	4335      	orrs	r5, r6
    75a4:	035b      	lsls	r3, r3, #13
    75a6:	431c      	orrs	r4, r3
    75a8:	7a0b      	ldrb	r3, [r1, #8]
    75aa:	2b00      	cmp	r3, #0
    75ac:	d002      	beq.n	75b4 <system_gclk_gen_set_config+0x5c>
    75ae:	2380      	movs	r3, #128	; 0x80
    75b0:	039b      	lsls	r3, r3, #14
    75b2:	431c      	orrs	r4, r3
    75b4:	4f0c      	ldr	r7, [pc, #48]	; (75e8 <system_gclk_gen_set_config+0x90>)
    75b6:	47b8      	blx	r7
    75b8:	2800      	cmp	r0, #0
    75ba:	d1fb      	bne.n	75b4 <system_gclk_gen_set_config+0x5c>
    75bc:	4b0b      	ldr	r3, [pc, #44]	; (75ec <system_gclk_gen_set_config+0x94>)
    75be:	4798      	blx	r3
    75c0:	4b0b      	ldr	r3, [pc, #44]	; (75f0 <system_gclk_gen_set_config+0x98>)
    75c2:	701e      	strb	r6, [r3, #0]
    75c4:	47b8      	blx	r7
    75c6:	2800      	cmp	r0, #0
    75c8:	d1fc      	bne.n	75c4 <system_gclk_gen_set_config+0x6c>
    75ca:	4b0a      	ldr	r3, [pc, #40]	; (75f4 <system_gclk_gen_set_config+0x9c>)
    75cc:	609d      	str	r5, [r3, #8]
    75ce:	001d      	movs	r5, r3
    75d0:	47b8      	blx	r7
    75d2:	2800      	cmp	r0, #0
    75d4:	d1fc      	bne.n	75d0 <system_gclk_gen_set_config+0x78>
    75d6:	2280      	movs	r2, #128	; 0x80
    75d8:	686b      	ldr	r3, [r5, #4]
    75da:	0252      	lsls	r2, r2, #9
    75dc:	4013      	ands	r3, r2
    75de:	431c      	orrs	r4, r3
    75e0:	606c      	str	r4, [r5, #4]
    75e2:	4b05      	ldr	r3, [pc, #20]	; (75f8 <system_gclk_gen_set_config+0xa0>)
    75e4:	4798      	blx	r3
    75e6:	bdf8      	pop	{r3, r4, r5, r6, r7, pc}
    75e8:	0000752d 	.word	0x0000752d
    75ec:	000062c5 	.word	0x000062c5
    75f0:	40000c08 	.word	0x40000c08
    75f4:	40000c00 	.word	0x40000c00
    75f8:	000062f9 	.word	0x000062f9

000075fc <system_gclk_gen_enable>:
    75fc:	b570      	push	{r4, r5, r6, lr}
    75fe:	0005      	movs	r5, r0
    7600:	4c09      	ldr	r4, [pc, #36]	; (7628 <system_gclk_gen_enable+0x2c>)
    7602:	47a0      	blx	r4
    7604:	2800      	cmp	r0, #0
    7606:	d1fb      	bne.n	7600 <system_gclk_gen_enable+0x4>
    7608:	4b08      	ldr	r3, [pc, #32]	; (762c <system_gclk_gen_enable+0x30>)
    760a:	4798      	blx	r3
    760c:	4b08      	ldr	r3, [pc, #32]	; (7630 <system_gclk_gen_enable+0x34>)
    760e:	701d      	strb	r5, [r3, #0]
    7610:	47a0      	blx	r4
    7612:	2800      	cmp	r0, #0
    7614:	d1fc      	bne.n	7610 <system_gclk_gen_enable+0x14>
    7616:	2380      	movs	r3, #128	; 0x80
    7618:	4a06      	ldr	r2, [pc, #24]	; (7634 <system_gclk_gen_enable+0x38>)
    761a:	025b      	lsls	r3, r3, #9
    761c:	6851      	ldr	r1, [r2, #4]
    761e:	430b      	orrs	r3, r1
    7620:	6053      	str	r3, [r2, #4]
    7622:	4b05      	ldr	r3, [pc, #20]	; (7638 <system_gclk_gen_enable+0x3c>)
    7624:	4798      	blx	r3
    7626:	bd70      	pop	{r4, r5, r6, pc}
    7628:	0000752d 	.word	0x0000752d
    762c:	000062c5 	.word	0x000062c5
    7630:	40000c04 	.word	0x40000c04
    7634:	40000c00 	.word	0x40000c00
    7638:	000062f9 	.word	0x000062f9

0000763c <system_gclk_gen_get_hz>:
    763c:	b5f7      	push	{r0, r1, r2, r4, r5, r6, r7, lr}
    763e:	0007      	movs	r7, r0
    7640:	4e18      	ldr	r6, [pc, #96]	; (76a4 <system_gclk_gen_get_hz+0x68>)
    7642:	47b0      	blx	r6
    7644:	2800      	cmp	r0, #0
    7646:	d1fb      	bne.n	7640 <system_gclk_gen_get_hz+0x4>
    7648:	4b17      	ldr	r3, [pc, #92]	; (76a8 <system_gclk_gen_get_hz+0x6c>)
    764a:	4798      	blx	r3
    764c:	4b17      	ldr	r3, [pc, #92]	; (76ac <system_gclk_gen_get_hz+0x70>)
    764e:	701f      	strb	r7, [r3, #0]
    7650:	9301      	str	r3, [sp, #4]
    7652:	47b0      	blx	r6
    7654:	2800      	cmp	r0, #0
    7656:	d1fc      	bne.n	7652 <system_gclk_gen_get_hz+0x16>
    7658:	4d15      	ldr	r5, [pc, #84]	; (76b0 <system_gclk_gen_get_hz+0x74>)
    765a:	4b16      	ldr	r3, [pc, #88]	; (76b4 <system_gclk_gen_get_hz+0x78>)
    765c:	6868      	ldr	r0, [r5, #4]
    765e:	04c0      	lsls	r0, r0, #19
    7660:	0ec0      	lsrs	r0, r0, #27
    7662:	4798      	blx	r3
    7664:	0004      	movs	r4, r0
    7666:	9b01      	ldr	r3, [sp, #4]
    7668:	701f      	strb	r7, [r3, #0]
    766a:	686b      	ldr	r3, [r5, #4]
    766c:	02db      	lsls	r3, r3, #11
    766e:	0fdb      	lsrs	r3, r3, #31
    7670:	9301      	str	r3, [sp, #4]
    7672:	4b11      	ldr	r3, [pc, #68]	; (76b8 <system_gclk_gen_get_hz+0x7c>)
    7674:	701f      	strb	r7, [r3, #0]
    7676:	47b0      	blx	r6
    7678:	2800      	cmp	r0, #0
    767a:	d1fc      	bne.n	7676 <system_gclk_gen_get_hz+0x3a>
    767c:	68ad      	ldr	r5, [r5, #8]
    767e:	4b0f      	ldr	r3, [pc, #60]	; (76bc <system_gclk_gen_get_hz+0x80>)
    7680:	4798      	blx	r3
    7682:	9b01      	ldr	r3, [sp, #4]
    7684:	022d      	lsls	r5, r5, #8
    7686:	0c2d      	lsrs	r5, r5, #16
    7688:	2b00      	cmp	r3, #0
    768a:	d108      	bne.n	769e <system_gclk_gen_get_hz+0x62>
    768c:	2d01      	cmp	r5, #1
    768e:	d904      	bls.n	769a <system_gclk_gen_get_hz+0x5e>
    7690:	0020      	movs	r0, r4
    7692:	0029      	movs	r1, r5
    7694:	4b0a      	ldr	r3, [pc, #40]	; (76c0 <system_gclk_gen_get_hz+0x84>)
    7696:	4798      	blx	r3
    7698:	0004      	movs	r4, r0
    769a:	0020      	movs	r0, r4
    769c:	bdfe      	pop	{r1, r2, r3, r4, r5, r6, r7, pc}
    769e:	3501      	adds	r5, #1
    76a0:	40ec      	lsrs	r4, r5
    76a2:	e7fa      	b.n	769a <system_gclk_gen_get_hz+0x5e>
    76a4:	0000752d 	.word	0x0000752d
    76a8:	000062c5 	.word	0x000062c5
    76ac:	40000c04 	.word	0x40000c04
    76b0:	40000c00 	.word	0x40000c00
    76b4:	0000718d 	.word	0x0000718d
    76b8:	40000c08 	.word	0x40000c08
    76bc:	000062f9 	.word	0x000062f9
    76c0:	00009539 	.word	0x00009539

000076c4 <system_gclk_chan_enable>:
    76c4:	b510      	push	{r4, lr}
    76c6:	0004      	movs	r4, r0
    76c8:	4b06      	ldr	r3, [pc, #24]	; (76e4 <system_gclk_chan_enable+0x20>)
    76ca:	4798      	blx	r3
    76cc:	4b06      	ldr	r3, [pc, #24]	; (76e8 <system_gclk_chan_enable+0x24>)
    76ce:	4a07      	ldr	r2, [pc, #28]	; (76ec <system_gclk_chan_enable+0x28>)
    76d0:	701c      	strb	r4, [r3, #0]
    76d2:	2380      	movs	r3, #128	; 0x80
    76d4:	8851      	ldrh	r1, [r2, #2]
    76d6:	01db      	lsls	r3, r3, #7
    76d8:	430b      	orrs	r3, r1
    76da:	8053      	strh	r3, [r2, #2]
    76dc:	4b04      	ldr	r3, [pc, #16]	; (76f0 <system_gclk_chan_enable+0x2c>)
    76de:	4798      	blx	r3
    76e0:	bd10      	pop	{r4, pc}
    76e2:	46c0      	nop			; (mov r8, r8)
    76e4:	000062c5 	.word	0x000062c5
    76e8:	40000c02 	.word	0x40000c02
    76ec:	40000c00 	.word	0x40000c00
    76f0:	000062f9 	.word	0x000062f9

000076f4 <system_gclk_chan_disable>:
    76f4:	b510      	push	{r4, lr}
    76f6:	0004      	movs	r4, r0
    76f8:	4b0e      	ldr	r3, [pc, #56]	; (7734 <system_gclk_chan_disable+0x40>)
    76fa:	4798      	blx	r3
    76fc:	4b0e      	ldr	r3, [pc, #56]	; (7738 <system_gclk_chan_disable+0x44>)
    76fe:	4a0f      	ldr	r2, [pc, #60]	; (773c <system_gclk_chan_disable+0x48>)
    7700:	701c      	strb	r4, [r3, #0]
    7702:	4b0f      	ldr	r3, [pc, #60]	; (7740 <system_gclk_chan_disable+0x4c>)
    7704:	4c0f      	ldr	r4, [pc, #60]	; (7744 <system_gclk_chan_disable+0x50>)
    7706:	8858      	ldrh	r0, [r3, #2]
    7708:	8859      	ldrh	r1, [r3, #2]
    770a:	0500      	lsls	r0, r0, #20
    770c:	4011      	ands	r1, r2
    770e:	8059      	strh	r1, [r3, #2]
    7710:	8859      	ldrh	r1, [r3, #2]
    7712:	0f00      	lsrs	r0, r0, #28
    7714:	4021      	ands	r1, r4
    7716:	8059      	strh	r1, [r3, #2]
    7718:	0011      	movs	r1, r2
    771a:	2280      	movs	r2, #128	; 0x80
    771c:	01d2      	lsls	r2, r2, #7
    771e:	885c      	ldrh	r4, [r3, #2]
    7720:	4214      	tst	r4, r2
    7722:	d1fc      	bne.n	771e <system_gclk_chan_disable+0x2a>
    7724:	885a      	ldrh	r2, [r3, #2]
    7726:	0200      	lsls	r0, r0, #8
    7728:	400a      	ands	r2, r1
    772a:	4302      	orrs	r2, r0
    772c:	805a      	strh	r2, [r3, #2]
    772e:	4b06      	ldr	r3, [pc, #24]	; (7748 <system_gclk_chan_disable+0x54>)
    7730:	4798      	blx	r3
    7732:	bd10      	pop	{r4, pc}
    7734:	000062c5 	.word	0x000062c5
    7738:	40000c02 	.word	0x40000c02
    773c:	fffff0ff 	.word	0xfffff0ff
    7740:	40000c00 	.word	0x40000c00
    7744:	ffffbfff 	.word	0xffffbfff
    7748:	000062f9 	.word	0x000062f9

0000774c <system_gclk_chan_set_config>:
    774c:	b510      	push	{r4, lr}
    774e:	780c      	ldrb	r4, [r1, #0]
    7750:	4b03      	ldr	r3, [pc, #12]	; (7760 <system_gclk_chan_set_config+0x14>)
    7752:	0224      	lsls	r4, r4, #8
    7754:	4304      	orrs	r4, r0
    7756:	4798      	blx	r3
    7758:	4b02      	ldr	r3, [pc, #8]	; (7764 <system_gclk_chan_set_config+0x18>)
    775a:	b2a4      	uxth	r4, r4
    775c:	805c      	strh	r4, [r3, #2]
    775e:	bd10      	pop	{r4, pc}
    7760:	000076f5 	.word	0x000076f5
    7764:	40000c00 	.word	0x40000c00

00007768 <system_gclk_chan_get_hz>:
    7768:	b510      	push	{r4, lr}
    776a:	0004      	movs	r4, r0
    776c:	4b06      	ldr	r3, [pc, #24]	; (7788 <system_gclk_chan_get_hz+0x20>)
    776e:	4798      	blx	r3
    7770:	4b06      	ldr	r3, [pc, #24]	; (778c <system_gclk_chan_get_hz+0x24>)
    7772:	701c      	strb	r4, [r3, #0]
    7774:	4b06      	ldr	r3, [pc, #24]	; (7790 <system_gclk_chan_get_hz+0x28>)
    7776:	885c      	ldrh	r4, [r3, #2]
    7778:	4b06      	ldr	r3, [pc, #24]	; (7794 <system_gclk_chan_get_hz+0x2c>)
    777a:	0524      	lsls	r4, r4, #20
    777c:	0f24      	lsrs	r4, r4, #28
    777e:	4798      	blx	r3
    7780:	0020      	movs	r0, r4
    7782:	4b05      	ldr	r3, [pc, #20]	; (7798 <system_gclk_chan_get_hz+0x30>)
    7784:	4798      	blx	r3
    7786:	bd10      	pop	{r4, pc}
    7788:	000062c5 	.word	0x000062c5
    778c:	40000c02 	.word	0x40000c02
    7790:	40000c00 	.word	0x40000c00
    7794:	000062f9 	.word	0x000062f9
    7798:	0000763d 	.word	0x0000763d

0000779c <_system_pinmux_config>:
    779c:	78d3      	ldrb	r3, [r2, #3]
    779e:	b530      	push	{r4, r5, lr}
    77a0:	2b00      	cmp	r3, #0
    77a2:	d135      	bne.n	7810 <_system_pinmux_config+0x74>
    77a4:	7814      	ldrb	r4, [r2, #0]
    77a6:	2c80      	cmp	r4, #128	; 0x80
    77a8:	d003      	beq.n	77b2 <_system_pinmux_config+0x16>
    77aa:	2380      	movs	r3, #128	; 0x80
    77ac:	0624      	lsls	r4, r4, #24
    77ae:	025b      	lsls	r3, r3, #9
    77b0:	4323      	orrs	r3, r4
    77b2:	2502      	movs	r5, #2
    77b4:	7854      	ldrb	r4, [r2, #1]
    77b6:	43ac      	bics	r4, r5
    77b8:	d106      	bne.n	77c8 <_system_pinmux_config+0x2c>
    77ba:	7894      	ldrb	r4, [r2, #2]
    77bc:	2c00      	cmp	r4, #0
    77be:	d124      	bne.n	780a <_system_pinmux_config+0x6e>
    77c0:	2480      	movs	r4, #128	; 0x80
    77c2:	02a4      	lsls	r4, r4, #10
    77c4:	4323      	orrs	r3, r4
    77c6:	6041      	str	r1, [r0, #4]
    77c8:	7854      	ldrb	r4, [r2, #1]
    77ca:	3c01      	subs	r4, #1
    77cc:	2c01      	cmp	r4, #1
    77ce:	d801      	bhi.n	77d4 <_system_pinmux_config+0x38>
    77d0:	4c12      	ldr	r4, [pc, #72]	; (781c <_system_pinmux_config+0x80>)
    77d2:	4023      	ands	r3, r4
    77d4:	24a0      	movs	r4, #160	; 0xa0
    77d6:	b28d      	uxth	r5, r1
    77d8:	05e4      	lsls	r4, r4, #23
    77da:	432c      	orrs	r4, r5
    77dc:	431c      	orrs	r4, r3
    77de:	6284      	str	r4, [r0, #40]	; 0x28
    77e0:	24d0      	movs	r4, #208	; 0xd0
    77e2:	0c0d      	lsrs	r5, r1, #16
    77e4:	0624      	lsls	r4, r4, #24
    77e6:	432c      	orrs	r4, r5
    77e8:	431c      	orrs	r4, r3
    77ea:	6284      	str	r4, [r0, #40]	; 0x28
    77ec:	78d4      	ldrb	r4, [r2, #3]
    77ee:	2c00      	cmp	r4, #0
    77f0:	d10a      	bne.n	7808 <_system_pinmux_config+0x6c>
    77f2:	035b      	lsls	r3, r3, #13
    77f4:	d503      	bpl.n	77fe <_system_pinmux_config+0x62>
    77f6:	7893      	ldrb	r3, [r2, #2]
    77f8:	2b01      	cmp	r3, #1
    77fa:	d10c      	bne.n	7816 <_system_pinmux_config+0x7a>
    77fc:	6181      	str	r1, [r0, #24]
    77fe:	7853      	ldrb	r3, [r2, #1]
    7800:	3b01      	subs	r3, #1
    7802:	2b01      	cmp	r3, #1
    7804:	d800      	bhi.n	7808 <_system_pinmux_config+0x6c>
    7806:	6081      	str	r1, [r0, #8]
    7808:	bd30      	pop	{r4, r5, pc}
    780a:	24c0      	movs	r4, #192	; 0xc0
    780c:	02e4      	lsls	r4, r4, #11
    780e:	e7d9      	b.n	77c4 <_system_pinmux_config+0x28>
    7810:	6041      	str	r1, [r0, #4]
    7812:	2300      	movs	r3, #0
    7814:	e7de      	b.n	77d4 <_system_pinmux_config+0x38>
    7816:	6141      	str	r1, [r0, #20]
    7818:	e7f1      	b.n	77fe <_system_pinmux_config+0x62>
    781a:	46c0      	nop			; (mov r8, r8)
    781c:	fffbffff 	.word	0xfffbffff

00007820 <system_pinmux_pin_set_config>:
    7820:	b510      	push	{r4, lr}
    7822:	0003      	movs	r3, r0
    7824:	000a      	movs	r2, r1
    7826:	0944      	lsrs	r4, r0, #5
    7828:	09c1      	lsrs	r1, r0, #7
    782a:	2000      	movs	r0, #0
    782c:	4281      	cmp	r1, r0
    782e:	d102      	bne.n	7836 <system_pinmux_pin_set_config+0x16>
    7830:	4904      	ldr	r1, [pc, #16]	; (7844 <system_pinmux_pin_set_config+0x24>)
    7832:	01e0      	lsls	r0, r4, #7
    7834:	1840      	adds	r0, r0, r1
    7836:	211f      	movs	r1, #31
    7838:	400b      	ands	r3, r1
    783a:	391e      	subs	r1, #30
    783c:	4099      	lsls	r1, r3
    783e:	4b02      	ldr	r3, [pc, #8]	; (7848 <system_pinmux_pin_set_config+0x28>)
    7840:	4798      	blx	r3
    7842:	bd10      	pop	{r4, pc}
    7844:	41004400 	.word	0x41004400
    7848:	0000779d 	.word	0x0000779d

0000784c <_system_dummy_init>:
    784c:	4770      	bx	lr
	...

00007850 <system_init>:
    7850:	b510      	push	{r4, lr}
    7852:	4b05      	ldr	r3, [pc, #20]	; (7868 <system_init+0x18>)
    7854:	4798      	blx	r3
    7856:	4b05      	ldr	r3, [pc, #20]	; (786c <system_init+0x1c>)
    7858:	4798      	blx	r3
    785a:	4b05      	ldr	r3, [pc, #20]	; (7870 <system_init+0x20>)
    785c:	4798      	blx	r3
    785e:	4b05      	ldr	r3, [pc, #20]	; (7874 <system_init+0x24>)
    7860:	4798      	blx	r3
    7862:	4b05      	ldr	r3, [pc, #20]	; (7878 <system_init+0x28>)
    7864:	4798      	blx	r3
    7866:	bd10      	pop	{r4, pc}
    7868:	000073d5 	.word	0x000073d5
    786c:	000062c1 	.word	0x000062c1
    7870:	0000784d 	.word	0x0000784d
    7874:	00005149 	.word	0x00005149
    7878:	0000784d 	.word	0x0000784d

0000787c <Dummy_Handler>:
    787c:	e7fe      	b.n	787c <Dummy_Handler>
	...

00007880 <Reset_Handler>:
    7880:	4821      	ldr	r0, [pc, #132]	; (7908 <Reset_Handler+0x88>)
    7882:	4922      	ldr	r1, [pc, #136]	; (790c <Reset_Handler+0x8c>)
    7884:	b570      	push	{r4, r5, r6, lr}
    7886:	4288      	cmp	r0, r1
    7888:	d004      	beq.n	7894 <Reset_Handler+0x14>
    788a:	2300      	movs	r3, #0
    788c:	4c20      	ldr	r4, [pc, #128]	; (7910 <Reset_Handler+0x90>)
    788e:	18ca      	adds	r2, r1, r3
    7890:	42a2      	cmp	r2, r4
    7892:	d332      	bcc.n	78fa <Reset_Handler+0x7a>
    7894:	2100      	movs	r1, #0
    7896:	4b1f      	ldr	r3, [pc, #124]	; (7914 <Reset_Handler+0x94>)
    7898:	4a1f      	ldr	r2, [pc, #124]	; (7918 <Reset_Handler+0x98>)
    789a:	4293      	cmp	r3, r2
    789c:	d331      	bcc.n	7902 <Reset_Handler+0x82>
    789e:	21ff      	movs	r1, #255	; 0xff
    78a0:	4b1e      	ldr	r3, [pc, #120]	; (791c <Reset_Handler+0x9c>)
    78a2:	4a1f      	ldr	r2, [pc, #124]	; (7920 <Reset_Handler+0xa0>)
    78a4:	438b      	bics	r3, r1
    78a6:	6093      	str	r3, [r2, #8]
    78a8:	2202      	movs	r2, #2
    78aa:	250c      	movs	r5, #12
    78ac:	2408      	movs	r4, #8
    78ae:	2630      	movs	r6, #48	; 0x30
    78b0:	4b1c      	ldr	r3, [pc, #112]	; (7924 <Reset_Handler+0xa4>)
    78b2:	481d      	ldr	r0, [pc, #116]	; (7928 <Reset_Handler+0xa8>)
    78b4:	625a      	str	r2, [r3, #36]	; 0x24
    78b6:	78c3      	ldrb	r3, [r0, #3]
    78b8:	39fc      	subs	r1, #252	; 0xfc
    78ba:	438b      	bics	r3, r1
    78bc:	4313      	orrs	r3, r2
    78be:	70c3      	strb	r3, [r0, #3]
    78c0:	78c3      	ldrb	r3, [r0, #3]
    78c2:	43ab      	bics	r3, r5
    78c4:	4323      	orrs	r3, r4
    78c6:	70c3      	strb	r3, [r0, #3]
    78c8:	4b18      	ldr	r3, [pc, #96]	; (792c <Reset_Handler+0xac>)
    78ca:	7b98      	ldrb	r0, [r3, #14]
    78cc:	43b0      	bics	r0, r6
    78ce:	0006      	movs	r6, r0
    78d0:	2020      	movs	r0, #32
    78d2:	4330      	orrs	r0, r6
    78d4:	7398      	strb	r0, [r3, #14]
    78d6:	7b98      	ldrb	r0, [r3, #14]
    78d8:	43a8      	bics	r0, r5
    78da:	4304      	orrs	r4, r0
    78dc:	739c      	strb	r4, [r3, #14]
    78de:	7b98      	ldrb	r0, [r3, #14]
    78e0:	4388      	bics	r0, r1
    78e2:	4302      	orrs	r2, r0
    78e4:	739a      	strb	r2, [r3, #14]
    78e6:	2380      	movs	r3, #128	; 0x80
    78e8:	4a11      	ldr	r2, [pc, #68]	; (7930 <Reset_Handler+0xb0>)
    78ea:	6851      	ldr	r1, [r2, #4]
    78ec:	430b      	orrs	r3, r1
    78ee:	6053      	str	r3, [r2, #4]
    78f0:	4b10      	ldr	r3, [pc, #64]	; (7934 <Reset_Handler+0xb4>)
    78f2:	4798      	blx	r3
    78f4:	4b10      	ldr	r3, [pc, #64]	; (7938 <Reset_Handler+0xb8>)
    78f6:	4798      	blx	r3
    78f8:	e7fe      	b.n	78f8 <Reset_Handler+0x78>
    78fa:	58c5      	ldr	r5, [r0, r3]
    78fc:	3304      	adds	r3, #4
    78fe:	6015      	str	r5, [r2, #0]
    7900:	e7c5      	b.n	788e <Reset_Handler+0xe>
    7902:	c302      	stmia	r3!, {r1}
    7904:	e7c9      	b.n	789a <Reset_Handler+0x1a>
    7906:	46c0      	nop			; (mov r8, r8)
    7908:	0000de98 	.word	0x0000de98
    790c:	20000000 	.word	0x20000000
    7910:	200001fc 	.word	0x200001fc
    7914:	200001fc 	.word	0x200001fc
    7918:	20001a5c 	.word	0x20001a5c
    791c:	00002000 	.word	0x00002000
    7920:	e000ed00 	.word	0xe000ed00
    7924:	410070fc 	.word	0x410070fc
    7928:	41005000 	.word	0x41005000
    792c:	41004800 	.word	0x41004800
    7930:	41004000 	.word	0x41004000
    7934:	0000b165 	.word	0x0000b165
    7938:	000094d9 	.word	0x000094d9

0000793c <_read>:
    793c:	b570      	push	{r4, r5, r6, lr}
    793e:	000e      	movs	r6, r1
    7940:	0014      	movs	r4, r2
    7942:	0015      	movs	r5, r2
    7944:	2800      	cmp	r0, #0
    7946:	d008      	beq.n	795a <_read+0x1e>
    7948:	2001      	movs	r0, #1
    794a:	4240      	negs	r0, r0
    794c:	e00c      	b.n	7968 <_read+0x2c>
    794e:	4b07      	ldr	r3, [pc, #28]	; (796c <_read+0x30>)
    7950:	3d01      	subs	r5, #1
    7952:	6818      	ldr	r0, [r3, #0]
    7954:	4b06      	ldr	r3, [pc, #24]	; (7970 <_read+0x34>)
    7956:	681b      	ldr	r3, [r3, #0]
    7958:	4798      	blx	r3
    795a:	1b61      	subs	r1, r4, r5
    795c:	1871      	adds	r1, r6, r1
    795e:	2d00      	cmp	r5, #0
    7960:	dcf5      	bgt.n	794e <_read+0x12>
    7962:	43e0      	mvns	r0, r4
    7964:	17c0      	asrs	r0, r0, #31
    7966:	4020      	ands	r0, r4
    7968:	bd70      	pop	{r4, r5, r6, pc}
    796a:	46c0      	nop			; (mov r8, r8)
    796c:	200018c4 	.word	0x200018c4
    7970:	200018bc 	.word	0x200018bc

00007974 <_write>:
    7974:	3801      	subs	r0, #1
    7976:	b570      	push	{r4, r5, r6, lr}
    7978:	000e      	movs	r6, r1
    797a:	2802      	cmp	r0, #2
    797c:	d80d      	bhi.n	799a <_write+0x26>
    797e:	000c      	movs	r4, r1
    7980:	188d      	adds	r5, r1, r2
    7982:	1ba0      	subs	r0, r4, r6
    7984:	42ac      	cmp	r4, r5
    7986:	d00a      	beq.n	799e <_write+0x2a>
    7988:	4b05      	ldr	r3, [pc, #20]	; (79a0 <_write+0x2c>)
    798a:	7821      	ldrb	r1, [r4, #0]
    798c:	6818      	ldr	r0, [r3, #0]
    798e:	4b05      	ldr	r3, [pc, #20]	; (79a4 <_write+0x30>)
    7990:	3401      	adds	r4, #1
    7992:	681b      	ldr	r3, [r3, #0]
    7994:	4798      	blx	r3
    7996:	2800      	cmp	r0, #0
    7998:	daf3      	bge.n	7982 <_write+0xe>
    799a:	2001      	movs	r0, #1
    799c:	4240      	negs	r0, r0
    799e:	bd70      	pop	{r4, r5, r6, pc}
    79a0:	200018c4 	.word	0x200018c4
    79a4:	200018c0 	.word	0x200018c0

000079a8 <_sbrk>:
    79a8:	4b05      	ldr	r3, [pc, #20]	; (79c0 <_sbrk+0x18>)
    79aa:	0002      	movs	r2, r0
    79ac:	6819      	ldr	r1, [r3, #0]
    79ae:	2900      	cmp	r1, #0
    79b0:	d101      	bne.n	79b6 <_sbrk+0xe>
    79b2:	4904      	ldr	r1, [pc, #16]	; (79c4 <_sbrk+0x1c>)
    79b4:	6019      	str	r1, [r3, #0]
    79b6:	6818      	ldr	r0, [r3, #0]
    79b8:	1882      	adds	r2, r0, r2
    79ba:	601a      	str	r2, [r3, #0]
    79bc:	4770      	bx	lr
    79be:	46c0      	nop			; (mov r8, r8)
    79c0:	20000280 	.word	0x20000280
    79c4:	20003a60 	.word	0x20003a60

000079c8 <_close>:
    79c8:	2001      	movs	r0, #1
    79ca:	4240      	negs	r0, r0
    79cc:	4770      	bx	lr

000079ce <_fstat>:
    79ce:	2380      	movs	r3, #128	; 0x80
    79d0:	019b      	lsls	r3, r3, #6
    79d2:	2000      	movs	r0, #0
    79d4:	604b      	str	r3, [r1, #4]
    79d6:	4770      	bx	lr

000079d8 <_isatty>:
    79d8:	2001      	movs	r0, #1
    79da:	4770      	bx	lr

000079dc <_lseek>:
    79dc:	2000      	movs	r0, #0
    79de:	4770      	bx	lr

000079e0 <_hwerr_to_stderr>:
    79e0:	0003      	movs	r3, r0
    79e2:	300e      	adds	r0, #14
    79e4:	b500      	push	{lr}
    79e6:	280e      	cmp	r0, #14
    79e8:	d81a      	bhi.n	7a20 <_hwerr_to_stderr+0x40>
    79ea:	f001 fd9b 	bl	9524 <__gnu_thumb1_case_uqi>
    79ee:	1517      	.short	0x1517
    79f0:	1c191113 	.word	0x1c191113
    79f4:	190d0f19 	.word	0x190d0f19
    79f8:	080b0f0f 	.word	0x080b0f0f
    79fc:	1c          	.byte	0x1c
    79fd:	00          	.byte	0x00
    79fe:	2002      	movs	r0, #2
    7a00:	4240      	negs	r0, r0
    7a02:	bd00      	pop	{pc}
    7a04:	2070      	movs	r0, #112	; 0x70
    7a06:	e7fb      	b.n	7a00 <_hwerr_to_stderr+0x20>
    7a08:	2016      	movs	r0, #22
    7a0a:	e7f9      	b.n	7a00 <_hwerr_to_stderr+0x20>
    7a0c:	200c      	movs	r0, #12
    7a0e:	e7f7      	b.n	7a00 <_hwerr_to_stderr+0x20>
    7a10:	2079      	movs	r0, #121	; 0x79
    7a12:	e7f5      	b.n	7a00 <_hwerr_to_stderr+0x20>
    7a14:	2068      	movs	r0, #104	; 0x68
    7a16:	e7f3      	b.n	7a00 <_hwerr_to_stderr+0x20>
    7a18:	200b      	movs	r0, #11
    7a1a:	e7f1      	b.n	7a00 <_hwerr_to_stderr+0x20>
    7a1c:	2010      	movs	r0, #16
    7a1e:	e7ef      	b.n	7a00 <_hwerr_to_stderr+0x20>
    7a20:	2000      	movs	r0, #0
    7a22:	2b00      	cmp	r3, #0
    7a24:	daed      	bge.n	7a02 <_hwerr_to_stderr+0x22>
    7a26:	2005      	movs	r0, #5
    7a28:	e7ea      	b.n	7a00 <_hwerr_to_stderr+0x20>
	...

00007a2c <_http_client_send_wait>:
    7a2c:	b5f8      	push	{r3, r4, r5, r6, r7, lr}
    7a2e:	0004      	movs	r4, r0
    7a30:	2601      	movs	r6, #1
    7a32:	0005      	movs	r5, r0
    7a34:	2000      	movs	r0, #0
    7a36:	3441      	adds	r4, #65	; 0x41
    7a38:	7823      	ldrb	r3, [r4, #0]
    7a3a:	b292      	uxth	r2, r2
    7a3c:	4333      	orrs	r3, r6
    7a3e:	7023      	strb	r3, [r4, #0]
    7a40:	5628      	ldrsb	r0, [r5, r0]
    7a42:	2300      	movs	r3, #0
    7a44:	4f0a      	ldr	r7, [pc, #40]	; (7a70 <_http_client_send_wait+0x44>)
    7a46:	47b8      	blx	r7
    7a48:	2800      	cmp	r0, #0
    7a4a:	db0d      	blt.n	7a68 <_http_client_send_wait+0x3c>
    7a4c:	7820      	ldrb	r0, [r4, #0]
    7a4e:	4030      	ands	r0, r6
    7a50:	d003      	beq.n	7a5a <_http_client_send_wait+0x2e>
    7a52:	6eeb      	ldr	r3, [r5, #108]	; 0x6c
    7a54:	2000      	movs	r0, #0
    7a56:	2b02      	cmp	r3, #2
    7a58:	d800      	bhi.n	7a5c <_http_client_send_wait+0x30>
    7a5a:	bdf8      	pop	{r3, r4, r5, r6, r7, pc}
    7a5c:	4b05      	ldr	r3, [pc, #20]	; (7a74 <_http_client_send_wait+0x48>)
    7a5e:	4798      	blx	r3
    7a60:	6d68      	ldr	r0, [r5, #84]	; 0x54
    7a62:	4b05      	ldr	r3, [pc, #20]	; (7a78 <_http_client_send_wait+0x4c>)
    7a64:	4798      	blx	r3
    7a66:	e7f1      	b.n	7a4c <_http_client_send_wait+0x20>
    7a68:	7823      	ldrb	r3, [r4, #0]
    7a6a:	43b3      	bics	r3, r6
    7a6c:	7023      	strb	r3, [r4, #0]
    7a6e:	e7f4      	b.n	7a5a <_http_client_send_wait+0x2e>
    7a70:	00004d9d 	.word	0x00004d9d
    7a74:	000034b9 	.word	0x000034b9
    7a78:	000088c1 	.word	0x000088c1

00007a7c <http_client_get_config_defaults>:
    7a7c:	2350      	movs	r3, #80	; 0x50
    7a7e:	8003      	strh	r3, [r0, #0]
    7a80:	2300      	movs	r3, #0
    7a82:	7083      	strb	r3, [r0, #2]
    7a84:	6043      	str	r3, [r0, #4]
    7a86:	60c3      	str	r3, [r0, #12]
    7a88:	3301      	adds	r3, #1
    7a8a:	33ff      	adds	r3, #255	; 0xff
    7a8c:	6103      	str	r3, [r0, #16]
    7a8e:	3bae      	subs	r3, #174	; 0xae
    7a90:	4a02      	ldr	r2, [pc, #8]	; (7a9c <http_client_get_config_defaults+0x20>)
    7a92:	6143      	str	r3, [r0, #20]
    7a94:	4b02      	ldr	r3, [pc, #8]	; (7aa0 <http_client_get_config_defaults+0x24>)
    7a96:	8102      	strh	r2, [r0, #8]
    7a98:	6183      	str	r3, [r0, #24]
    7a9a:	4770      	bx	lr
    7a9c:	00004e20 	.word	0x00004e20
    7aa0:	0000d793 	.word	0x0000d793

00007aa4 <http_client_init>:
    7aa4:	b570      	push	{r4, r5, r6, lr}
    7aa6:	0004      	movs	r4, r0
    7aa8:	000d      	movs	r5, r1
    7aaa:	2800      	cmp	r0, #0
    7aac:	d037      	beq.n	7b1e <http_client_init+0x7a>
    7aae:	2900      	cmp	r1, #0
    7ab0:	d035      	beq.n	7b1e <http_client_init+0x7a>
    7ab2:	690b      	ldr	r3, [r1, #16]
    7ab4:	2b00      	cmp	r3, #0
    7ab6:	d032      	beq.n	7b1e <http_client_init+0x7a>
    7ab8:	684b      	ldr	r3, [r1, #4]
    7aba:	2b00      	cmp	r3, #0
    7abc:	d02f      	beq.n	7b1e <http_client_init+0x7a>
    7abe:	694b      	ldr	r3, [r1, #20]
    7ac0:	2b51      	cmp	r3, #81	; 0x51
    7ac2:	d92c      	bls.n	7b1e <http_client_init+0x7a>
    7ac4:	22e8      	movs	r2, #232	; 0xe8
    7ac6:	2100      	movs	r1, #0
    7ac8:	4b17      	ldr	r3, [pc, #92]	; (7b28 <http_client_init+0x84>)
    7aca:	4798      	blx	r3
    7acc:	0020      	movs	r0, r4
    7ace:	4b17      	ldr	r3, [pc, #92]	; (7b2c <http_client_init+0x88>)
    7ad0:	221c      	movs	r2, #28
    7ad2:	0029      	movs	r1, r5
    7ad4:	3050      	adds	r0, #80	; 0x50
    7ad6:	4798      	blx	r3
    7ad8:	6de3      	ldr	r3, [r4, #92]	; 0x5c
    7ada:	2b00      	cmp	r3, #0
    7adc:	d10b      	bne.n	7af6 <http_client_init+0x52>
    7ade:	6928      	ldr	r0, [r5, #16]
    7ae0:	4b13      	ldr	r3, [pc, #76]	; (7b30 <http_client_init+0x8c>)
    7ae2:	4798      	blx	r3
    7ae4:	65e0      	str	r0, [r4, #92]	; 0x5c
    7ae6:	2800      	cmp	r0, #0
    7ae8:	d01b      	beq.n	7b22 <http_client_init+0x7e>
    7aea:	0022      	movs	r2, r4
    7aec:	2304      	movs	r3, #4
    7aee:	3241      	adds	r2, #65	; 0x41
    7af0:	7811      	ldrb	r1, [r2, #0]
    7af2:	430b      	orrs	r3, r1
    7af4:	7013      	strb	r3, [r2, #0]
    7af6:	892b      	ldrh	r3, [r5, #8]
    7af8:	2b00      	cmp	r3, #0
    7afa:	d104      	bne.n	7b06 <http_client_init+0x62>
    7afc:	2000      	movs	r0, #0
    7afe:	66e0      	str	r0, [r4, #108]	; 0x6c
    7b00:	34d8      	adds	r4, #216	; 0xd8
    7b02:	6020      	str	r0, [r4, #0]
    7b04:	bd70      	pop	{r4, r5, r6, pc}
    7b06:	6868      	ldr	r0, [r5, #4]
    7b08:	2300      	movs	r3, #0
    7b0a:	0022      	movs	r2, r4
    7b0c:	4909      	ldr	r1, [pc, #36]	; (7b34 <http_client_init+0x90>)
    7b0e:	4d0a      	ldr	r5, [pc, #40]	; (7b38 <http_client_init+0x94>)
    7b10:	47a8      	blx	r5
    7b12:	64a0      	str	r0, [r4, #72]	; 0x48
    7b14:	2800      	cmp	r0, #0
    7b16:	daf1      	bge.n	7afc <http_client_init+0x58>
    7b18:	201c      	movs	r0, #28
    7b1a:	4240      	negs	r0, r0
    7b1c:	e7f2      	b.n	7b04 <http_client_init+0x60>
    7b1e:	2016      	movs	r0, #22
    7b20:	e7fb      	b.n	7b1a <http_client_init+0x76>
    7b22:	200c      	movs	r0, #12
    7b24:	e7f9      	b.n	7b1a <http_client_init+0x76>
    7b26:	46c0      	nop			; (mov r8, r8)
    7b28:	0000b20b 	.word	0x0000b20b
    7b2c:	0000b1d5 	.word	0x0000b1d5
    7b30:	0000b1ad 	.word	0x0000b1ad
    7b34:	00007c49 	.word	0x00007c49
    7b38:	0000884d 	.word	0x0000884d

00007b3c <http_client_register_callback>:
    7b3c:	2800      	cmp	r0, #0
    7b3e:	d002      	beq.n	7b46 <http_client_register_callback+0xa>
    7b40:	64c1      	str	r1, [r0, #76]	; 0x4c
    7b42:	2000      	movs	r0, #0
    7b44:	4770      	bx	lr
    7b46:	2016      	movs	r0, #22
    7b48:	4240      	negs	r0, r0
    7b4a:	e7fb      	b.n	7b44 <http_client_register_callback+0x8>

00007b4c <_http_client_clear_conn>:
    7b4c:	0003      	movs	r3, r0
    7b4e:	b5f0      	push	{r4, r5, r6, r7, lr}
    7b50:	33c0      	adds	r3, #192	; 0xc0
    7b52:	681b      	ldr	r3, [r3, #0]
    7b54:	b087      	sub	sp, #28
    7b56:	0004      	movs	r4, r0
    7b58:	9101      	str	r1, [sp, #4]
    7b5a:	2b00      	cmp	r3, #0
    7b5c:	d003      	beq.n	7b66 <_http_client_clear_conn+0x1a>
    7b5e:	0002      	movs	r2, r0
    7b60:	32c4      	adds	r2, #196	; 0xc4
    7b62:	6810      	ldr	r0, [r2, #0]
    7b64:	4798      	blx	r3
    7b66:	0020      	movs	r0, r4
    7b68:	2218      	movs	r2, #24
    7b6a:	2100      	movs	r1, #0
    7b6c:	30b0      	adds	r0, #176	; 0xb0
    7b6e:	4f16      	ldr	r7, [pc, #88]	; (7bc8 <_http_client_clear_conn+0x7c>)
    7b70:	47b8      	blx	r7
    7b72:	6ee3      	ldr	r3, [r4, #108]	; 0x6c
    7b74:	2b00      	cmp	r3, #0
    7b76:	d003      	beq.n	7b80 <_http_client_clear_conn+0x34>
    7b78:	2000      	movs	r0, #0
    7b7a:	4b14      	ldr	r3, [pc, #80]	; (7bcc <_http_client_clear_conn+0x80>)
    7b7c:	5620      	ldrsb	r0, [r4, r0]
    7b7e:	4798      	blx	r3
    7b80:	2300      	movs	r3, #0
    7b82:	2500      	movs	r5, #0
    7b84:	56e3      	ldrsb	r3, [r4, r3]
    7b86:	4a12      	ldr	r2, [pc, #72]	; (7bd0 <_http_client_clear_conn+0x84>)
    7b88:	009b      	lsls	r3, r3, #2
    7b8a:	509d      	str	r5, [r3, r2]
    7b8c:	0026      	movs	r6, r4
    7b8e:	226c      	movs	r2, #108	; 0x6c
    7b90:	0029      	movs	r1, r5
    7b92:	18a0      	adds	r0, r4, r2
    7b94:	36d8      	adds	r6, #216	; 0xd8
    7b96:	47b8      	blx	r7
    7b98:	2210      	movs	r2, #16
    7b9a:	0029      	movs	r1, r5
    7b9c:	0030      	movs	r0, r6
    7b9e:	47b8      	blx	r7
    7ba0:	0022      	movs	r2, r4
    7ba2:	21fc      	movs	r1, #252	; 0xfc
    7ba4:	66e5      	str	r5, [r4, #108]	; 0x6c
    7ba6:	3241      	adds	r2, #65	; 0x41
    7ba8:	6035      	str	r5, [r6, #0]
    7baa:	7813      	ldrb	r3, [r2, #0]
    7bac:	400b      	ands	r3, r1
    7bae:	7013      	strb	r3, [r2, #0]
    7bb0:	9b01      	ldr	r3, [sp, #4]
    7bb2:	9303      	str	r3, [sp, #12]
    7bb4:	6ce3      	ldr	r3, [r4, #76]	; 0x4c
    7bb6:	42ab      	cmp	r3, r5
    7bb8:	d003      	beq.n	7bc2 <_http_client_clear_conn+0x76>
    7bba:	aa03      	add	r2, sp, #12
    7bbc:	39f8      	subs	r1, #248	; 0xf8
    7bbe:	0020      	movs	r0, r4
    7bc0:	4798      	blx	r3
    7bc2:	b007      	add	sp, #28
    7bc4:	bdf0      	pop	{r4, r5, r6, r7, pc}
    7bc6:	46c0      	nop			; (mov r8, r8)
    7bc8:	0000b20b 	.word	0x0000b20b
    7bcc:	00004e85 	.word	0x00004e85
    7bd0:	20000284 	.word	0x20000284

00007bd4 <http_client_socket_resolve_handler>:
    7bd4:	b5f0      	push	{r4, r5, r6, r7, lr}
    7bd6:	0007      	movs	r7, r0
    7bd8:	000e      	movs	r6, r1
    7bda:	2500      	movs	r5, #0
    7bdc:	b085      	sub	sp, #20
    7bde:	4b16      	ldr	r3, [pc, #88]	; (7c38 <http_client_socket_resolve_handler+0x64>)
    7be0:	58ec      	ldr	r4, [r5, r3]
    7be2:	2c00      	cmp	r4, #0
    7be4:	d024      	beq.n	7c30 <http_client_socket_resolve_handler+0x5c>
    7be6:	1c61      	adds	r1, r4, #1
    7be8:	0038      	movs	r0, r7
    7bea:	4b14      	ldr	r3, [pc, #80]	; (7c3c <http_client_socket_resolve_handler+0x68>)
    7bec:	4798      	blx	r3
    7bee:	2800      	cmp	r0, #0
    7bf0:	d11e      	bne.n	7c30 <http_client_socket_resolve_handler+0x5c>
    7bf2:	6ee3      	ldr	r3, [r4, #108]	; 0x6c
    7bf4:	2b01      	cmp	r3, #1
    7bf6:	d11b      	bne.n	7c30 <http_client_socket_resolve_handler+0x5c>
    7bf8:	2e00      	cmp	r6, #0
    7bfa:	d106      	bne.n	7c0a <http_client_socket_resolve_handler+0x36>
    7bfc:	2176      	movs	r1, #118	; 0x76
    7bfe:	0020      	movs	r0, r4
    7c00:	4249      	negs	r1, r1
    7c02:	4b0f      	ldr	r3, [pc, #60]	; (7c40 <http_client_socket_resolve_handler+0x6c>)
    7c04:	4798      	blx	r3
    7c06:	b005      	add	sp, #20
    7c08:	bdf0      	pop	{r4, r5, r6, r7, pc}
    7c0a:	466a      	mov	r2, sp
    7c0c:	2302      	movs	r3, #2
    7c0e:	8013      	strh	r3, [r2, #0]
    7c10:	0023      	movs	r3, r4
    7c12:	3350      	adds	r3, #80	; 0x50
    7c14:	881b      	ldrh	r3, [r3, #0]
    7c16:	2000      	movs	r0, #0
    7c18:	021a      	lsls	r2, r3, #8
    7c1a:	0a1b      	lsrs	r3, r3, #8
    7c1c:	4313      	orrs	r3, r2
    7c1e:	466a      	mov	r2, sp
    7c20:	9601      	str	r6, [sp, #4]
    7c22:	8053      	strh	r3, [r2, #2]
    7c24:	5620      	ldrsb	r0, [r4, r0]
    7c26:	2210      	movs	r2, #16
    7c28:	4669      	mov	r1, sp
    7c2a:	4b06      	ldr	r3, [pc, #24]	; (7c44 <http_client_socket_resolve_handler+0x70>)
    7c2c:	4798      	blx	r3
    7c2e:	e7ea      	b.n	7c06 <http_client_socket_resolve_handler+0x32>
    7c30:	3504      	adds	r5, #4
    7c32:	2d1c      	cmp	r5, #28
    7c34:	d1d3      	bne.n	7bde <http_client_socket_resolve_handler+0xa>
    7c36:	e7e6      	b.n	7c06 <http_client_socket_resolve_handler+0x32>
    7c38:	20000284 	.word	0x20000284
    7c3c:	0000b671 	.word	0x0000b671
    7c40:	00007b4d 	.word	0x00007b4d
    7c44:	00004d25 	.word	0x00004d25

00007c48 <http_client_timer_callback>:
    7c48:	b510      	push	{r4, lr}
    7c4a:	2a00      	cmp	r2, #0
    7c4c:	d004      	beq.n	7c58 <http_client_timer_callback+0x10>
    7c4e:	213e      	movs	r1, #62	; 0x3e
    7c50:	0010      	movs	r0, r2
    7c52:	4249      	negs	r1, r1
    7c54:	4b01      	ldr	r3, [pc, #4]	; (7c5c <http_client_timer_callback+0x14>)
    7c56:	4798      	blx	r3
    7c58:	bd10      	pop	{r4, pc}
    7c5a:	46c0      	nop			; (mov r8, r8)
    7c5c:	00007b4d 	.word	0x00007b4d

00007c60 <_http_client_request>:
    7c60:	b5f0      	push	{r4, r5, r6, r7, lr}
    7c62:	b097      	sub	sp, #92	; 0x5c
    7c64:	466b      	mov	r3, sp
    7c66:	af02      	add	r7, sp, #8
    7c68:	2210      	movs	r2, #16
    7c6a:	607b      	str	r3, [r7, #4]
    7c6c:	231c      	movs	r3, #28
    7c6e:	0004      	movs	r4, r0
    7c70:	18b8      	adds	r0, r7, r2
    7c72:	49cf      	ldr	r1, [pc, #828]	; (7fb0 <_http_client_request+0x350>)
    7c74:	18c0      	adds	r0, r0, r3
    7c76:	4bcf      	ldr	r3, [pc, #828]	; (7fb4 <_http_client_request+0x354>)
    7c78:	4798      	blx	r3
    7c7a:	4669      	mov	r1, sp
    7c7c:	6e62      	ldr	r2, [r4, #100]	; 0x64
    7c7e:	1dd3      	adds	r3, r2, #7
    7c80:	08db      	lsrs	r3, r3, #3
    7c82:	00db      	lsls	r3, r3, #3
    7c84:	1acb      	subs	r3, r1, r3
    7c86:	469d      	mov	sp, r3
    7c88:	ab02      	add	r3, sp, #8
    7c8a:	60fb      	str	r3, [r7, #12]
    7c8c:	0023      	movs	r3, r4
    7c8e:	2101      	movs	r1, #1
    7c90:	3341      	adds	r3, #65	; 0x41
    7c92:	781b      	ldrb	r3, [r3, #0]
    7c94:	400b      	ands	r3, r1
    7c96:	d105      	bne.n	7ca4 <_http_client_request+0x44>
    7c98:	6ee1      	ldr	r1, [r4, #108]	; 0x6c
    7c9a:	2903      	cmp	r1, #3
    7c9c:	d007      	beq.n	7cae <_http_client_request+0x4e>
    7c9e:	2904      	cmp	r1, #4
    7ca0:	d100      	bne.n	7ca4 <_http_client_request+0x44>
    7ca2:	e0d0      	b.n	7e46 <_http_client_request+0x1e6>
    7ca4:	687b      	ldr	r3, [r7, #4]
    7ca6:	469d      	mov	sp, r3
    7ca8:	46bd      	mov	sp, r7
    7caa:	b015      	add	sp, #84	; 0x54
    7cac:	bdf0      	pop	{r4, r5, r6, r7, pc}
    7cae:	0021      	movs	r1, r4
    7cb0:	2510      	movs	r5, #16
    7cb2:	202c      	movs	r0, #44	; 0x2c
    7cb4:	31cc      	adds	r1, #204	; 0xcc
    7cb6:	600b      	str	r3, [r1, #0]
    7cb8:	604b      	str	r3, [r1, #4]
    7cba:	197d      	adds	r5, r7, r5
    7cbc:	9400      	str	r4, [sp, #0]
    7cbe:	4bbe      	ldr	r3, [pc, #760]	; (7fb8 <_http_client_request+0x358>)
    7cc0:	1828      	adds	r0, r5, r0
    7cc2:	68f9      	ldr	r1, [r7, #12]
    7cc4:	4dbd      	ldr	r5, [pc, #756]	; (7fbc <_http_client_request+0x35c>)
    7cc6:	47a8      	blx	r5
    7cc8:	0023      	movs	r3, r4
    7cca:	33c8      	adds	r3, #200	; 0xc8
    7ccc:	781a      	ldrb	r2, [r3, #0]
    7cce:	4bbc      	ldr	r3, [pc, #752]	; (7fc0 <_http_client_request+0x360>)
    7cd0:	2a01      	cmp	r2, #1
    7cd2:	d174      	bne.n	7dbe <_http_client_request+0x15e>
    7cd4:	49bb      	ldr	r1, [pc, #748]	; (7fc4 <_http_client_request+0x364>)
    7cd6:	3203      	adds	r2, #3
    7cd8:	2510      	movs	r5, #16
    7cda:	202c      	movs	r0, #44	; 0x2c
    7cdc:	197d      	adds	r5, r7, r5
    7cde:	1828      	adds	r0, r5, r0
    7ce0:	4798      	blx	r3
    7ce2:	0025      	movs	r5, r4
    7ce4:	3570      	adds	r5, #112	; 0x70
    7ce6:	4bb8      	ldr	r3, [pc, #736]	; (7fc8 <_http_client_request+0x368>)
    7ce8:	0028      	movs	r0, r5
    7cea:	4798      	blx	r3
    7cec:	0002      	movs	r2, r0
    7cee:	2010      	movs	r0, #16
    7cf0:	232c      	movs	r3, #44	; 0x2c
    7cf2:	1838      	adds	r0, r7, r0
    7cf4:	0029      	movs	r1, r5
    7cf6:	18c0      	adds	r0, r0, r3
    7cf8:	4db1      	ldr	r5, [pc, #708]	; (7fc0 <_http_client_request+0x360>)
    7cfa:	47a8      	blx	r5
    7cfc:	2010      	movs	r0, #16
    7cfe:	232c      	movs	r3, #44	; 0x2c
    7d00:	1838      	adds	r0, r7, r0
    7d02:	18c0      	adds	r0, r0, r3
    7d04:	220b      	movs	r2, #11
    7d06:	49b1      	ldr	r1, [pc, #708]	; (7fcc <_http_client_request+0x36c>)
    7d08:	47a8      	blx	r5
    7d0a:	2010      	movs	r0, #16
    7d0c:	232c      	movs	r3, #44	; 0x2c
    7d0e:	1838      	adds	r0, r7, r0
    7d10:	220c      	movs	r2, #12
    7d12:	49af      	ldr	r1, [pc, #700]	; (7fd0 <_http_client_request+0x370>)
    7d14:	18c0      	adds	r0, r0, r3
    7d16:	47a8      	blx	r5
    7d18:	6ea6      	ldr	r6, [r4, #104]	; 0x68
    7d1a:	4bab      	ldr	r3, [pc, #684]	; (7fc8 <_http_client_request+0x368>)
    7d1c:	0030      	movs	r0, r6
    7d1e:	4798      	blx	r3
    7d20:	0002      	movs	r2, r0
    7d22:	2010      	movs	r0, #16
    7d24:	232c      	movs	r3, #44	; 0x2c
    7d26:	1838      	adds	r0, r7, r0
    7d28:	0031      	movs	r1, r6
    7d2a:	18c0      	adds	r0, r0, r3
    7d2c:	47a8      	blx	r5
    7d2e:	2010      	movs	r0, #16
    7d30:	232c      	movs	r3, #44	; 0x2c
    7d32:	1838      	adds	r0, r7, r0
    7d34:	18c0      	adds	r0, r0, r3
    7d36:	2202      	movs	r2, #2
    7d38:	49a6      	ldr	r1, [pc, #664]	; (7fd4 <_http_client_request+0x374>)
    7d3a:	47a8      	blx	r5
    7d3c:	2010      	movs	r0, #16
    7d3e:	232c      	movs	r3, #44	; 0x2c
    7d40:	1838      	adds	r0, r7, r0
    7d42:	2206      	movs	r2, #6
    7d44:	49a4      	ldr	r1, [pc, #656]	; (7fd8 <_http_client_request+0x378>)
    7d46:	18c0      	adds	r0, r0, r3
    7d48:	1c66      	adds	r6, r4, #1
    7d4a:	47a8      	blx	r5
    7d4c:	4b9e      	ldr	r3, [pc, #632]	; (7fc8 <_http_client_request+0x368>)
    7d4e:	0030      	movs	r0, r6
    7d50:	4798      	blx	r3
    7d52:	0002      	movs	r2, r0
    7d54:	2010      	movs	r0, #16
    7d56:	232c      	movs	r3, #44	; 0x2c
    7d58:	1838      	adds	r0, r7, r0
    7d5a:	18c0      	adds	r0, r0, r3
    7d5c:	0031      	movs	r1, r6
    7d5e:	47a8      	blx	r5
    7d60:	2010      	movs	r0, #16
    7d62:	232c      	movs	r3, #44	; 0x2c
    7d64:	1838      	adds	r0, r7, r0
    7d66:	18c0      	adds	r0, r0, r3
    7d68:	2202      	movs	r2, #2
    7d6a:	499a      	ldr	r1, [pc, #616]	; (7fd4 <_http_client_request+0x374>)
    7d6c:	47a8      	blx	r5
    7d6e:	2010      	movs	r0, #16
    7d70:	232c      	movs	r3, #44	; 0x2c
    7d72:	1838      	adds	r0, r7, r0
    7d74:	18c0      	adds	r0, r0, r3
    7d76:	2218      	movs	r2, #24
    7d78:	4998      	ldr	r1, [pc, #608]	; (7fdc <_http_client_request+0x37c>)
    7d7a:	47a8      	blx	r5
    7d7c:	2010      	movs	r0, #16
    7d7e:	232c      	movs	r3, #44	; 0x2c
    7d80:	1838      	adds	r0, r7, r0
    7d82:	18c0      	adds	r0, r0, r3
    7d84:	2213      	movs	r2, #19
    7d86:	4996      	ldr	r1, [pc, #600]	; (7fe0 <_http_client_request+0x380>)
    7d88:	47a8      	blx	r5
    7d8a:	2010      	movs	r0, #16
    7d8c:	232c      	movs	r3, #44	; 0x2c
    7d8e:	1838      	adds	r0, r7, r0
    7d90:	2217      	movs	r2, #23
    7d92:	18c0      	adds	r0, r0, r3
    7d94:	4993      	ldr	r1, [pc, #588]	; (7fe4 <_http_client_request+0x384>)
    7d96:	47a8      	blx	r5
    7d98:	0023      	movs	r3, r4
    7d9a:	33b0      	adds	r3, #176	; 0xb0
    7d9c:	68da      	ldr	r2, [r3, #12]
    7d9e:	2a00      	cmp	r2, #0
    7da0:	d031      	beq.n	7e06 <_http_client_request+0x1a6>
    7da2:	781e      	ldrb	r6, [r3, #0]
    7da4:	2e00      	cmp	r6, #0
    7da6:	d023      	beq.n	7df0 <_http_client_request+0x190>
    7da8:	2201      	movs	r2, #1
    7daa:	498f      	ldr	r1, [pc, #572]	; (7fe8 <_http_client_request+0x388>)
    7dac:	4252      	negs	r2, r2
    7dae:	61da      	str	r2, [r3, #28]
    7db0:	321d      	adds	r2, #29
    7db2:	2010      	movs	r0, #16
    7db4:	232c      	movs	r3, #44	; 0x2c
    7db6:	1838      	adds	r0, r7, r0
    7db8:	18c0      	adds	r0, r0, r3
    7dba:	47a8      	blx	r5
    7dbc:	e023      	b.n	7e06 <_http_client_request+0x1a6>
    7dbe:	2a02      	cmp	r2, #2
    7dc0:	d102      	bne.n	7dc8 <_http_client_request+0x168>
    7dc2:	3203      	adds	r2, #3
    7dc4:	4989      	ldr	r1, [pc, #548]	; (7fec <_http_client_request+0x38c>)
    7dc6:	e787      	b.n	7cd8 <_http_client_request+0x78>
    7dc8:	2a03      	cmp	r2, #3
    7dca:	d102      	bne.n	7dd2 <_http_client_request+0x172>
    7dcc:	3204      	adds	r2, #4
    7dce:	4988      	ldr	r1, [pc, #544]	; (7ff0 <_http_client_request+0x390>)
    7dd0:	e782      	b.n	7cd8 <_http_client_request+0x78>
    7dd2:	4988      	ldr	r1, [pc, #544]	; (7ff4 <_http_client_request+0x394>)
    7dd4:	2a04      	cmp	r2, #4
    7dd6:	d100      	bne.n	7dda <_http_client_request+0x17a>
    7dd8:	e77e      	b.n	7cd8 <_http_client_request+0x78>
    7dda:	2a05      	cmp	r2, #5
    7ddc:	d102      	bne.n	7de4 <_http_client_request+0x184>
    7dde:	3203      	adds	r2, #3
    7de0:	4985      	ldr	r1, [pc, #532]	; (7ff8 <_http_client_request+0x398>)
    7de2:	e779      	b.n	7cd8 <_http_client_request+0x78>
    7de4:	2a06      	cmp	r2, #6
    7de6:	d000      	beq.n	7dea <_http_client_request+0x18a>
    7de8:	e77b      	b.n	7ce2 <_http_client_request+0x82>
    7dea:	3a01      	subs	r2, #1
    7dec:	4983      	ldr	r1, [pc, #524]	; (7ffc <_http_client_request+0x39c>)
    7dee:	e773      	b.n	7cd8 <_http_client_request+0x78>
    7df0:	689a      	ldr	r2, [r3, #8]
    7df2:	2a00      	cmp	r2, #0
    7df4:	d007      	beq.n	7e06 <_http_client_request+0x1a6>
    7df6:	6958      	ldr	r0, [r3, #20]
    7df8:	4790      	blx	r2
    7dfa:	0023      	movs	r3, r4
    7dfc:	33cc      	adds	r3, #204	; 0xcc
    7dfe:	1e02      	subs	r2, r0, #0
    7e00:	6018      	str	r0, [r3, #0]
    7e02:	da64      	bge.n	7ece <_http_client_request+0x26e>
    7e04:	601e      	str	r6, [r3, #0]
    7e06:	0023      	movs	r3, r4
    7e08:	33d4      	adds	r3, #212	; 0xd4
    7e0a:	681d      	ldr	r5, [r3, #0]
    7e0c:	2d00      	cmp	r5, #0
    7e0e:	d00a      	beq.n	7e26 <_http_client_request+0x1c6>
    7e10:	4b6d      	ldr	r3, [pc, #436]	; (7fc8 <_http_client_request+0x368>)
    7e12:	0028      	movs	r0, r5
    7e14:	4798      	blx	r3
    7e16:	0002      	movs	r2, r0
    7e18:	2010      	movs	r0, #16
    7e1a:	232c      	movs	r3, #44	; 0x2c
    7e1c:	1838      	adds	r0, r7, r0
    7e1e:	18c0      	adds	r0, r0, r3
    7e20:	0029      	movs	r1, r5
    7e22:	4b67      	ldr	r3, [pc, #412]	; (7fc0 <_http_client_request+0x360>)
    7e24:	4798      	blx	r3
    7e26:	2010      	movs	r0, #16
    7e28:	232c      	movs	r3, #44	; 0x2c
    7e2a:	1838      	adds	r0, r7, r0
    7e2c:	18c0      	adds	r0, r0, r3
    7e2e:	2202      	movs	r2, #2
    7e30:	4968      	ldr	r1, [pc, #416]	; (7fd4 <_http_client_request+0x374>)
    7e32:	4b63      	ldr	r3, [pc, #396]	; (7fc0 <_http_client_request+0x360>)
    7e34:	4798      	blx	r3
    7e36:	2210      	movs	r2, #16
    7e38:	232c      	movs	r3, #44	; 0x2c
    7e3a:	18ba      	adds	r2, r7, r2
    7e3c:	18d0      	adds	r0, r2, r3
    7e3e:	4b70      	ldr	r3, [pc, #448]	; (8000 <_http_client_request+0x3a0>)
    7e40:	4798      	blx	r3
    7e42:	2304      	movs	r3, #4
    7e44:	66e3      	str	r3, [r4, #108]	; 0x6c
    7e46:	0025      	movs	r5, r4
    7e48:	35cc      	adds	r5, #204	; 0xcc
    7e4a:	682a      	ldr	r2, [r5, #0]
    7e4c:	60bd      	str	r5, [r7, #8]
    7e4e:	2a00      	cmp	r2, #0
    7e50:	db00      	blt.n	7e54 <_http_client_request+0x1f4>
    7e52:	e084      	b.n	7f5e <_http_client_request+0x2fe>
    7e54:	0020      	movs	r0, r4
    7e56:	30b0      	adds	r0, #176	; 0xb0
    7e58:	68c5      	ldr	r5, [r0, #12]
    7e5a:	2d00      	cmp	r5, #0
    7e5c:	d072      	beq.n	7f44 <_http_client_request+0x2e4>
    7e5e:	0026      	movs	r6, r4
    7e60:	6e63      	ldr	r3, [r4, #100]	; 0x64
    7e62:	36d0      	adds	r6, #208	; 0xd0
    7e64:	1fda      	subs	r2, r3, #7
    7e66:	68fb      	ldr	r3, [r7, #12]
    7e68:	6940      	ldr	r0, [r0, #20]
    7e6a:	1d59      	adds	r1, r3, #5
    7e6c:	6833      	ldr	r3, [r6, #0]
    7e6e:	60be      	str	r6, [r7, #8]
    7e70:	47a8      	blx	r5
    7e72:	43c3      	mvns	r3, r0
    7e74:	0005      	movs	r5, r0
    7e76:	220a      	movs	r2, #10
    7e78:	210d      	movs	r1, #13
    7e7a:	17db      	asrs	r3, r3, #31
    7e7c:	401d      	ands	r5, r3
    7e7e:	68fb      	ldr	r3, [r7, #12]
    7e80:	711a      	strb	r2, [r3, #4]
    7e82:	68fb      	ldr	r3, [r7, #12]
    7e84:	70d9      	strb	r1, [r3, #3]
    7e86:	68fb      	ldr	r3, [r7, #12]
    7e88:	68f8      	ldr	r0, [r7, #12]
    7e8a:	195b      	adds	r3, r3, r5
    7e8c:	7159      	strb	r1, [r3, #5]
    7e8e:	719a      	strb	r2, [r3, #6]
    7e90:	231c      	movs	r3, #28
    7e92:	3206      	adds	r2, #6
    7e94:	18ba      	adds	r2, r7, r2
    7e96:	18d2      	adds	r2, r2, r3
    7e98:	002b      	movs	r3, r5
    7e9a:	3102      	adds	r1, #2
    7e9c:	400b      	ands	r3, r1
    7e9e:	5cd3      	ldrb	r3, [r2, r3]
    7ea0:	7083      	strb	r3, [r0, #2]
    7ea2:	428d      	cmp	r5, r1
    7ea4:	dc2d      	bgt.n	7f02 <_http_client_request+0x2a2>
    7ea6:	1c81      	adds	r1, r0, #2
    7ea8:	2000      	movs	r0, #0
    7eaa:	68fb      	ldr	r3, [r7, #12]
    7eac:	1cca      	adds	r2, r1, #3
    7eae:	1ad2      	subs	r2, r2, r3
    7eb0:	1d2b      	adds	r3, r5, #4
    7eb2:	18d2      	adds	r2, r2, r3
    7eb4:	b292      	uxth	r2, r2
    7eb6:	5620      	ldrsb	r0, [r4, r0]
    7eb8:	2300      	movs	r3, #0
    7eba:	4e52      	ldr	r6, [pc, #328]	; (8004 <_http_client_request+0x3a4>)
    7ebc:	47b0      	blx	r6
    7ebe:	2800      	cmp	r0, #0
    7ec0:	da2f      	bge.n	7f22 <_http_client_request+0x2c2>
    7ec2:	2105      	movs	r1, #5
    7ec4:	0020      	movs	r0, r4
    7ec6:	4249      	negs	r1, r1
    7ec8:	4b4f      	ldr	r3, [pc, #316]	; (8008 <_http_client_request+0x3a8>)
    7eca:	4798      	blx	r3
    7ecc:	e6ea      	b.n	7ca4 <_http_client_request+0x44>
    7ece:	2314      	movs	r3, #20
    7ed0:	494e      	ldr	r1, [pc, #312]	; (800c <_http_client_request+0x3ac>)
    7ed2:	18f8      	adds	r0, r7, r3
    7ed4:	4b4e      	ldr	r3, [pc, #312]	; (8010 <_http_client_request+0x3b0>)
    7ed6:	4798      	blx	r3
    7ed8:	2210      	movs	r2, #16
    7eda:	232c      	movs	r3, #44	; 0x2c
    7edc:	18b8      	adds	r0, r7, r2
    7ede:	494d      	ldr	r1, [pc, #308]	; (8014 <_http_client_request+0x3b4>)
    7ee0:	18c0      	adds	r0, r0, r3
    7ee2:	47a8      	blx	r5
    7ee4:	2314      	movs	r3, #20
    7ee6:	18f8      	adds	r0, r7, r3
    7ee8:	4b37      	ldr	r3, [pc, #220]	; (7fc8 <_http_client_request+0x368>)
    7eea:	4798      	blx	r3
    7eec:	2314      	movs	r3, #20
    7eee:	0002      	movs	r2, r0
    7ef0:	2010      	movs	r0, #16
    7ef2:	18f9      	adds	r1, r7, r3
    7ef4:	1838      	adds	r0, r7, r0
    7ef6:	3318      	adds	r3, #24
    7ef8:	18c0      	adds	r0, r0, r3
    7efa:	47a8      	blx	r5
    7efc:	2202      	movs	r2, #2
    7efe:	4935      	ldr	r1, [pc, #212]	; (7fd4 <_http_client_request+0x374>)
    7f00:	e757      	b.n	7db2 <_http_client_request+0x152>
    7f02:	112b      	asrs	r3, r5, #4
    7f04:	400b      	ands	r3, r1
    7f06:	5cd3      	ldrb	r3, [r2, r3]
    7f08:	68f8      	ldr	r0, [r7, #12]
    7f0a:	7043      	strb	r3, [r0, #1]
    7f0c:	2dff      	cmp	r5, #255	; 0xff
    7f0e:	dc01      	bgt.n	7f14 <_http_client_request+0x2b4>
    7f10:	1c41      	adds	r1, r0, #1
    7f12:	e7c9      	b.n	7ea8 <_http_client_request+0x248>
    7f14:	122b      	asrs	r3, r5, #8
    7f16:	400b      	ands	r3, r1
    7f18:	5cd3      	ldrb	r3, [r2, r3]
    7f1a:	68fa      	ldr	r2, [r7, #12]
    7f1c:	7013      	strb	r3, [r2, #0]
    7f1e:	0011      	movs	r1, r2
    7f20:	e7c2      	b.n	7ea8 <_http_client_request+0x248>
    7f22:	68bb      	ldr	r3, [r7, #8]
    7f24:	68ba      	ldr	r2, [r7, #8]
    7f26:	681b      	ldr	r3, [r3, #0]
    7f28:	195b      	adds	r3, r3, r5
    7f2a:	6013      	str	r3, [r2, #0]
    7f2c:	2d00      	cmp	r5, #0
    7f2e:	d000      	beq.n	7f32 <_http_client_request+0x2d2>
    7f30:	e6b8      	b.n	7ca4 <_http_client_request+0x44>
    7f32:	0023      	movs	r3, r4
    7f34:	33c0      	adds	r3, #192	; 0xc0
    7f36:	681b      	ldr	r3, [r3, #0]
    7f38:	2b00      	cmp	r3, #0
    7f3a:	d003      	beq.n	7f44 <_http_client_request+0x2e4>
    7f3c:	0022      	movs	r2, r4
    7f3e:	32c4      	adds	r2, #196	; 0xc4
    7f40:	6810      	ldr	r0, [r2, #0]
    7f42:	4798      	blx	r3
    7f44:	2302      	movs	r3, #2
    7f46:	66e3      	str	r3, [r4, #108]	; 0x6c
    7f48:	6ce3      	ldr	r3, [r4, #76]	; 0x4c
    7f4a:	2b00      	cmp	r3, #0
    7f4c:	d100      	bne.n	7f50 <_http_client_request+0x2f0>
    7f4e:	e6a9      	b.n	7ca4 <_http_client_request+0x44>
    7f50:	2210      	movs	r2, #16
    7f52:	18b9      	adds	r1, r7, r2
    7f54:	188a      	adds	r2, r1, r2
    7f56:	0020      	movs	r0, r4
    7f58:	2101      	movs	r1, #1
    7f5a:	4798      	blx	r3
    7f5c:	e6a2      	b.n	7ca4 <_http_client_request+0x44>
    7f5e:	2a00      	cmp	r2, #0
    7f60:	d0f0      	beq.n	7f44 <_http_client_request+0x2e4>
    7f62:	0020      	movs	r0, r4
    7f64:	30b0      	adds	r0, #176	; 0xb0
    7f66:	68c3      	ldr	r3, [r0, #12]
    7f68:	1e1d      	subs	r5, r3, #0
    7f6a:	d0eb      	beq.n	7f44 <_http_client_request+0x2e4>
    7f6c:	0026      	movs	r6, r4
    7f6e:	36d0      	adds	r6, #208	; 0xd0
    7f70:	6833      	ldr	r3, [r6, #0]
    7f72:	429a      	cmp	r2, r3
    7f74:	dddd      	ble.n	7f32 <_http_client_request+0x2d2>
    7f76:	6e62      	ldr	r2, [r4, #100]	; 0x64
    7f78:	68f9      	ldr	r1, [r7, #12]
    7f7a:	6940      	ldr	r0, [r0, #20]
    7f7c:	47a8      	blx	r5
    7f7e:	2800      	cmp	r0, #0
    7f80:	db9f      	blt.n	7ec2 <_http_client_request+0x262>
    7f82:	68bb      	ldr	r3, [r7, #8]
    7f84:	681d      	ldr	r5, [r3, #0]
    7f86:	6833      	ldr	r3, [r6, #0]
    7f88:	1aeb      	subs	r3, r5, r3
    7f8a:	60bb      	str	r3, [r7, #8]
    7f8c:	4283      	cmp	r3, r0
    7f8e:	dd00      	ble.n	7f92 <_http_client_request+0x332>
    7f90:	60b8      	str	r0, [r7, #8]
    7f92:	2000      	movs	r0, #0
    7f94:	893a      	ldrh	r2, [r7, #8]
    7f96:	5620      	ldrsb	r0, [r4, r0]
    7f98:	2300      	movs	r3, #0
    7f9a:	68f9      	ldr	r1, [r7, #12]
    7f9c:	4d19      	ldr	r5, [pc, #100]	; (8004 <_http_client_request+0x3a4>)
    7f9e:	47a8      	blx	r5
    7fa0:	2800      	cmp	r0, #0
    7fa2:	db8e      	blt.n	7ec2 <_http_client_request+0x262>
    7fa4:	6833      	ldr	r3, [r6, #0]
    7fa6:	68ba      	ldr	r2, [r7, #8]
    7fa8:	189d      	adds	r5, r3, r2
    7faa:	6035      	str	r5, [r6, #0]
    7fac:	e67a      	b.n	7ca4 <_http_client_request+0x44>
    7fae:	46c0      	nop			; (mov r8, r8)
    7fb0:	0000d69c 	.word	0x0000d69c
    7fb4:	0000b1d5 	.word	0x0000b1d5
    7fb8:	00007a2d 	.word	0x00007a2d
    7fbc:	00008711 	.word	0x00008711
    7fc0:	0000875d 	.word	0x0000875d
    7fc4:	0000d6d6 	.word	0x0000d6d6
    7fc8:	0000b6cf 	.word	0x0000b6cf
    7fcc:	0000d6fd 	.word	0x0000d6fd
    7fd0:	0000d709 	.word	0x0000d709
    7fd4:	0000daa8 	.word	0x0000daa8
    7fd8:	0000d716 	.word	0x0000d716
    7fdc:	0000d71d 	.word	0x0000d71d
    7fe0:	0000d736 	.word	0x0000d736
    7fe4:	0000d74a 	.word	0x0000d74a
    7fe8:	0000d762 	.word	0x0000d762
    7fec:	0000d6db 	.word	0x0000d6db
    7ff0:	0000d6e1 	.word	0x0000d6e1
    7ff4:	0000d6e9 	.word	0x0000d6e9
    7ff8:	0000d6ee 	.word	0x0000d6ee
    7ffc:	0000d6f7 	.word	0x0000d6f7
    8000:	00008721 	.word	0x00008721
    8004:	00004d9d 	.word	0x00004d9d
    8008:	00007b4d 	.word	0x00007b4d
    800c:	0000d77f 	.word	0x0000d77f
    8010:	0000b62d 	.word	0x0000b62d
    8014:	0000d782 	.word	0x0000d782

00008018 <http_client_send_request>:
    8018:	b5f0      	push	{r4, r5, r6, r7, lr}
    801a:	b08b      	sub	sp, #44	; 0x2c
    801c:	0004      	movs	r4, r0
    801e:	000f      	movs	r7, r1
    8020:	9205      	str	r2, [sp, #20]
    8022:	9302      	str	r3, [sp, #8]
    8024:	2800      	cmp	r0, #0
    8026:	d102      	bne.n	802e <http_client_send_request+0x16>
    8028:	2516      	movs	r5, #22
    802a:	426d      	negs	r5, r5
    802c:	e08b      	b.n	8146 <http_client_send_request+0x12e>
    802e:	6ec3      	ldr	r3, [r0, #108]	; 0x6c
    8030:	2b02      	cmp	r3, #2
    8032:	d900      	bls.n	8036 <http_client_send_request+0x1e>
    8034:	e0e2      	b.n	81fc <http_client_send_request+0x1e4>
    8036:	2207      	movs	r2, #7
    8038:	4973      	ldr	r1, [pc, #460]	; (8208 <http_client_send_request+0x1f0>)
    803a:	0038      	movs	r0, r7
    803c:	4d73      	ldr	r5, [pc, #460]	; (820c <http_client_send_request+0x1f4>)
    803e:	47a8      	blx	r5
    8040:	2307      	movs	r3, #7
    8042:	9301      	str	r3, [sp, #4]
    8044:	2800      	cmp	r0, #0
    8046:	d008      	beq.n	805a <http_client_send_request+0x42>
    8048:	2208      	movs	r2, #8
    804a:	4971      	ldr	r1, [pc, #452]	; (8210 <http_client_send_request+0x1f8>)
    804c:	0038      	movs	r0, r7
    804e:	47a8      	blx	r5
    8050:	0003      	movs	r3, r0
    8052:	4258      	negs	r0, r3
    8054:	4158      	adcs	r0, r3
    8056:	00c3      	lsls	r3, r0, #3
    8058:	9301      	str	r3, [sp, #4]
    805a:	9b01      	ldr	r3, [sp, #4]
    805c:	1c66      	adds	r6, r4, #1
    805e:	18fb      	adds	r3, r7, r3
    8060:	9304      	str	r3, [sp, #16]
    8062:	0030      	movs	r0, r6
    8064:	4b6b      	ldr	r3, [pc, #428]	; (8214 <http_client_send_request+0x1fc>)
    8066:	4798      	blx	r3
    8068:	4b68      	ldr	r3, [pc, #416]	; (820c <http_client_send_request+0x1f4>)
    806a:	0002      	movs	r2, r0
    806c:	9904      	ldr	r1, [sp, #16]
    806e:	0030      	movs	r0, r6
    8070:	4798      	blx	r3
    8072:	2300      	movs	r3, #0
    8074:	0005      	movs	r5, r0
    8076:	9003      	str	r0, [sp, #12]
    8078:	9a01      	ldr	r2, [sp, #4]
    807a:	18d2      	adds	r2, r2, r3
    807c:	18ba      	adds	r2, r7, r2
    807e:	9200      	str	r2, [sp, #0]
    8080:	9a04      	ldr	r2, [sp, #16]
    8082:	5cd2      	ldrb	r2, [r2, r3]
    8084:	2a00      	cmp	r2, #0
    8086:	d11f      	bne.n	80c8 <http_client_send_request+0xb0>
    8088:	2200      	movs	r2, #0
    808a:	18e3      	adds	r3, r4, r3
    808c:	705a      	strb	r2, [r3, #1]
    808e:	7863      	ldrb	r3, [r4, #1]
    8090:	4293      	cmp	r3, r2
    8092:	d0c9      	beq.n	8028 <http_client_send_request+0x10>
    8094:	9800      	ldr	r0, [sp, #0]
    8096:	4b5f      	ldr	r3, [pc, #380]	; (8214 <http_client_send_request+0x1fc>)
    8098:	4798      	blx	r3
    809a:	283f      	cmp	r0, #63	; 0x3f
    809c:	d900      	bls.n	80a0 <http_client_send_request+0x88>
    809e:	e0af      	b.n	8200 <http_client_send_request+0x1e8>
    80a0:	0027      	movs	r7, r4
    80a2:	37d4      	adds	r7, #212	; 0xd4
    80a4:	6838      	ldr	r0, [r7, #0]
    80a6:	2800      	cmp	r0, #0
    80a8:	d001      	beq.n	80ae <http_client_send_request+0x96>
    80aa:	4b5b      	ldr	r3, [pc, #364]	; (8218 <http_client_send_request+0x200>)
    80ac:	4798      	blx	r3
    80ae:	9b10      	ldr	r3, [sp, #64]	; 0x40
    80b0:	2b00      	cmp	r3, #0
    80b2:	d00e      	beq.n	80d2 <http_client_send_request+0xba>
    80b4:	0018      	movs	r0, r3
    80b6:	4b59      	ldr	r3, [pc, #356]	; (821c <http_client_send_request+0x204>)
    80b8:	4798      	blx	r3
    80ba:	0023      	movs	r3, r4
    80bc:	33d4      	adds	r3, #212	; 0xd4
    80be:	6018      	str	r0, [r3, #0]
    80c0:	2800      	cmp	r0, #0
    80c2:	d108      	bne.n	80d6 <http_client_send_request+0xbe>
    80c4:	250c      	movs	r5, #12
    80c6:	e7b0      	b.n	802a <http_client_send_request+0x12>
    80c8:	2a2f      	cmp	r2, #47	; 0x2f
    80ca:	d0dd      	beq.n	8088 <http_client_send_request+0x70>
    80cc:	3301      	adds	r3, #1
    80ce:	54e2      	strb	r2, [r4, r3]
    80d0:	e7d2      	b.n	8078 <http_client_send_request+0x60>
    80d2:	9b10      	ldr	r3, [sp, #64]	; 0x40
    80d4:	603b      	str	r3, [r7, #0]
    80d6:	0022      	movs	r2, r4
    80d8:	2101      	movs	r1, #1
    80da:	3241      	adds	r2, #65	; 0x41
    80dc:	7813      	ldrb	r3, [r2, #0]
    80de:	0020      	movs	r0, r4
    80e0:	438b      	bics	r3, r1
    80e2:	7013      	strb	r3, [r2, #0]
    80e4:	2300      	movs	r3, #0
    80e6:	6463      	str	r3, [r4, #68]	; 0x44
    80e8:	9b00      	ldr	r3, [sp, #0]
    80ea:	3070      	adds	r0, #112	; 0x70
    80ec:	781b      	ldrb	r3, [r3, #0]
    80ee:	9900      	ldr	r1, [sp, #0]
    80f0:	2b2f      	cmp	r3, #47	; 0x2f
    80f2:	d008      	beq.n	8106 <http_client_send_request+0xee>
    80f4:	232f      	movs	r3, #47	; 0x2f
    80f6:	7003      	strb	r3, [r0, #0]
    80f8:	9b00      	ldr	r3, [sp, #0]
    80fa:	781b      	ldrb	r3, [r3, #0]
    80fc:	2b00      	cmp	r3, #0
    80fe:	d004      	beq.n	810a <http_client_send_request+0xf2>
    8100:	0020      	movs	r0, r4
    8102:	9900      	ldr	r1, [sp, #0]
    8104:	3071      	adds	r0, #113	; 0x71
    8106:	4b46      	ldr	r3, [pc, #280]	; (8220 <http_client_send_request+0x208>)
    8108:	4798      	blx	r3
    810a:	0020      	movs	r0, r4
    810c:	9b02      	ldr	r3, [sp, #8]
    810e:	30b0      	adds	r0, #176	; 0xb0
    8110:	2218      	movs	r2, #24
    8112:	2b00      	cmp	r3, #0
    8114:	d010      	beq.n	8138 <http_client_send_request+0x120>
    8116:	0019      	movs	r1, r3
    8118:	4b42      	ldr	r3, [pc, #264]	; (8224 <http_client_send_request+0x20c>)
    811a:	4798      	blx	r3
    811c:	466a      	mov	r2, sp
    811e:	0023      	movs	r3, r4
    8120:	7d12      	ldrb	r2, [r2, #20]
    8122:	33c8      	adds	r3, #200	; 0xc8
    8124:	701a      	strb	r2, [r3, #0]
    8126:	6ee3      	ldr	r3, [r4, #108]	; 0x6c
    8128:	2b01      	cmp	r3, #1
    812a:	d009      	beq.n	8140 <http_client_send_request+0x128>
    812c:	2b00      	cmp	r3, #0
    812e:	d01a      	beq.n	8166 <http_client_send_request+0x14e>
    8130:	2b02      	cmp	r3, #2
    8132:	d00b      	beq.n	814c <http_client_send_request+0x134>
    8134:	250b      	movs	r5, #11
    8136:	e778      	b.n	802a <http_client_send_request+0x12>
    8138:	9902      	ldr	r1, [sp, #8]
    813a:	4b3b      	ldr	r3, [pc, #236]	; (8228 <http_client_send_request+0x210>)
    813c:	4798      	blx	r3
    813e:	e7ed      	b.n	811c <http_client_send_request+0x104>
    8140:	9b03      	ldr	r3, [sp, #12]
    8142:	2b00      	cmp	r3, #0
    8144:	d10b      	bne.n	815e <http_client_send_request+0x146>
    8146:	0028      	movs	r0, r5
    8148:	b00b      	add	sp, #44	; 0x2c
    814a:	bdf0      	pop	{r4, r5, r6, r7, pc}
    814c:	9b03      	ldr	r3, [sp, #12]
    814e:	2b00      	cmp	r3, #0
    8150:	d105      	bne.n	815e <http_client_send_request+0x146>
    8152:	3303      	adds	r3, #3
    8154:	66e3      	str	r3, [r4, #108]	; 0x6c
    8156:	0020      	movs	r0, r4
    8158:	4b34      	ldr	r3, [pc, #208]	; (822c <http_client_send_request+0x214>)
    815a:	4798      	blx	r3
    815c:	e7f3      	b.n	8146 <http_client_send_request+0x12e>
    815e:	2100      	movs	r1, #0
    8160:	0020      	movs	r0, r4
    8162:	4b33      	ldr	r3, [pc, #204]	; (8230 <http_client_send_request+0x218>)
    8164:	4798      	blx	r3
    8166:	0023      	movs	r3, r4
    8168:	3352      	adds	r3, #82	; 0x52
    816a:	781a      	ldrb	r2, [r3, #0]
    816c:	2101      	movs	r1, #1
    816e:	1e53      	subs	r3, r2, #1
    8170:	419a      	sbcs	r2, r3
    8172:	2002      	movs	r0, #2
    8174:	b2d2      	uxtb	r2, r2
    8176:	4b2f      	ldr	r3, [pc, #188]	; (8234 <http_client_send_request+0x21c>)
    8178:	4798      	blx	r3
    817a:	7020      	strb	r0, [r4, #0]
    817c:	2800      	cmp	r0, #0
    817e:	db41      	blt.n	8204 <http_client_send_request+0x1ec>
    8180:	4b2d      	ldr	r3, [pc, #180]	; (8238 <http_client_send_request+0x220>)
    8182:	0080      	lsls	r0, r0, #2
    8184:	50c4      	str	r4, [r0, r3]
    8186:	2320      	movs	r3, #32
    8188:	0031      	movs	r1, r6
    818a:	2200      	movs	r2, #0
    818c:	469c      	mov	ip, r3
    818e:	2001      	movs	r0, #1
    8190:	780b      	ldrb	r3, [r1, #0]
    8192:	2b00      	cmp	r3, #0
    8194:	d118      	bne.n	81c8 <http_client_send_request+0x1b0>
    8196:	2302      	movs	r3, #2
    8198:	aa06      	add	r2, sp, #24
    819a:	8013      	strh	r3, [r2, #0]
    819c:	0023      	movs	r3, r4
    819e:	3350      	adds	r3, #80	; 0x50
    81a0:	881b      	ldrh	r3, [r3, #0]
    81a2:	0030      	movs	r0, r6
    81a4:	021a      	lsls	r2, r3, #8
    81a6:	0a1b      	lsrs	r3, r3, #8
    81a8:	4313      	orrs	r3, r2
    81aa:	aa06      	add	r2, sp, #24
    81ac:	8053      	strh	r3, [r2, #2]
    81ae:	4b23      	ldr	r3, [pc, #140]	; (823c <http_client_send_request+0x224>)
    81b0:	4798      	blx	r3
    81b2:	9007      	str	r0, [sp, #28]
    81b4:	2000      	movs	r0, #0
    81b6:	2210      	movs	r2, #16
    81b8:	5620      	ldrsb	r0, [r4, r0]
    81ba:	a906      	add	r1, sp, #24
    81bc:	4b20      	ldr	r3, [pc, #128]	; (8240 <http_client_send_request+0x228>)
    81be:	4798      	blx	r3
    81c0:	2301      	movs	r3, #1
    81c2:	2500      	movs	r5, #0
    81c4:	66e3      	str	r3, [r4, #108]	; 0x6c
    81c6:	e7be      	b.n	8146 <http_client_send_request+0x12e>
    81c8:	001d      	movs	r5, r3
    81ca:	4667      	mov	r7, ip
    81cc:	43bd      	bics	r5, r7
    81ce:	3d41      	subs	r5, #65	; 0x41
    81d0:	3101      	adds	r1, #1
    81d2:	2d05      	cmp	r5, #5
    81d4:	d910      	bls.n	81f8 <http_client_send_request+0x1e0>
    81d6:	2b3a      	cmp	r3, #58	; 0x3a
    81d8:	d00e      	beq.n	81f8 <http_client_send_request+0x1e0>
    81da:	2b2f      	cmp	r3, #47	; 0x2f
    81dc:	d00c      	beq.n	81f8 <http_client_send_request+0x1e0>
    81de:	2b2e      	cmp	r3, #46	; 0x2e
    81e0:	d105      	bne.n	81ee <http_client_send_request+0x1d6>
    81e2:	2a00      	cmp	r2, #0
    81e4:	d0d4      	beq.n	8190 <http_client_send_request+0x178>
    81e6:	0030      	movs	r0, r6
    81e8:	4b16      	ldr	r3, [pc, #88]	; (8244 <http_client_send_request+0x22c>)
    81ea:	4798      	blx	r3
    81ec:	e7e8      	b.n	81c0 <http_client_send_request+0x1a8>
    81ee:	2530      	movs	r5, #48	; 0x30
    81f0:	402b      	ands	r3, r5
    81f2:	42ab      	cmp	r3, r5
    81f4:	d0cc      	beq.n	8190 <http_client_send_request+0x178>
    81f6:	e7f6      	b.n	81e6 <http_client_send_request+0x1ce>
    81f8:	0002      	movs	r2, r0
    81fa:	e7c9      	b.n	8190 <http_client_send_request+0x178>
    81fc:	2510      	movs	r5, #16
    81fe:	e714      	b.n	802a <http_client_send_request+0x12>
    8200:	255b      	movs	r5, #91	; 0x5b
    8202:	e712      	b.n	802a <http_client_send_request+0x12>
    8204:	251c      	movs	r5, #28
    8206:	e710      	b.n	802a <http_client_send_request+0x12>
    8208:	0000d79f 	.word	0x0000d79f
    820c:	0000b6dd 	.word	0x0000b6dd
    8210:	0000d7a7 	.word	0x0000d7a7
    8214:	0000b6cf 	.word	0x0000b6cf
    8218:	0000b1c1 	.word	0x0000b1c1
    821c:	0000b695 	.word	0x0000b695
    8220:	0000b685 	.word	0x0000b685
    8224:	0000b1d5 	.word	0x0000b1d5
    8228:	0000b20b 	.word	0x0000b20b
    822c:	00007c61 	.word	0x00007c61
    8230:	00007b4d 	.word	0x00007b4d
    8234:	00004c11 	.word	0x00004c11
    8238:	20000284 	.word	0x20000284
    823c:	00004f11 	.word	0x00004f11
    8240:	00004d25 	.word	0x00004d25
    8244:	00004f69 	.word	0x00004f69

00008248 <_http_client_recv_packet>:
    8248:	b510      	push	{r4, lr}
    824a:	2800      	cmp	r0, #0
    824c:	d007      	beq.n	825e <_http_client_recv_packet+0x16>
    824e:	6c41      	ldr	r1, [r0, #68]	; 0x44
    8250:	6e02      	ldr	r2, [r0, #96]	; 0x60
    8252:	4291      	cmp	r1, r2
    8254:	d304      	bcc.n	8260 <_http_client_recv_packet+0x18>
    8256:	218b      	movs	r1, #139	; 0x8b
    8258:	4b06      	ldr	r3, [pc, #24]	; (8274 <_http_client_recv_packet+0x2c>)
    825a:	4249      	negs	r1, r1
    825c:	4798      	blx	r3
    825e:	bd10      	pop	{r4, pc}
    8260:	6dc3      	ldr	r3, [r0, #92]	; 0x5c
    8262:	7800      	ldrb	r0, [r0, #0]
    8264:	1a52      	subs	r2, r2, r1
    8266:	b292      	uxth	r2, r2
    8268:	1859      	adds	r1, r3, r1
    826a:	4c03      	ldr	r4, [pc, #12]	; (8278 <_http_client_recv_packet+0x30>)
    826c:	2300      	movs	r3, #0
    826e:	b240      	sxtb	r0, r0
    8270:	47a0      	blx	r4
    8272:	e7f4      	b.n	825e <_http_client_recv_packet+0x16>
    8274:	00007b4d 	.word	0x00007b4d
    8278:	00004e0d 	.word	0x00004e0d

0000827c <_http_client_move_buffer>:
    827c:	b570      	push	{r4, r5, r6, lr}
    827e:	0005      	movs	r5, r0
    8280:	6c6b      	ldr	r3, [r5, #68]	; 0x44
    8282:	6dc0      	ldr	r0, [r0, #92]	; 0x5c
    8284:	1a5c      	subs	r4, r3, r1
    8286:	1904      	adds	r4, r0, r4
    8288:	2c00      	cmp	r4, #0
    828a:	dd04      	ble.n	8296 <_http_client_move_buffer+0x1a>
    828c:	0022      	movs	r2, r4
    828e:	4b03      	ldr	r3, [pc, #12]	; (829c <_http_client_move_buffer+0x20>)
    8290:	4798      	blx	r3
    8292:	646c      	str	r4, [r5, #68]	; 0x44
    8294:	bd70      	pop	{r4, r5, r6, pc}
    8296:	2300      	movs	r3, #0
    8298:	646b      	str	r3, [r5, #68]	; 0x44
    829a:	e7fb      	b.n	8294 <_http_client_move_buffer+0x18>
    829c:	0000b1e7 	.word	0x0000b1e7

000082a0 <_http_client_handle_header>:
    82a0:	b5f0      	push	{r4, r5, r6, r7, lr}
    82a2:	0005      	movs	r5, r0
    82a4:	6dc4      	ldr	r4, [r0, #92]	; 0x5c
    82a6:	b085      	sub	sp, #20
    82a8:	4e54      	ldr	r6, [pc, #336]	; (83fc <_http_client_handle_header+0x15c>)
    82aa:	0020      	movs	r0, r4
    82ac:	0031      	movs	r1, r6
    82ae:	4b54      	ldr	r3, [pc, #336]	; (8400 <_http_client_handle_header+0x160>)
    82b0:	4798      	blx	r3
    82b2:	1e07      	subs	r7, r0, #0
    82b4:	d107      	bne.n	82c6 <_http_client_handle_header+0x26>
    82b6:	0021      	movs	r1, r4
    82b8:	0028      	movs	r0, r5
    82ba:	4b52      	ldr	r3, [pc, #328]	; (8404 <_http_client_handle_header+0x164>)
    82bc:	4798      	blx	r3
    82be:	2600      	movs	r6, #0
    82c0:	0030      	movs	r0, r6
    82c2:	b005      	add	sp, #20
    82c4:	bdf0      	pop	{r4, r5, r6, r7, pc}
    82c6:	6deb      	ldr	r3, [r5, #92]	; 0x5c
    82c8:	6c6a      	ldr	r2, [r5, #68]	; 0x44
    82ca:	189b      	adds	r3, r3, r2
    82cc:	4298      	cmp	r0, r3
    82ce:	d2f2      	bcs.n	82b6 <_http_client_handle_header+0x16>
    82d0:	0031      	movs	r1, r6
    82d2:	2202      	movs	r2, #2
    82d4:	0020      	movs	r0, r4
    82d6:	4b4c      	ldr	r3, [pc, #304]	; (8408 <_http_client_handle_header+0x168>)
    82d8:	4798      	blx	r3
    82da:	1e06      	subs	r6, r0, #0
    82dc:	d129      	bne.n	8332 <_http_client_handle_header+0x92>
    82de:	4b49      	ldr	r3, [pc, #292]	; (8404 <_http_client_handle_header+0x164>)
    82e0:	1ca1      	adds	r1, r4, #2
    82e2:	0028      	movs	r0, r5
    82e4:	4798      	blx	r3
    82e6:	6ceb      	ldr	r3, [r5, #76]	; 0x4c
    82e8:	2b00      	cmp	r3, #0
    82ea:	d013      	beq.n	8314 <_http_client_handle_header+0x74>
    82ec:	002a      	movs	r2, r5
    82ee:	32e4      	adds	r2, #228	; 0xe4
    82f0:	8810      	ldrh	r0, [r2, #0]
    82f2:	2800      	cmp	r0, #0
    82f4:	d00e      	beq.n	8314 <_http_client_handle_header+0x74>
    82f6:	3a08      	subs	r2, #8
    82f8:	6811      	ldr	r1, [r2, #0]
    82fa:	2900      	cmp	r1, #0
    82fc:	da0e      	bge.n	831c <_http_client_handle_header+0x7c>
    82fe:	2101      	movs	r1, #1
    8300:	aa01      	add	r2, sp, #4
    8302:	7091      	strb	r1, [r2, #2]
    8304:	0029      	movs	r1, r5
    8306:	31e0      	adds	r1, #224	; 0xe0
    8308:	8010      	strh	r0, [r2, #0]
    830a:	600e      	str	r6, [r1, #0]
    830c:	6096      	str	r6, [r2, #8]
    830e:	2102      	movs	r1, #2
    8310:	0028      	movs	r0, r5
    8312:	4798      	blx	r3
    8314:	2601      	movs	r6, #1
    8316:	35d8      	adds	r5, #216	; 0xd8
    8318:	602e      	str	r6, [r5, #0]
    831a:	e7d1      	b.n	82c0 <_http_client_handle_header+0x20>
    831c:	6e2a      	ldr	r2, [r5, #96]	; 0x60
    831e:	4291      	cmp	r1, r2
    8320:	ddf8      	ble.n	8314 <_http_client_handle_header+0x74>
    8322:	aa01      	add	r2, sp, #4
    8324:	6051      	str	r1, [r2, #4]
    8326:	0029      	movs	r1, r5
    8328:	31e0      	adds	r1, #224	; 0xe0
    832a:	8010      	strh	r0, [r2, #0]
    832c:	6096      	str	r6, [r2, #8]
    832e:	600e      	str	r6, [r1, #0]
    8330:	e7ed      	b.n	830e <_http_client_handle_header+0x6e>
    8332:	2210      	movs	r2, #16
    8334:	4935      	ldr	r1, [pc, #212]	; (840c <_http_client_handle_header+0x16c>)
    8336:	0020      	movs	r0, r4
    8338:	4b33      	ldr	r3, [pc, #204]	; (8408 <_http_client_handle_header+0x168>)
    833a:	4798      	blx	r3
    833c:	2800      	cmp	r0, #0
    833e:	d108      	bne.n	8352 <_http_client_handle_header+0xb2>
    8340:	0020      	movs	r0, r4
    8342:	4b33      	ldr	r3, [pc, #204]	; (8410 <_http_client_handle_header+0x170>)
    8344:	3010      	adds	r0, #16
    8346:	4798      	blx	r3
    8348:	002b      	movs	r3, r5
    834a:	33dc      	adds	r3, #220	; 0xdc
    834c:	6018      	str	r0, [r3, #0]
    834e:	1cbc      	adds	r4, r7, #2
    8350:	e7aa      	b.n	82a8 <_http_client_handle_header+0x8>
    8352:	2213      	movs	r2, #19
    8354:	492f      	ldr	r1, [pc, #188]	; (8414 <_http_client_handle_header+0x174>)
    8356:	0020      	movs	r0, r4
    8358:	4b2b      	ldr	r3, [pc, #172]	; (8408 <_http_client_handle_header+0x168>)
    835a:	4798      	blx	r3
    835c:	1e06      	subs	r6, r0, #0
    835e:	d116      	bne.n	838e <_http_client_handle_header+0xee>
    8360:	3413      	adds	r4, #19
    8362:	42bc      	cmp	r4, r7
    8364:	d2f3      	bcs.n	834e <_http_client_handle_header+0xae>
    8366:	7823      	ldrb	r3, [r4, #0]
    8368:	2b20      	cmp	r3, #32
    836a:	d101      	bne.n	8370 <_http_client_handle_header+0xd0>
    836c:	3401      	adds	r4, #1
    836e:	e7f8      	b.n	8362 <_http_client_handle_header+0xc2>
    8370:	2220      	movs	r2, #32
    8372:	4393      	bics	r3, r2
    8374:	2b43      	cmp	r3, #67	; 0x43
    8376:	d104      	bne.n	8382 <_http_client_handle_header+0xe2>
    8378:	002b      	movs	r3, r5
    837a:	3a21      	subs	r2, #33	; 0x21
    837c:	33cc      	adds	r3, #204	; 0xcc
    837e:	601a      	str	r2, [r3, #0]
    8380:	e7e5      	b.n	834e <_http_client_handle_header+0xae>
    8382:	2186      	movs	r1, #134	; 0x86
    8384:	0028      	movs	r0, r5
    8386:	4249      	negs	r1, r1
    8388:	4b23      	ldr	r3, [pc, #140]	; (8418 <_http_client_handle_header+0x178>)
    838a:	4798      	blx	r3
    838c:	e798      	b.n	82c0 <_http_client_handle_header+0x20>
    838e:	220c      	movs	r2, #12
    8390:	4922      	ldr	r1, [pc, #136]	; (841c <_http_client_handle_header+0x17c>)
    8392:	0020      	movs	r0, r4
    8394:	4b1c      	ldr	r3, [pc, #112]	; (8408 <_http_client_handle_header+0x168>)
    8396:	4798      	blx	r3
    8398:	2800      	cmp	r0, #0
    839a:	d112      	bne.n	83c2 <_http_client_handle_header+0x122>
    839c:	340c      	adds	r4, #12
    839e:	42bc      	cmp	r4, r7
    83a0:	d2d5      	bcs.n	834e <_http_client_handle_header+0xae>
    83a2:	7823      	ldrb	r3, [r4, #0]
    83a4:	2b20      	cmp	r3, #32
    83a6:	d101      	bne.n	83ac <_http_client_handle_header+0x10c>
    83a8:	3401      	adds	r4, #1
    83aa:	e7f8      	b.n	839e <_http_client_handle_header+0xfe>
    83ac:	2220      	movs	r2, #32
    83ae:	4393      	bics	r3, r2
    83b0:	2b4b      	cmp	r3, #75	; 0x4b
    83b2:	d11c      	bne.n	83ee <_http_client_handle_header+0x14e>
    83b4:	002a      	movs	r2, r5
    83b6:	2302      	movs	r3, #2
    83b8:	3241      	adds	r2, #65	; 0x41
    83ba:	7811      	ldrb	r1, [r2, #0]
    83bc:	430b      	orrs	r3, r1
    83be:	7013      	strb	r3, [r2, #0]
    83c0:	e7c5      	b.n	834e <_http_client_handle_header+0xae>
    83c2:	2205      	movs	r2, #5
    83c4:	4916      	ldr	r1, [pc, #88]	; (8420 <_http_client_handle_header+0x180>)
    83c6:	0020      	movs	r0, r4
    83c8:	4b0f      	ldr	r3, [pc, #60]	; (8408 <_http_client_handle_header+0x168>)
    83ca:	4798      	blx	r3
    83cc:	1e06      	subs	r6, r0, #0
    83ce:	d1be      	bne.n	834e <_http_client_handle_header+0xae>
    83d0:	0020      	movs	r0, r4
    83d2:	4b0f      	ldr	r3, [pc, #60]	; (8410 <_http_client_handle_header+0x170>)
    83d4:	3009      	adds	r0, #9
    83d6:	4798      	blx	r3
    83d8:	002b      	movs	r3, r5
    83da:	33e4      	adds	r3, #228	; 0xe4
    83dc:	8018      	strh	r0, [r3, #0]
    83de:	3b08      	subs	r3, #8
    83e0:	601e      	str	r6, [r3, #0]
    83e2:	7963      	ldrb	r3, [r4, #5]
    83e4:	2b31      	cmp	r3, #49	; 0x31
    83e6:	d8e5      	bhi.n	83b4 <_http_client_handle_header+0x114>
    83e8:	79e3      	ldrb	r3, [r4, #7]
    83ea:	2b30      	cmp	r3, #48	; 0x30
    83ec:	d8e2      	bhi.n	83b4 <_http_client_handle_header+0x114>
    83ee:	002a      	movs	r2, r5
    83f0:	2102      	movs	r1, #2
    83f2:	3241      	adds	r2, #65	; 0x41
    83f4:	7813      	ldrb	r3, [r2, #0]
    83f6:	438b      	bics	r3, r1
    83f8:	e7e1      	b.n	83be <_http_client_handle_header+0x11e>
    83fa:	46c0      	nop			; (mov r8, r8)
    83fc:	0000daa8 	.word	0x0000daa8
    8400:	0000b6ff 	.word	0x0000b6ff
    8404:	0000827d 	.word	0x0000827d
    8408:	0000b6dd 	.word	0x0000b6dd
    840c:	0000d782 	.word	0x0000d782
    8410:	0000b159 	.word	0x0000b159
    8414:	0000d6af 	.word	0x0000d6af
    8418:	00007b4d 	.word	0x00007b4d
    841c:	0000d6c3 	.word	0x0000d6c3
    8420:	0000d6d0 	.word	0x0000d6d0

00008424 <_http_client_handle_entity>:
    8424:	b5f0      	push	{r4, r5, r6, r7, lr}
    8426:	0007      	movs	r7, r0
    8428:	37dc      	adds	r7, #220	; 0xdc
    842a:	6839      	ldr	r1, [r7, #0]
    842c:	b087      	sub	sp, #28
    842e:	0004      	movs	r4, r0
    8430:	6dc6      	ldr	r6, [r0, #92]	; 0x5c
    8432:	6c45      	ldr	r5, [r0, #68]	; 0x44
    8434:	2900      	cmp	r1, #0
    8436:	db5c      	blt.n	84f2 <_http_client_handle_entity+0xce>
    8438:	6e03      	ldr	r3, [r0, #96]	; 0x60
    843a:	4299      	cmp	r1, r3
    843c:	dc2d      	bgt.n	849a <_http_client_handle_entity+0x76>
    843e:	2000      	movs	r0, #0
    8440:	42a9      	cmp	r1, r5
    8442:	dc28      	bgt.n	8496 <_http_client_handle_entity+0x72>
    8444:	0025      	movs	r5, r4
    8446:	6ce3      	ldr	r3, [r4, #76]	; 0x4c
    8448:	35e4      	adds	r5, #228	; 0xe4
    844a:	9301      	str	r3, [sp, #4]
    844c:	4283      	cmp	r3, r0
    844e:	d00d      	beq.n	846c <_http_client_handle_entity+0x48>
    8450:	882a      	ldrh	r2, [r5, #0]
    8452:	4694      	mov	ip, r2
    8454:	4282      	cmp	r2, r0
    8456:	d009      	beq.n	846c <_http_client_handle_entity+0x48>
    8458:	4663      	mov	r3, ip
    845a:	aa03      	add	r2, sp, #12
    845c:	8013      	strh	r3, [r2, #0]
    845e:	7090      	strb	r0, [r2, #2]
    8460:	6051      	str	r1, [r2, #4]
    8462:	6096      	str	r6, [r2, #8]
    8464:	2102      	movs	r1, #2
    8466:	0020      	movs	r0, r4
    8468:	9b01      	ldr	r3, [sp, #4]
    846a:	4798      	blx	r3
    846c:	0023      	movs	r3, r4
    846e:	2200      	movs	r2, #0
    8470:	2002      	movs	r0, #2
    8472:	33d8      	adds	r3, #216	; 0xd8
    8474:	601a      	str	r2, [r3, #0]
    8476:	802a      	strh	r2, [r5, #0]
    8478:	3b97      	subs	r3, #151	; 0x97
    847a:	781d      	ldrb	r5, [r3, #0]
    847c:	4005      	ands	r5, r0
    847e:	4295      	cmp	r5, r2
    8480:	d103      	bne.n	848a <_http_client_handle_entity+0x66>
    8482:	0029      	movs	r1, r5
    8484:	0020      	movs	r0, r4
    8486:	4b57      	ldr	r3, [pc, #348]	; (85e4 <_http_client_handle_entity+0x1c0>)
    8488:	e030      	b.n	84ec <_http_client_handle_entity+0xc8>
    848a:	6839      	ldr	r1, [r7, #0]
    848c:	0020      	movs	r0, r4
    848e:	1871      	adds	r1, r6, r1
    8490:	4b55      	ldr	r3, [pc, #340]	; (85e8 <_http_client_handle_entity+0x1c4>)
    8492:	4798      	blx	r3
    8494:	6c60      	ldr	r0, [r4, #68]	; 0x44
    8496:	b007      	add	sp, #28
    8498:	bdf0      	pop	{r4, r5, r6, r7, pc}
    849a:	0003      	movs	r3, r0
    849c:	33e0      	adds	r3, #224	; 0xe0
    849e:	681a      	ldr	r2, [r3, #0]
    84a0:	af03      	add	r7, sp, #12
    84a2:	9503      	str	r5, [sp, #12]
    84a4:	18ad      	adds	r5, r5, r2
    84a6:	601d      	str	r5, [r3, #0]
    84a8:	607e      	str	r6, [r7, #4]
    84aa:	2300      	movs	r3, #0
    84ac:	42a9      	cmp	r1, r5
    84ae:	dc04      	bgt.n	84ba <_http_client_handle_entity+0x96>
    84b0:	0002      	movs	r2, r0
    84b2:	32d8      	adds	r2, #216	; 0xd8
    84b4:	6013      	str	r3, [r2, #0]
    84b6:	8193      	strh	r3, [r2, #12]
    84b8:	3301      	adds	r3, #1
    84ba:	723b      	strb	r3, [r7, #8]
    84bc:	6ce3      	ldr	r3, [r4, #76]	; 0x4c
    84be:	2b00      	cmp	r3, #0
    84c0:	d003      	beq.n	84ca <_http_client_handle_entity+0xa6>
    84c2:	003a      	movs	r2, r7
    84c4:	2103      	movs	r1, #3
    84c6:	0020      	movs	r0, r4
    84c8:	4798      	blx	r3
    84ca:	7a3b      	ldrb	r3, [r7, #8]
    84cc:	2b01      	cmp	r3, #1
    84ce:	d109      	bne.n	84e4 <_http_client_handle_entity+0xc0>
    84d0:	0023      	movs	r3, r4
    84d2:	2002      	movs	r0, #2
    84d4:	3341      	adds	r3, #65	; 0x41
    84d6:	781d      	ldrb	r5, [r3, #0]
    84d8:	4005      	ands	r5, r0
    84da:	d103      	bne.n	84e4 <_http_client_handle_entity+0xc0>
    84dc:	4b43      	ldr	r3, [pc, #268]	; (85ec <_http_client_handle_entity+0x1c8>)
    84de:	4844      	ldr	r0, [pc, #272]	; (85f0 <_http_client_handle_entity+0x1cc>)
    84e0:	4798      	blx	r3
    84e2:	e7ce      	b.n	8482 <_http_client_handle_entity+0x5e>
    84e4:	0020      	movs	r0, r4
    84e6:	6c63      	ldr	r3, [r4, #68]	; 0x44
    84e8:	18f1      	adds	r1, r6, r3
    84ea:	4b3f      	ldr	r3, [pc, #252]	; (85e8 <_http_client_handle_entity+0x1c4>)
    84ec:	4798      	blx	r3
    84ee:	2000      	movs	r0, #0
    84f0:	e7d1      	b.n	8496 <_http_client_handle_entity+0x72>
    84f2:	2300      	movs	r3, #0
    84f4:	9301      	str	r3, [sp, #4]
    84f6:	0027      	movs	r7, r4
    84f8:	37e0      	adds	r7, #224	; 0xe0
    84fa:	683b      	ldr	r3, [r7, #0]
    84fc:	2b00      	cmp	r3, #0
    84fe:	db36      	blt.n	856e <_http_client_handle_entity+0x14a>
    8500:	d11c      	bne.n	853c <_http_client_handle_entity+0x118>
    8502:	0022      	movs	r2, r4
    8504:	2101      	movs	r1, #1
    8506:	32d8      	adds	r2, #216	; 0xd8
    8508:	6013      	str	r3, [r2, #0]
    850a:	8193      	strh	r3, [r2, #12]
    850c:	aa03      	add	r2, sp, #12
    850e:	9303      	str	r3, [sp, #12]
    8510:	6053      	str	r3, [r2, #4]
    8512:	6ce3      	ldr	r3, [r4, #76]	; 0x4c
    8514:	7211      	strb	r1, [r2, #8]
    8516:	2b00      	cmp	r3, #0
    8518:	d002      	beq.n	8520 <_http_client_handle_entity+0xfc>
    851a:	2103      	movs	r1, #3
    851c:	0020      	movs	r0, r4
    851e:	4798      	blx	r3
    8520:	0023      	movs	r3, r4
    8522:	3341      	adds	r3, #65	; 0x41
    8524:	7819      	ldrb	r1, [r3, #0]
    8526:	2302      	movs	r3, #2
    8528:	4019      	ands	r1, r3
    852a:	d0ab      	beq.n	8484 <_http_client_handle_entity+0x60>
    852c:	1cb1      	adds	r1, r6, #2
    852e:	0020      	movs	r0, r4
    8530:	4b2d      	ldr	r3, [pc, #180]	; (85e8 <_http_client_handle_entity+0x1c4>)
    8532:	4798      	blx	r3
    8534:	6c63      	ldr	r3, [r4, #68]	; 0x44
    8536:	2b00      	cmp	r3, #0
    8538:	d1dd      	bne.n	84f6 <_http_client_handle_entity+0xd2>
    853a:	e7d8      	b.n	84ee <_http_client_handle_entity+0xca>
    853c:	42ab      	cmp	r3, r5
    853e:	dcf9      	bgt.n	8534 <_http_client_handle_entity+0x110>
    8540:	9303      	str	r3, [sp, #12]
    8542:	2300      	movs	r3, #0
    8544:	aa03      	add	r2, sp, #12
    8546:	7213      	strb	r3, [r2, #8]
    8548:	6ce3      	ldr	r3, [r4, #76]	; 0x4c
    854a:	6056      	str	r6, [r2, #4]
    854c:	2b00      	cmp	r3, #0
    854e:	d002      	beq.n	8556 <_http_client_handle_entity+0x132>
    8550:	2103      	movs	r1, #3
    8552:	0020      	movs	r0, r4
    8554:	4798      	blx	r3
    8556:	683b      	ldr	r3, [r7, #0]
    8558:	0020      	movs	r0, r4
    855a:	1c99      	adds	r1, r3, #2
    855c:	1871      	adds	r1, r6, r1
    855e:	4b22      	ldr	r3, [pc, #136]	; (85e8 <_http_client_handle_entity+0x1c4>)
    8560:	4798      	blx	r3
    8562:	2301      	movs	r3, #1
    8564:	425b      	negs	r3, r3
    8566:	6c65      	ldr	r5, [r4, #68]	; 0x44
    8568:	6de6      	ldr	r6, [r4, #92]	; 0x5c
    856a:	603b      	str	r3, [r7, #0]
    856c:	e7e2      	b.n	8534 <_http_client_handle_entity+0x110>
    856e:	2300      	movs	r3, #0
    8570:	603b      	str	r3, [r7, #0]
    8572:	2d00      	cmp	r5, #0
    8574:	dd04      	ble.n	8580 <_http_client_handle_entity+0x15c>
    8576:	7833      	ldrb	r3, [r6, #0]
    8578:	3601      	adds	r6, #1
    857a:	2b0a      	cmp	r3, #10
    857c:	d107      	bne.n	858e <_http_client_handle_entity+0x16a>
    857e:	3d01      	subs	r5, #1
    8580:	683b      	ldr	r3, [r7, #0]
    8582:	6e22      	ldr	r2, [r4, #96]	; 0x60
    8584:	4293      	cmp	r3, r2
    8586:	dd27      	ble.n	85d8 <_http_client_handle_entity+0x1b4>
    8588:	218b      	movs	r1, #139	; 0x8b
    858a:	4249      	negs	r1, r1
    858c:	e77a      	b.n	8484 <_http_client_handle_entity+0x60>
    858e:	9a01      	ldr	r2, [sp, #4]
    8590:	2a00      	cmp	r2, #0
    8592:	d108      	bne.n	85a6 <_http_client_handle_entity+0x182>
    8594:	001a      	movs	r2, r3
    8596:	3a30      	subs	r2, #48	; 0x30
    8598:	2a09      	cmp	r2, #9
    859a:	d806      	bhi.n	85aa <_http_client_handle_entity+0x186>
    859c:	683a      	ldr	r2, [r7, #0]
    859e:	0112      	lsls	r2, r2, #4
    85a0:	18d3      	adds	r3, r2, r3
    85a2:	3b30      	subs	r3, #48	; 0x30
    85a4:	603b      	str	r3, [r7, #0]
    85a6:	3d01      	subs	r5, #1
    85a8:	e7e3      	b.n	8572 <_http_client_handle_entity+0x14e>
    85aa:	001a      	movs	r2, r3
    85ac:	3a61      	subs	r2, #97	; 0x61
    85ae:	2a05      	cmp	r2, #5
    85b0:	d804      	bhi.n	85bc <_http_client_handle_entity+0x198>
    85b2:	683a      	ldr	r2, [r7, #0]
    85b4:	0112      	lsls	r2, r2, #4
    85b6:	18d3      	adds	r3, r2, r3
    85b8:	3b61      	subs	r3, #97	; 0x61
    85ba:	e7f3      	b.n	85a4 <_http_client_handle_entity+0x180>
    85bc:	001a      	movs	r2, r3
    85be:	3a41      	subs	r2, #65	; 0x41
    85c0:	2a05      	cmp	r2, #5
    85c2:	d804      	bhi.n	85ce <_http_client_handle_entity+0x1aa>
    85c4:	683a      	ldr	r2, [r7, #0]
    85c6:	0112      	lsls	r2, r2, #4
    85c8:	18d3      	adds	r3, r2, r3
    85ca:	3b41      	subs	r3, #65	; 0x41
    85cc:	e7ea      	b.n	85a4 <_http_client_handle_entity+0x180>
    85ce:	3b3b      	subs	r3, #59	; 0x3b
    85d0:	425a      	negs	r2, r3
    85d2:	415a      	adcs	r2, r3
    85d4:	9201      	str	r2, [sp, #4]
    85d6:	e7e6      	b.n	85a6 <_http_client_handle_entity+0x182>
    85d8:	2d00      	cmp	r5, #0
    85da:	d1ab      	bne.n	8534 <_http_client_handle_entity+0x110>
    85dc:	2301      	movs	r3, #1
    85de:	425b      	negs	r3, r3
    85e0:	603b      	str	r3, [r7, #0]
    85e2:	e784      	b.n	84ee <_http_client_handle_entity+0xca>
    85e4:	00007b4d 	.word	0x00007b4d
    85e8:	0000827d 	.word	0x0000827d
    85ec:	0000b489 	.word	0x0000b489
    85f0:	0000d6ac 	.word	0x0000d6ac

000085f4 <_http_client_handle_response>:
    85f4:	0003      	movs	r3, r0
    85f6:	b510      	push	{r4, lr}
    85f8:	33d8      	adds	r3, #216	; 0xd8
    85fa:	681b      	ldr	r3, [r3, #0]
    85fc:	2b00      	cmp	r3, #0
    85fe:	d003      	beq.n	8608 <_http_client_handle_response+0x14>
    8600:	2b01      	cmp	r3, #1
    8602:	d004      	beq.n	860e <_http_client_handle_response+0x1a>
    8604:	2000      	movs	r0, #0
    8606:	e001      	b.n	860c <_http_client_handle_response+0x18>
    8608:	4b02      	ldr	r3, [pc, #8]	; (8614 <_http_client_handle_response+0x20>)
    860a:	4798      	blx	r3
    860c:	bd10      	pop	{r4, pc}
    860e:	4b02      	ldr	r3, [pc, #8]	; (8618 <_http_client_handle_response+0x24>)
    8610:	e7fb      	b.n	860a <_http_client_handle_response+0x16>
    8612:	46c0      	nop			; (mov r8, r8)
    8614:	000082a1 	.word	0x000082a1
    8618:	00008425 	.word	0x00008425

0000861c <_http_client_recved_packet>:
    861c:	b510      	push	{r4, lr}
    861e:	6c43      	ldr	r3, [r0, #68]	; 0x44
    8620:	0004      	movs	r4, r0
    8622:	1859      	adds	r1, r3, r1
    8624:	0003      	movs	r3, r0
    8626:	6441      	str	r1, [r0, #68]	; 0x44
    8628:	3358      	adds	r3, #88	; 0x58
    862a:	881b      	ldrh	r3, [r3, #0]
    862c:	2b00      	cmp	r3, #0
    862e:	d003      	beq.n	8638 <_http_client_recved_packet+0x1c>
    8630:	6c81      	ldr	r1, [r0, #72]	; 0x48
    8632:	4b04      	ldr	r3, [pc, #16]	; (8644 <_http_client_recved_packet+0x28>)
    8634:	6d40      	ldr	r0, [r0, #84]	; 0x54
    8636:	4798      	blx	r3
    8638:	0020      	movs	r0, r4
    863a:	4b03      	ldr	r3, [pc, #12]	; (8648 <_http_client_recved_packet+0x2c>)
    863c:	4798      	blx	r3
    863e:	2800      	cmp	r0, #0
    8640:	d1fa      	bne.n	8638 <_http_client_recved_packet+0x1c>
    8642:	bd10      	pop	{r4, pc}
    8644:	000088b1 	.word	0x000088b1
    8648:	000085f5 	.word	0x000085f5

0000864c <http_client_socket_event_handler>:
    864c:	b51f      	push	{r0, r1, r2, r3, r4, lr}
    864e:	4b29      	ldr	r3, [pc, #164]	; (86f4 <http_client_socket_event_handler+0xa8>)
    8650:	0080      	lsls	r0, r0, #2
    8652:	58c4      	ldr	r4, [r0, r3]
    8654:	2c00      	cmp	r4, #0
    8656:	d010      	beq.n	867a <http_client_socket_event_handler+0x2e>
    8658:	2906      	cmp	r1, #6
    865a:	d026      	beq.n	86aa <http_client_socket_event_handler+0x5e>
    865c:	2907      	cmp	r1, #7
    865e:	d035      	beq.n	86cc <http_client_socket_event_handler+0x80>
    8660:	2905      	cmp	r1, #5
    8662:	d10a      	bne.n	867a <http_client_socket_event_handler+0x2e>
    8664:	2001      	movs	r0, #1
    8666:	5610      	ldrsb	r0, [r2, r0]
    8668:	9001      	str	r0, [sp, #4]
    866a:	2800      	cmp	r0, #0
    866c:	da06      	bge.n	867c <http_client_socket_event_handler+0x30>
    866e:	4b22      	ldr	r3, [pc, #136]	; (86f8 <http_client_socket_event_handler+0xac>)
    8670:	4798      	blx	r3
    8672:	4b22      	ldr	r3, [pc, #136]	; (86fc <http_client_socket_event_handler+0xb0>)
    8674:	0001      	movs	r1, r0
    8676:	0020      	movs	r0, r4
    8678:	4798      	blx	r3
    867a:	bd1f      	pop	{r0, r1, r2, r3, r4, pc}
    867c:	6ce3      	ldr	r3, [r4, #76]	; 0x4c
    867e:	2b00      	cmp	r3, #0
    8680:	d003      	beq.n	868a <http_client_socket_event_handler+0x3e>
    8682:	aa01      	add	r2, sp, #4
    8684:	2100      	movs	r1, #0
    8686:	0020      	movs	r0, r4
    8688:	4798      	blx	r3
    868a:	2303      	movs	r3, #3
    868c:	66e3      	str	r3, [r4, #108]	; 0x6c
    868e:	0023      	movs	r3, r4
    8690:	3358      	adds	r3, #88	; 0x58
    8692:	881a      	ldrh	r2, [r3, #0]
    8694:	6ca1      	ldr	r1, [r4, #72]	; 0x48
    8696:	6d60      	ldr	r0, [r4, #84]	; 0x54
    8698:	4b19      	ldr	r3, [pc, #100]	; (8700 <http_client_socket_event_handler+0xb4>)
    869a:	4798      	blx	r3
    869c:	0020      	movs	r0, r4
    869e:	4b19      	ldr	r3, [pc, #100]	; (8704 <http_client_socket_event_handler+0xb8>)
    86a0:	4798      	blx	r3
    86a2:	0020      	movs	r0, r4
    86a4:	4b18      	ldr	r3, [pc, #96]	; (8708 <http_client_socket_event_handler+0xbc>)
    86a6:	4798      	blx	r3
    86a8:	e7e7      	b.n	867a <http_client_socket_event_handler+0x2e>
    86aa:	2304      	movs	r3, #4
    86ac:	5ed1      	ldrsh	r1, [r2, r3]
    86ae:	2900      	cmp	r1, #0
    86b0:	dd05      	ble.n	86be <http_client_socket_event_handler+0x72>
    86b2:	0020      	movs	r0, r4
    86b4:	4b15      	ldr	r3, [pc, #84]	; (870c <http_client_socket_event_handler+0xc0>)
    86b6:	4798      	blx	r3
    86b8:	0020      	movs	r0, r4
    86ba:	4b12      	ldr	r3, [pc, #72]	; (8704 <http_client_socket_event_handler+0xb8>)
    86bc:	e7f3      	b.n	86a6 <http_client_socket_event_handler+0x5a>
    86be:	0008      	movs	r0, r1
    86c0:	4b0d      	ldr	r3, [pc, #52]	; (86f8 <http_client_socket_event_handler+0xac>)
    86c2:	4798      	blx	r3
    86c4:	4b0d      	ldr	r3, [pc, #52]	; (86fc <http_client_socket_event_handler+0xb0>)
    86c6:	0001      	movs	r1, r0
    86c8:	0020      	movs	r0, r4
    86ca:	e7f4      	b.n	86b6 <http_client_socket_event_handler+0x6a>
    86cc:	2300      	movs	r3, #0
    86ce:	5ed0      	ldrsh	r0, [r2, r3]
    86d0:	2800      	cmp	r0, #0
    86d2:	da0b      	bge.n	86ec <http_client_socket_event_handler+0xa0>
    86d4:	4b08      	ldr	r3, [pc, #32]	; (86f8 <http_client_socket_event_handler+0xac>)
    86d6:	4798      	blx	r3
    86d8:	4b08      	ldr	r3, [pc, #32]	; (86fc <http_client_socket_event_handler+0xb0>)
    86da:	0001      	movs	r1, r0
    86dc:	0020      	movs	r0, r4
    86de:	4798      	blx	r3
    86e0:	2201      	movs	r2, #1
    86e2:	3441      	adds	r4, #65	; 0x41
    86e4:	7823      	ldrb	r3, [r4, #0]
    86e6:	4393      	bics	r3, r2
    86e8:	7023      	strb	r3, [r4, #0]
    86ea:	e7c6      	b.n	867a <http_client_socket_event_handler+0x2e>
    86ec:	0020      	movs	r0, r4
    86ee:	4b06      	ldr	r3, [pc, #24]	; (8708 <http_client_socket_event_handler+0xbc>)
    86f0:	4798      	blx	r3
    86f2:	e7f5      	b.n	86e0 <http_client_socket_event_handler+0x94>
    86f4:	20000284 	.word	0x20000284
    86f8:	000079e1 	.word	0x000079e1
    86fc:	00007b4d 	.word	0x00007b4d
    8700:	00008885 	.word	0x00008885
    8704:	00008249 	.word	0x00008249
    8708:	00007c61 	.word	0x00007c61
    870c:	0000861d 	.word	0x0000861d

00008710 <stream_writer_init>:
    8710:	6002      	str	r2, [r0, #0]
    8712:	2200      	movs	r2, #0
    8714:	6083      	str	r3, [r0, #8]
    8716:	9b00      	ldr	r3, [sp, #0]
    8718:	6101      	str	r1, [r0, #16]
    871a:	6042      	str	r2, [r0, #4]
    871c:	60c3      	str	r3, [r0, #12]
    871e:	4770      	bx	lr

00008720 <stream_writer_send_remain>:
    8720:	b510      	push	{r4, lr}
    8722:	6842      	ldr	r2, [r0, #4]
    8724:	0004      	movs	r4, r0
    8726:	2a00      	cmp	r2, #0
    8728:	d005      	beq.n	8736 <stream_writer_send_remain+0x16>
    872a:	6901      	ldr	r1, [r0, #16]
    872c:	68a3      	ldr	r3, [r4, #8]
    872e:	68c0      	ldr	r0, [r0, #12]
    8730:	4798      	blx	r3
    8732:	2300      	movs	r3, #0
    8734:	6063      	str	r3, [r4, #4]
    8736:	bd10      	pop	{r4, pc}

00008738 <stream_writer_send_8>:
    8738:	6803      	ldr	r3, [r0, #0]
    873a:	6842      	ldr	r2, [r0, #4]
    873c:	b570      	push	{r4, r5, r6, lr}
    873e:	1a9b      	subs	r3, r3, r2
    8740:	0004      	movs	r4, r0
    8742:	000d      	movs	r5, r1
    8744:	2b00      	cmp	r3, #0
    8746:	dc01      	bgt.n	874c <stream_writer_send_8+0x14>
    8748:	4b03      	ldr	r3, [pc, #12]	; (8758 <stream_writer_send_8+0x20>)
    874a:	4798      	blx	r3
    874c:	6863      	ldr	r3, [r4, #4]
    874e:	6922      	ldr	r2, [r4, #16]
    8750:	1c59      	adds	r1, r3, #1
    8752:	6061      	str	r1, [r4, #4]
    8754:	54d5      	strb	r5, [r2, r3]
    8756:	bd70      	pop	{r4, r5, r6, pc}
    8758:	00008721 	.word	0x00008721

0000875c <stream_writer_send_buffer>:
    875c:	b570      	push	{r4, r5, r6, lr}
    875e:	0006      	movs	r6, r0
    8760:	000c      	movs	r4, r1
    8762:	188d      	adds	r5, r1, r2
    8764:	42ac      	cmp	r4, r5
    8766:	d100      	bne.n	876a <stream_writer_send_buffer+0xe>
    8768:	bd70      	pop	{r4, r5, r6, pc}
    876a:	2100      	movs	r1, #0
    876c:	0030      	movs	r0, r6
    876e:	5661      	ldrsb	r1, [r4, r1]
    8770:	4b01      	ldr	r3, [pc, #4]	; (8778 <stream_writer_send_buffer+0x1c>)
    8772:	4798      	blx	r3
    8774:	3401      	adds	r4, #1
    8776:	e7f5      	b.n	8764 <stream_writer_send_buffer+0x8>
    8778:	00008739 	.word	0x00008739

0000877c <sw_timer_tcc_callback>:
    877c:	4a02      	ldr	r2, [pc, #8]	; (8788 <sw_timer_tcc_callback+0xc>)
    877e:	6813      	ldr	r3, [r2, #0]
    8780:	3301      	adds	r3, #1
    8782:	6013      	str	r3, [r2, #0]
    8784:	4770      	bx	lr
    8786:	46c0      	nop			; (mov r8, r8)
    8788:	200002a0 	.word	0x200002a0

0000878c <sw_timer_get_config_defaults>:
    878c:	2364      	movs	r3, #100	; 0x64
    878e:	8043      	strh	r3, [r0, #2]
    8790:	2300      	movs	r3, #0
    8792:	7003      	strb	r3, [r0, #0]
    8794:	7043      	strb	r3, [r0, #1]
    8796:	4770      	bx	lr

00008798 <sw_timer_init>:
    8798:	b5f0      	push	{r4, r5, r6, r7, lr}
    879a:	b0af      	sub	sp, #188	; 0xbc
    879c:	ae02      	add	r6, sp, #8
    879e:	0032      	movs	r2, r6
    87a0:	000d      	movs	r5, r1
    87a2:	4b1b      	ldr	r3, [pc, #108]	; (8810 <sw_timer_init+0x78>)
    87a4:	3014      	adds	r0, #20
    87a6:	cb92      	ldmia	r3!, {r1, r4, r7}
    87a8:	c292      	stmia	r2!, {r1, r4, r7}
    87aa:	886b      	ldrh	r3, [r5, #2]
    87ac:	af05      	add	r7, sp, #20
    87ae:	6403      	str	r3, [r0, #64]	; 0x40
    87b0:	782b      	ldrb	r3, [r5, #0]
    87b2:	0004      	movs	r4, r0
    87b4:	009b      	lsls	r3, r3, #2
    87b6:	5999      	ldr	r1, [r3, r6]
    87b8:	0038      	movs	r0, r7
    87ba:	4b16      	ldr	r3, [pc, #88]	; (8814 <sw_timer_init+0x7c>)
    87bc:	4798      	blx	r3
    87be:	4b16      	ldr	r3, [pc, #88]	; (8818 <sw_timer_init+0x80>)
    87c0:	2000      	movs	r0, #0
    87c2:	4798      	blx	r3
    87c4:	4b15      	ldr	r3, [pc, #84]	; (881c <sw_timer_init+0x84>)
    87c6:	8869      	ldrh	r1, [r5, #2]
    87c8:	7a1b      	ldrb	r3, [r3, #8]
    87ca:	40d8      	lsrs	r0, r3
    87cc:	9001      	str	r0, [sp, #4]
    87ce:	20fa      	movs	r0, #250	; 0xfa
    87d0:	4b13      	ldr	r3, [pc, #76]	; (8820 <sw_timer_init+0x88>)
    87d2:	0200      	lsls	r0, r0, #8
    87d4:	4798      	blx	r3
    87d6:	4b13      	ldr	r3, [pc, #76]	; (8824 <sw_timer_init+0x8c>)
    87d8:	0001      	movs	r1, r0
    87da:	9801      	ldr	r0, [sp, #4]
    87dc:	4798      	blx	r3
    87de:	2305      	movs	r3, #5
    87e0:	72fb      	strb	r3, [r7, #11]
    87e2:	782b      	ldrb	r3, [r5, #0]
    87e4:	6078      	str	r0, [r7, #4]
    87e6:	009b      	lsls	r3, r3, #2
    87e8:	5999      	ldr	r1, [r3, r6]
    87ea:	003a      	movs	r2, r7
    87ec:	0020      	movs	r0, r4
    87ee:	4b0e      	ldr	r3, [pc, #56]	; (8828 <sw_timer_init+0x90>)
    87f0:	4798      	blx	r3
    87f2:	786a      	ldrb	r2, [r5, #1]
    87f4:	490d      	ldr	r1, [pc, #52]	; (882c <sw_timer_init+0x94>)
    87f6:	3208      	adds	r2, #8
    87f8:	b2d2      	uxtb	r2, r2
    87fa:	0020      	movs	r0, r4
    87fc:	4b0c      	ldr	r3, [pc, #48]	; (8830 <sw_timer_init+0x98>)
    87fe:	4798      	blx	r3
    8800:	7869      	ldrb	r1, [r5, #1]
    8802:	0020      	movs	r0, r4
    8804:	3108      	adds	r1, #8
    8806:	b2c9      	uxtb	r1, r1
    8808:	4b0a      	ldr	r3, [pc, #40]	; (8834 <sw_timer_init+0x9c>)
    880a:	4798      	blx	r3
    880c:	b02f      	add	sp, #188	; 0xbc
    880e:	bdf0      	pop	{r4, r5, r6, r7, pc}
    8810:	0000d7b0 	.word	0x0000d7b0
    8814:	00005815 	.word	0x00005815
    8818:	0000763d 	.word	0x0000763d
    881c:	40000400 	.word	0x40000400
    8820:	0000964d 	.word	0x0000964d
    8824:	00009539 	.word	0x00009539
    8828:	00005909 	.word	0x00005909
    882c:	0000877d 	.word	0x0000877d
    8830:	00005c45 	.word	0x00005c45
    8834:	00005c5d 	.word	0x00005c5d

00008838 <sw_timer_enable>:
    8838:	2302      	movs	r3, #2
    883a:	6942      	ldr	r2, [r0, #20]
    883c:	6891      	ldr	r1, [r2, #8]
    883e:	4219      	tst	r1, r3
    8840:	d1fc      	bne.n	883c <sw_timer_enable+0x4>
    8842:	6811      	ldr	r1, [r2, #0]
    8844:	430b      	orrs	r3, r1
    8846:	6013      	str	r3, [r2, #0]
    8848:	4770      	bx	lr
	...

0000884c <sw_timer_register_callback>:
    884c:	b570      	push	{r4, r5, r6, lr}
    884e:	0004      	movs	r4, r0
    8850:	7806      	ldrb	r6, [r0, #0]
    8852:	2001      	movs	r0, #1
    8854:	07f5      	lsls	r5, r6, #31
    8856:	0fed      	lsrs	r5, r5, #31
    8858:	4240      	negs	r0, r0
    885a:	2d00      	cmp	r5, #0
    885c:	d10e      	bne.n	887c <sw_timer_register_callback+0x30>
    885e:	6061      	str	r1, [r4, #4]
    8860:	2102      	movs	r1, #2
    8862:	438e      	bics	r6, r1
    8864:	60a2      	str	r2, [r4, #8]
    8866:	0018      	movs	r0, r3
    8868:	7026      	strb	r6, [r4, #0]
    886a:	4b05      	ldr	r3, [pc, #20]	; (8880 <sw_timer_register_callback+0x34>)
    886c:	6d61      	ldr	r1, [r4, #84]	; 0x54
    886e:	4798      	blx	r3
    8870:	2301      	movs	r3, #1
    8872:	60e0      	str	r0, [r4, #12]
    8874:	0028      	movs	r0, r5
    8876:	b2f2      	uxtb	r2, r6
    8878:	4313      	orrs	r3, r2
    887a:	7023      	strb	r3, [r4, #0]
    887c:	bd70      	pop	{r4, r5, r6, pc}
    887e:	46c0      	nop			; (mov r8, r8)
    8880:	00009539 	.word	0x00009539

00008884 <sw_timer_enable_callback>:
    8884:	2314      	movs	r3, #20
    8886:	b510      	push	{r4, lr}
    8888:	4359      	muls	r1, r3
    888a:	5c0c      	ldrb	r4, [r1, r0]
    888c:	3b12      	subs	r3, #18
    888e:	4323      	orrs	r3, r4
    8890:	540b      	strb	r3, [r1, r0]
    8892:	1844      	adds	r4, r0, r1
    8894:	4b04      	ldr	r3, [pc, #16]	; (88a8 <sw_timer_enable_callback+0x24>)
    8896:	6d41      	ldr	r1, [r0, #84]	; 0x54
    8898:	0010      	movs	r0, r2
    889a:	4798      	blx	r3
    889c:	4b03      	ldr	r3, [pc, #12]	; (88ac <sw_timer_enable_callback+0x28>)
    889e:	681b      	ldr	r3, [r3, #0]
    88a0:	18c0      	adds	r0, r0, r3
    88a2:	6120      	str	r0, [r4, #16]
    88a4:	bd10      	pop	{r4, pc}
    88a6:	46c0      	nop			; (mov r8, r8)
    88a8:	00009539 	.word	0x00009539
    88ac:	200002a0 	.word	0x200002a0

000088b0 <sw_timer_disable_callback>:
    88b0:	2314      	movs	r3, #20
    88b2:	2202      	movs	r2, #2
    88b4:	4359      	muls	r1, r3
    88b6:	5c0b      	ldrb	r3, [r1, r0]
    88b8:	4393      	bics	r3, r2
    88ba:	540b      	strb	r3, [r1, r0]
    88bc:	4770      	bx	lr
	...

000088c0 <sw_timer_task>:
    88c0:	b570      	push	{r4, r5, r6, lr}
    88c2:	7801      	ldrb	r1, [r0, #0]
    88c4:	0004      	movs	r4, r0
    88c6:	07cb      	lsls	r3, r1, #31
    88c8:	d51b      	bpl.n	8902 <sw_timer_task+0x42>
    88ca:	078b      	lsls	r3, r1, #30
    88cc:	d519      	bpl.n	8902 <sw_timer_task+0x42>
    88ce:	4b0f      	ldr	r3, [pc, #60]	; (890c <sw_timer_task+0x4c>)
    88d0:	681a      	ldr	r2, [r3, #0]
    88d2:	6903      	ldr	r3, [r0, #16]
    88d4:	1a9b      	subs	r3, r3, r2
    88d6:	d514      	bpl.n	8902 <sw_timer_task+0x42>
    88d8:	2304      	movs	r3, #4
    88da:	4219      	tst	r1, r3
    88dc:	d111      	bne.n	8902 <sw_timer_task+0x42>
    88de:	430b      	orrs	r3, r1
    88e0:	7003      	strb	r3, [r0, #0]
    88e2:	68c3      	ldr	r3, [r0, #12]
    88e4:	2b00      	cmp	r3, #0
    88e6:	d10d      	bne.n	8904 <sw_timer_task+0x44>
    88e8:	2102      	movs	r1, #2
    88ea:	7802      	ldrb	r2, [r0, #0]
    88ec:	438a      	bics	r2, r1
    88ee:	7002      	strb	r2, [r0, #0]
    88f0:	68a2      	ldr	r2, [r4, #8]
    88f2:	2100      	movs	r1, #0
    88f4:	0020      	movs	r0, r4
    88f6:	6865      	ldr	r5, [r4, #4]
    88f8:	47a8      	blx	r5
    88fa:	2204      	movs	r2, #4
    88fc:	7823      	ldrb	r3, [r4, #0]
    88fe:	4393      	bics	r3, r2
    8900:	7023      	strb	r3, [r4, #0]
    8902:	bd70      	pop	{r4, r5, r6, pc}
    8904:	18d2      	adds	r2, r2, r3
    8906:	6102      	str	r2, [r0, #16]
    8908:	e7f2      	b.n	88f0 <sw_timer_task+0x30>
    890a:	46c0      	nop			; (mov r8, r8)
    890c:	200002a0 	.word	0x200002a0

00008910 <clear_state>:
    8910:	4a02      	ldr	r2, [pc, #8]	; (891c <clear_state+0xc>)
    8912:	7813      	ldrb	r3, [r2, #0]
    8914:	4383      	bics	r3, r0
    8916:	7013      	strb	r3, [r2, #0]
    8918:	4770      	bx	lr
    891a:	46c0      	nop			; (mov r8, r8)
    891c:	200002d8 	.word	0x200002d8

00008920 <add_state>:
    8920:	4b02      	ldr	r3, [pc, #8]	; (892c <add_state+0xc>)
    8922:	781a      	ldrb	r2, [r3, #0]
    8924:	4310      	orrs	r0, r2
    8926:	7018      	strb	r0, [r3, #0]
    8928:	4770      	bx	lr
    892a:	46c0      	nop			; (mov r8, r8)
    892c:	200002d8 	.word	0x200002d8

00008930 <resolve_cb>:
    8930:	b573      	push	{r0, r1, r4, r5, r6, lr}
    8932:	000c      	movs	r4, r1
    8934:	0005      	movs	r5, r0
    8936:	20ff      	movs	r0, #255	; 0xff
    8938:	000a      	movs	r2, r1
    893a:	0a0b      	lsrs	r3, r1, #8
    893c:	0e09      	lsrs	r1, r1, #24
    893e:	9101      	str	r1, [sp, #4]
    8940:	0c21      	lsrs	r1, r4, #16
    8942:	4001      	ands	r1, r0
    8944:	4002      	ands	r2, r0
    8946:	4003      	ands	r3, r0
    8948:	9100      	str	r1, [sp, #0]
    894a:	4e04      	ldr	r6, [pc, #16]	; (895c <resolve_cb+0x2c>)
    894c:	0029      	movs	r1, r5
    894e:	4804      	ldr	r0, [pc, #16]	; (8960 <resolve_cb+0x30>)
    8950:	47b0      	blx	r6
    8952:	0028      	movs	r0, r5
    8954:	0021      	movs	r1, r4
    8956:	4b03      	ldr	r3, [pc, #12]	; (8964 <resolve_cb+0x34>)
    8958:	4798      	blx	r3
    895a:	bd73      	pop	{r0, r1, r4, r5, r6, pc}
    895c:	0000b36d 	.word	0x0000b36d
    8960:	0000da7e 	.word	0x0000da7e
    8964:	00007bd5 	.word	0x00007bd5

00008968 <socket_cb>:
    8968:	b510      	push	{r4, lr}
    896a:	4b01      	ldr	r3, [pc, #4]	; (8970 <socket_cb+0x8>)
    896c:	4798      	blx	r3
    896e:	bd10      	pop	{r4, pc}
    8970:	0000864d 	.word	0x0000864d

00008974 <usart_serial_getchar>:
    8974:	b573      	push	{r0, r1, r4, r5, r6, lr}
    8976:	466b      	mov	r3, sp
    8978:	1d9c      	adds	r4, r3, #6
    897a:	2300      	movs	r3, #0
    897c:	0006      	movs	r6, r0
    897e:	000d      	movs	r5, r1
    8980:	8023      	strh	r3, [r4, #0]
    8982:	0021      	movs	r1, r4
    8984:	0030      	movs	r0, r6
    8986:	4b03      	ldr	r3, [pc, #12]	; (8994 <usart_serial_getchar+0x20>)
    8988:	4798      	blx	r3
    898a:	2800      	cmp	r0, #0
    898c:	d1f9      	bne.n	8982 <usart_serial_getchar+0xe>
    898e:	8823      	ldrh	r3, [r4, #0]
    8990:	702b      	strb	r3, [r5, #0]
    8992:	bd73      	pop	{r0, r1, r4, r5, r6, pc}
    8994:	00006f69 	.word	0x00006f69

00008998 <usart_serial_putchar>:
    8998:	b570      	push	{r4, r5, r6, lr}
    899a:	0004      	movs	r4, r0
    899c:	000d      	movs	r5, r1
    899e:	b2a9      	uxth	r1, r5
    89a0:	0020      	movs	r0, r4
    89a2:	4b02      	ldr	r3, [pc, #8]	; (89ac <usart_serial_putchar+0x14>)
    89a4:	4798      	blx	r3
    89a6:	2800      	cmp	r0, #0
    89a8:	d1f9      	bne.n	899e <usart_serial_putchar+0x6>
    89aa:	bd70      	pop	{r4, r5, r6, pc}
    89ac:	00006f39 	.word	0x00006f39

000089b0 <sendHttpReq_metadata>:
    89b0:	b513      	push	{r0, r1, r4, lr}
    89b2:	4b0c      	ldr	r3, [pc, #48]	; (89e4 <sendHttpReq_metadata+0x34>)
    89b4:	480c      	ldr	r0, [pc, #48]	; (89e8 <sendHttpReq_metadata+0x38>)
    89b6:	781c      	ldrb	r4, [r3, #0]
    89b8:	4b0c      	ldr	r3, [pc, #48]	; (89ec <sendHttpReq_metadata+0x3c>)
    89ba:	07a2      	lsls	r2, r4, #30
    89bc:	d506      	bpl.n	89cc <sendHttpReq_metadata+0x1c>
    89be:	480c      	ldr	r0, [pc, #48]	; (89f0 <sendHttpReq_metadata+0x40>)
    89c0:	0762      	lsls	r2, r4, #29
    89c2:	d403      	bmi.n	89cc <sendHttpReq_metadata+0x1c>
    89c4:	2208      	movs	r2, #8
    89c6:	4014      	ands	r4, r2
    89c8:	d002      	beq.n	89d0 <sendHttpReq_metadata+0x20>
    89ca:	480a      	ldr	r0, [pc, #40]	; (89f4 <sendHttpReq_metadata+0x44>)
    89cc:	4798      	blx	r3
    89ce:	bd13      	pop	{r0, r1, r4, pc}
    89d0:	4809      	ldr	r0, [pc, #36]	; (89f8 <sendHttpReq_metadata+0x48>)
    89d2:	4798      	blx	r3
    89d4:	9400      	str	r4, [sp, #0]
    89d6:	0023      	movs	r3, r4
    89d8:	2201      	movs	r2, #1
    89da:	4908      	ldr	r1, [pc, #32]	; (89fc <sendHttpReq_metadata+0x4c>)
    89dc:	4c08      	ldr	r4, [pc, #32]	; (8a00 <sendHttpReq_metadata+0x50>)
    89de:	4809      	ldr	r0, [pc, #36]	; (8a04 <sendHttpReq_metadata+0x54>)
    89e0:	47a0      	blx	r4
    89e2:	e7f4      	b.n	89ce <sendHttpReq_metadata+0x1e>
    89e4:	200002d8 	.word	0x200002d8
    89e8:	0000dad9 	.word	0x0000dad9
    89ec:	0000b489 	.word	0x0000b489
    89f0:	0000db02 	.word	0x0000db02
    89f4:	0000db2c 	.word	0x0000db2c
    89f8:	0000db57 	.word	0x0000db57
    89fc:	0000db80 	.word	0x0000db80
    8a00:	00008019 	.word	0x00008019
    8a04:	20001928 	.word	0x20001928

00008a08 <sendHttpReq_firmware>:
    8a08:	2200      	movs	r2, #0
    8a0a:	b513      	push	{r0, r1, r4, lr}
    8a0c:	4b0d      	ldr	r3, [pc, #52]	; (8a44 <sendHttpReq_firmware+0x3c>)
    8a0e:	480e      	ldr	r0, [pc, #56]	; (8a48 <sendHttpReq_firmware+0x40>)
    8a10:	601a      	str	r2, [r3, #0]
    8a12:	4b0e      	ldr	r3, [pc, #56]	; (8a4c <sendHttpReq_firmware+0x44>)
    8a14:	781c      	ldrb	r4, [r3, #0]
    8a16:	4b0e      	ldr	r3, [pc, #56]	; (8a50 <sendHttpReq_firmware+0x48>)
    8a18:	07a2      	lsls	r2, r4, #30
    8a1a:	d506      	bpl.n	8a2a <sendHttpReq_firmware+0x22>
    8a1c:	480d      	ldr	r0, [pc, #52]	; (8a54 <sendHttpReq_firmware+0x4c>)
    8a1e:	0762      	lsls	r2, r4, #29
    8a20:	d403      	bmi.n	8a2a <sendHttpReq_firmware+0x22>
    8a22:	2208      	movs	r2, #8
    8a24:	4014      	ands	r4, r2
    8a26:	d002      	beq.n	8a2e <sendHttpReq_firmware+0x26>
    8a28:	480b      	ldr	r0, [pc, #44]	; (8a58 <sendHttpReq_firmware+0x50>)
    8a2a:	4798      	blx	r3
    8a2c:	bd13      	pop	{r0, r1, r4, pc}
    8a2e:	480b      	ldr	r0, [pc, #44]	; (8a5c <sendHttpReq_firmware+0x54>)
    8a30:	4798      	blx	r3
    8a32:	9400      	str	r4, [sp, #0]
    8a34:	0023      	movs	r3, r4
    8a36:	2201      	movs	r2, #1
    8a38:	4909      	ldr	r1, [pc, #36]	; (8a60 <sendHttpReq_firmware+0x58>)
    8a3a:	4c0a      	ldr	r4, [pc, #40]	; (8a64 <sendHttpReq_firmware+0x5c>)
    8a3c:	480a      	ldr	r0, [pc, #40]	; (8a68 <sendHttpReq_firmware+0x60>)
    8a3e:	47a0      	blx	r4
    8a40:	e7f4      	b.n	8a2c <sendHttpReq_firmware+0x24>
    8a42:	46c0      	nop			; (mov r8, r8)
    8a44:	200012e4 	.word	0x200012e4
    8a48:	0000dad9 	.word	0x0000dad9
    8a4c:	200002d8 	.word	0x200002d8
    8a50:	0000b489 	.word	0x0000b489
    8a54:	0000db02 	.word	0x0000db02
    8a58:	0000db2c 	.word	0x0000db2c
    8a5c:	0000db57 	.word	0x0000db57
    8a60:	0000daab 	.word	0x0000daab
    8a64:	00008019 	.word	0x00008019
    8a68:	20001928 	.word	0x20001928

00008a6c <wifi_cb>:
    8a6c:	b537      	push	{r0, r1, r2, r4, r5, lr}
    8a6e:	282c      	cmp	r0, #44	; 0x2c
    8a70:	d002      	beq.n	8a78 <wifi_cb+0xc>
    8a72:	2832      	cmp	r0, #50	; 0x32
    8a74:	d025      	beq.n	8ac2 <wifi_cb+0x56>
    8a76:	bd37      	pop	{r0, r1, r2, r4, r5, pc}
    8a78:	780b      	ldrb	r3, [r1, #0]
    8a7a:	2b01      	cmp	r3, #1
    8a7c:	d105      	bne.n	8a8a <wifi_cb+0x1e>
    8a7e:	4b17      	ldr	r3, [pc, #92]	; (8adc <wifi_cb+0x70>)
    8a80:	4817      	ldr	r0, [pc, #92]	; (8ae0 <wifi_cb+0x74>)
    8a82:	4798      	blx	r3
    8a84:	4b17      	ldr	r3, [pc, #92]	; (8ae4 <wifi_cb+0x78>)
    8a86:	4798      	blx	r3
    8a88:	e7f5      	b.n	8a76 <wifi_cb+0xa>
    8a8a:	2b00      	cmp	r3, #0
    8a8c:	d1f3      	bne.n	8a76 <wifi_cb+0xa>
    8a8e:	4b13      	ldr	r3, [pc, #76]	; (8adc <wifi_cb+0x70>)
    8a90:	4815      	ldr	r0, [pc, #84]	; (8ae8 <wifi_cb+0x7c>)
    8a92:	4798      	blx	r3
    8a94:	2002      	movs	r0, #2
    8a96:	4c15      	ldr	r4, [pc, #84]	; (8aec <wifi_cb+0x80>)
    8a98:	47a0      	blx	r4
    8a9a:	2008      	movs	r0, #8
    8a9c:	4d14      	ldr	r5, [pc, #80]	; (8af0 <wifi_cb+0x84>)
    8a9e:	782b      	ldrb	r3, [r5, #0]
    8aa0:	4203      	tst	r3, r0
    8aa2:	d000      	beq.n	8aa6 <wifi_cb+0x3a>
    8aa4:	47a0      	blx	r4
    8aa6:	2004      	movs	r0, #4
    8aa8:	782b      	ldrb	r3, [r5, #0]
    8aaa:	4203      	tst	r3, r0
    8aac:	d000      	beq.n	8ab0 <wifi_cb+0x44>
    8aae:	47a0      	blx	r4
    8ab0:	23ff      	movs	r3, #255	; 0xff
    8ab2:	2202      	movs	r2, #2
    8ab4:	9300      	str	r3, [sp, #0]
    8ab6:	2112      	movs	r1, #18
    8ab8:	4b0e      	ldr	r3, [pc, #56]	; (8af4 <wifi_cb+0x88>)
    8aba:	4c0f      	ldr	r4, [pc, #60]	; (8af8 <wifi_cb+0x8c>)
    8abc:	480f      	ldr	r0, [pc, #60]	; (8afc <wifi_cb+0x90>)
    8abe:	47a0      	blx	r4
    8ac0:	e7d9      	b.n	8a76 <wifi_cb+0xa>
    8ac2:	7808      	ldrb	r0, [r1, #0]
    8ac4:	788b      	ldrb	r3, [r1, #2]
    8ac6:	784a      	ldrb	r2, [r1, #1]
    8ac8:	78c9      	ldrb	r1, [r1, #3]
    8aca:	4c0d      	ldr	r4, [pc, #52]	; (8b00 <wifi_cb+0x94>)
    8acc:	9100      	str	r1, [sp, #0]
    8ace:	0001      	movs	r1, r0
    8ad0:	480c      	ldr	r0, [pc, #48]	; (8b04 <wifi_cb+0x98>)
    8ad2:	47a0      	blx	r4
    8ad4:	2002      	movs	r0, #2
    8ad6:	4b0c      	ldr	r3, [pc, #48]	; (8b08 <wifi_cb+0x9c>)
    8ad8:	4798      	blx	r3
    8ada:	e7cc      	b.n	8a76 <wifi_cb+0xa>
    8adc:	0000b489 	.word	0x0000b489
    8ae0:	0000dbd7 	.word	0x0000dbd7
    8ae4:	000036d1 	.word	0x000036d1
    8ae8:	0000dbf4 	.word	0x0000dbf4
    8aec:	00008911 	.word	0x00008911
    8af0:	200002d8 	.word	0x200002d8
    8af4:	0000dc14 	.word	0x0000dc14
    8af8:	000036b9 	.word	0x000036b9
    8afc:	0000dc21 	.word	0x0000dc21
    8b00:	0000b36d 	.word	0x0000b36d
    8b04:	0000dc33 	.word	0x0000dc33
    8b08:	00008921 	.word	0x00008921

00008b0c <http_client_metadata_req_callback>:
    8b0c:	b5f7      	push	{r0, r1, r2, r4, r5, r6, r7, lr}
    8b0e:	0014      	movs	r4, r2
    8b10:	2904      	cmp	r1, #4
    8b12:	d808      	bhi.n	8b26 <http_client_metadata_req_callback+0x1a>
    8b14:	0008      	movs	r0, r1
    8b16:	f000 fd05 	bl	9524 <__gnu_thumb1_case_uqi>
    8b1a:	1403      	.short	0x1403
    8b1c:	431b      	.short	0x431b
    8b1e:	5e          	.byte	0x5e
    8b1f:	00          	.byte	0x00
    8b20:	4844      	ldr	r0, [pc, #272]	; (8c34 <http_client_metadata_req_callback+0x128>)
    8b22:	4b45      	ldr	r3, [pc, #276]	; (8c38 <http_client_metadata_req_callback+0x12c>)
    8b24:	4798      	blx	r3
    8b26:	4b45      	ldr	r3, [pc, #276]	; (8c3c <http_client_metadata_req_callback+0x130>)
    8b28:	781b      	ldrb	r3, [r3, #0]
    8b2a:	06db      	lsls	r3, r3, #27
    8b2c:	d51d      	bpl.n	8b6a <http_client_metadata_req_callback+0x5e>
    8b2e:	4a44      	ldr	r2, [pc, #272]	; (8c40 <http_client_metadata_req_callback+0x134>)
    8b30:	2300      	movs	r3, #0
    8b32:	7810      	ldrb	r0, [r2, #0]
    8b34:	4943      	ldr	r1, [pc, #268]	; (8c44 <http_client_metadata_req_callback+0x138>)
    8b36:	2856      	cmp	r0, #86	; 0x56
    8b38:	d064      	beq.n	8c04 <http_client_metadata_req_callback+0xf8>
    8b3a:	4b3f      	ldr	r3, [pc, #252]	; (8c38 <http_client_metadata_req_callback+0x12c>)
    8b3c:	4842      	ldr	r0, [pc, #264]	; (8c48 <http_client_metadata_req_callback+0x13c>)
    8b3e:	4798      	blx	r3
    8b40:	e013      	b.n	8b6a <http_client_metadata_req_callback+0x5e>
    8b42:	4842      	ldr	r0, [pc, #264]	; (8c4c <http_client_metadata_req_callback+0x140>)
    8b44:	4b3c      	ldr	r3, [pc, #240]	; (8c38 <http_client_metadata_req_callback+0x12c>)
    8b46:	4798      	blx	r3
    8b48:	2004      	movs	r0, #4
    8b4a:	4b41      	ldr	r3, [pc, #260]	; (8c50 <http_client_metadata_req_callback+0x144>)
    8b4c:	4798      	blx	r3
    8b4e:	e7ea      	b.n	8b26 <http_client_metadata_req_callback+0x1a>
    8b50:	8811      	ldrh	r1, [r2, #0]
    8b52:	4840      	ldr	r0, [pc, #256]	; (8c54 <http_client_metadata_req_callback+0x148>)
    8b54:	6852      	ldr	r2, [r2, #4]
    8b56:	4d40      	ldr	r5, [pc, #256]	; (8c58 <http_client_metadata_req_callback+0x14c>)
    8b58:	47a8      	blx	r5
    8b5a:	8823      	ldrh	r3, [r4, #0]
    8b5c:	2bc8      	cmp	r3, #200	; 0xc8
    8b5e:	d005      	beq.n	8b6c <http_client_metadata_req_callback+0x60>
    8b60:	483e      	ldr	r0, [pc, #248]	; (8c5c <http_client_metadata_req_callback+0x150>)
    8b62:	47a8      	blx	r5
    8b64:	2020      	movs	r0, #32
    8b66:	4b3a      	ldr	r3, [pc, #232]	; (8c50 <http_client_metadata_req_callback+0x144>)
    8b68:	4798      	blx	r3
    8b6a:	bdf7      	pop	{r0, r1, r2, r4, r5, r6, r7, pc}
    8b6c:	6865      	ldr	r5, [r4, #4]
    8b6e:	4b3c      	ldr	r3, [pc, #240]	; (8c60 <http_client_metadata_req_callback+0x154>)
    8b70:	429d      	cmp	r5, r3
    8b72:	d8d8      	bhi.n	8b26 <http_client_metadata_req_callback+0x1a>
    8b74:	68a7      	ldr	r7, [r4, #8]
    8b76:	2201      	movs	r2, #1
    8b78:	2400      	movs	r4, #0
    8b7a:	4694      	mov	ip, r2
    8b7c:	0023      	movs	r3, r4
    8b7e:	4830      	ldr	r0, [pc, #192]	; (8c40 <http_client_metadata_req_callback+0x134>)
    8b80:	4938      	ldr	r1, [pc, #224]	; (8c64 <http_client_metadata_req_callback+0x158>)
    8b82:	5a46      	ldrh	r6, [r0, r1]
    8b84:	18f2      	adds	r2, r6, r3
    8b86:	b292      	uxth	r2, r2
    8b88:	42ab      	cmp	r3, r5
    8b8a:	d104      	bne.n	8b96 <http_client_metadata_req_callback+0x8a>
    8b8c:	2c00      	cmp	r4, #0
    8b8e:	d000      	beq.n	8b92 <http_client_metadata_req_callback+0x86>
    8b90:	5242      	strh	r2, [r0, r1]
    8b92:	2010      	movs	r0, #16
    8b94:	e7d9      	b.n	8b4a <http_client_metadata_req_callback+0x3e>
    8b96:	5cfc      	ldrb	r4, [r7, r3]
    8b98:	3301      	adds	r3, #1
    8b9a:	5484      	strb	r4, [r0, r2]
    8b9c:	4664      	mov	r4, ip
    8b9e:	e7f1      	b.n	8b84 <http_client_metadata_req_callback+0x78>
    8ba0:	6857      	ldr	r7, [r2, #4]
    8ba2:	6815      	ldr	r5, [r2, #0]
    8ba4:	4926      	ldr	r1, [pc, #152]	; (8c40 <http_client_metadata_req_callback+0x134>)
    8ba6:	4a2f      	ldr	r2, [pc, #188]	; (8c64 <http_client_metadata_req_callback+0x158>)
    8ba8:	2000      	movs	r0, #0
    8baa:	5a8e      	ldrh	r6, [r1, r2]
    8bac:	9201      	str	r2, [sp, #4]
    8bae:	2201      	movs	r2, #1
    8bb0:	0003      	movs	r3, r0
    8bb2:	4694      	mov	ip, r2
    8bb4:	18f2      	adds	r2, r6, r3
    8bb6:	b292      	uxth	r2, r2
    8bb8:	42ab      	cmp	r3, r5
    8bba:	d107      	bne.n	8bcc <http_client_metadata_req_callback+0xc0>
    8bbc:	2800      	cmp	r0, #0
    8bbe:	d001      	beq.n	8bc4 <http_client_metadata_req_callback+0xb8>
    8bc0:	9b01      	ldr	r3, [sp, #4]
    8bc2:	52ca      	strh	r2, [r1, r3]
    8bc4:	7a23      	ldrb	r3, [r4, #8]
    8bc6:	2b00      	cmp	r3, #0
    8bc8:	d0ad      	beq.n	8b26 <http_client_metadata_req_callback+0x1a>
    8bca:	e7e2      	b.n	8b92 <http_client_metadata_req_callback+0x86>
    8bcc:	5cf8      	ldrb	r0, [r7, r3]
    8bce:	3301      	adds	r3, #1
    8bd0:	5488      	strb	r0, [r1, r2]
    8bd2:	4660      	mov	r0, ip
    8bd4:	e7ee      	b.n	8bb4 <http_client_metadata_req_callback+0xa8>
    8bd6:	4b20      	ldr	r3, [pc, #128]	; (8c58 <http_client_metadata_req_callback+0x14c>)
    8bd8:	6811      	ldr	r1, [r2, #0]
    8bda:	4823      	ldr	r0, [pc, #140]	; (8c68 <http_client_metadata_req_callback+0x15c>)
    8bdc:	4798      	blx	r3
    8bde:	6823      	ldr	r3, [r4, #0]
    8be0:	330b      	adds	r3, #11
    8be2:	d1a0      	bne.n	8b26 <http_client_metadata_req_callback+0x1a>
    8be4:	2008      	movs	r0, #8
    8be6:	4c15      	ldr	r4, [pc, #84]	; (8c3c <http_client_metadata_req_callback+0x130>)
    8be8:	7823      	ldrb	r3, [r4, #0]
    8bea:	4203      	tst	r3, r0
    8bec:	d001      	beq.n	8bf2 <http_client_metadata_req_callback+0xe6>
    8bee:	4b1f      	ldr	r3, [pc, #124]	; (8c6c <http_client_metadata_req_callback+0x160>)
    8bf0:	4798      	blx	r3
    8bf2:	2004      	movs	r0, #4
    8bf4:	7823      	ldrb	r3, [r4, #0]
    8bf6:	4203      	tst	r3, r0
    8bf8:	d001      	beq.n	8bfe <http_client_metadata_req_callback+0xf2>
    8bfa:	4b1c      	ldr	r3, [pc, #112]	; (8c6c <http_client_metadata_req_callback+0x160>)
    8bfc:	4798      	blx	r3
    8bfe:	4b1c      	ldr	r3, [pc, #112]	; (8c70 <http_client_metadata_req_callback+0x164>)
    8c00:	4798      	blx	r3
    8c02:	e790      	b.n	8b26 <http_client_metadata_req_callback+0x1a>
    8c04:	3301      	adds	r3, #1
    8c06:	5cd4      	ldrb	r4, [r2, r3]
    8c08:	1e58      	subs	r0, r3, #1
    8c0a:	540c      	strb	r4, [r1, r0]
    8c0c:	2b06      	cmp	r3, #6
    8c0e:	d1f9      	bne.n	8c04 <http_client_metadata_req_callback+0xf8>
    8c10:	2300      	movs	r3, #0
    8c12:	4d18      	ldr	r5, [pc, #96]	; (8c74 <http_client_metadata_req_callback+0x168>)
    8c14:	718b      	strb	r3, [r1, #6]
    8c16:	18d0      	adds	r0, r2, r3
    8c18:	7a00      	ldrb	r0, [r0, #8]
    8c1a:	5558      	strb	r0, [r3, r5]
    8c1c:	3301      	adds	r3, #1
    8c1e:	2b08      	cmp	r3, #8
    8c20:	d1f9      	bne.n	8c16 <http_client_metadata_req_callback+0x10a>
    8c22:	2300      	movs	r3, #0
    8c24:	4c0c      	ldr	r4, [pc, #48]	; (8c58 <http_client_metadata_req_callback+0x14c>)
    8c26:	4814      	ldr	r0, [pc, #80]	; (8c78 <http_client_metadata_req_callback+0x16c>)
    8c28:	722b      	strb	r3, [r5, #8]
    8c2a:	47a0      	blx	r4
    8c2c:	0029      	movs	r1, r5
    8c2e:	4813      	ldr	r0, [pc, #76]	; (8c7c <http_client_metadata_req_callback+0x170>)
    8c30:	47a0      	blx	r4
    8c32:	e79a      	b.n	8b6a <http_client_metadata_req_callback+0x5e>
    8c34:	0000d930 	.word	0x0000d930
    8c38:	0000b489 	.word	0x0000b489
    8c3c:	200002d8 	.word	0x200002d8
    8c40:	200012e8 	.word	0x200012e8
    8c44:	200016f5 	.word	0x200016f5
    8c48:	0000da0c 	.word	0x0000da0c
    8c4c:	0000d965 	.word	0x0000d965
    8c50:	00008921 	.word	0x00008921
    8c54:	0000d98f 	.word	0x0000d98f
    8c58:	0000b36d 	.word	0x0000b36d
    8c5c:	0000d9c9 	.word	0x0000d9c9
    8c60:	000005a6 	.word	0x000005a6
    8c64:	00000402 	.word	0x00000402
    8c68:	0000d9dc 	.word	0x0000d9dc
    8c6c:	00008911 	.word	0x00008911
    8c70:	000089b1 	.word	0x000089b1
    8c74:	200016ec 	.word	0x200016ec
    8c78:	0000da31 	.word	0x0000da31
    8c7c:	0000da48 	.word	0x0000da48

00008c80 <i2c_init>:
    8c80:	2280      	movs	r2, #128	; 0x80
    8c82:	2364      	movs	r3, #100	; 0x64
    8c84:	b530      	push	{r4, r5, lr}
    8c86:	b08f      	sub	sp, #60	; 0x3c
    8c88:	ac01      	add	r4, sp, #4
    8c8a:	0392      	lsls	r2, r2, #14
    8c8c:	6122      	str	r2, [r4, #16]
    8c8e:	2201      	movs	r2, #1
    8c90:	9301      	str	r3, [sp, #4]
    8c92:	4b1b      	ldr	r3, [pc, #108]	; (8d00 <i2c_init+0x80>)
    8c94:	4252      	negs	r2, r2
    8c96:	6063      	str	r3, [r4, #4]
    8c98:	2300      	movs	r3, #0
    8c9a:	82e2      	strh	r2, [r4, #22]
    8c9c:	82a2      	strh	r2, [r4, #20]
    8c9e:	320a      	adds	r2, #10
    8ca0:	446a      	add	r2, sp
    8ca2:	77d3      	strb	r3, [r2, #31]
    8ca4:	aa0c      	add	r2, sp, #48	; 0x30
    8ca6:	7013      	strb	r3, [r2, #0]
    8ca8:	2231      	movs	r2, #49	; 0x31
    8caa:	446a      	add	r2, sp
    8cac:	7013      	strb	r3, [r2, #0]
    8cae:	2232      	movs	r2, #50	; 0x32
    8cb0:	446a      	add	r2, sp
    8cb2:	60a3      	str	r3, [r4, #8]
    8cb4:	7323      	strb	r3, [r4, #12]
    8cb6:	7623      	strb	r3, [r4, #24]
    8cb8:	62a3      	str	r3, [r4, #40]	; 0x28
    8cba:	7013      	strb	r3, [r2, #0]
    8cbc:	33d7      	adds	r3, #215	; 0xd7
    8cbe:	8623      	strh	r3, [r4, #48]	; 0x30
    8cc0:	4b10      	ldr	r3, [pc, #64]	; (8d04 <i2c_init+0x84>)
    8cc2:	61e3      	str	r3, [r4, #28]
    8cc4:	4b10      	ldr	r3, [pc, #64]	; (8d08 <i2c_init+0x88>)
    8cc6:	6223      	str	r3, [r4, #32]
    8cc8:	4d10      	ldr	r5, [pc, #64]	; (8d0c <i2c_init+0x8c>)
    8cca:	0022      	movs	r2, r4
    8ccc:	4910      	ldr	r1, [pc, #64]	; (8d10 <i2c_init+0x90>)
    8cce:	0028      	movs	r0, r5
    8cd0:	4b10      	ldr	r3, [pc, #64]	; (8d14 <i2c_init+0x94>)
    8cd2:	4798      	blx	r3
    8cd4:	2800      	cmp	r0, #0
    8cd6:	d1f7      	bne.n	8cc8 <i2c_init+0x48>
    8cd8:	2107      	movs	r1, #7
    8cda:	682a      	ldr	r2, [r5, #0]
    8cdc:	69d3      	ldr	r3, [r2, #28]
    8cde:	400b      	ands	r3, r1
    8ce0:	d1fc      	bne.n	8cdc <i2c_init+0x5c>
    8ce2:	2102      	movs	r1, #2
    8ce4:	6810      	ldr	r0, [r2, #0]
    8ce6:	4301      	orrs	r1, r0
    8ce8:	6011      	str	r1, [r2, #0]
    8cea:	2110      	movs	r1, #16
    8cec:	88ec      	ldrh	r4, [r5, #6]
    8cee:	8b50      	ldrh	r0, [r2, #26]
    8cf0:	4208      	tst	r0, r1
    8cf2:	d103      	bne.n	8cfc <i2c_init+0x7c>
    8cf4:	3301      	adds	r3, #1
    8cf6:	42a3      	cmp	r3, r4
    8cf8:	d3f9      	bcc.n	8cee <i2c_init+0x6e>
    8cfa:	8351      	strh	r1, [r2, #26]
    8cfc:	b00f      	add	sp, #60	; 0x3c
    8cfe:	bd30      	pop	{r4, r5, pc}
    8d00:	00000d48 	.word	0x00000d48
    8d04:	00160002 	.word	0x00160002
    8d08:	00170002 	.word	0x00170002
    8d0c:	20001a10 	.word	0x20001a10
    8d10:	42001400 	.word	0x42001400
    8d14:	00005281 	.word	0x00005281

00008d18 <lp3944_init>:
    8d18:	2301      	movs	r3, #1
    8d1a:	b507      	push	{r0, r1, r2, lr}
    8d1c:	2200      	movs	r2, #0
    8d1e:	a901      	add	r1, sp, #4
    8d20:	704b      	strb	r3, [r1, #1]
    8d22:	700b      	strb	r3, [r1, #0]
    8d24:	2022      	movs	r0, #34	; 0x22
    8d26:	4b03      	ldr	r3, [pc, #12]	; (8d34 <lp3944_init+0x1c>)
    8d28:	708a      	strb	r2, [r1, #2]
    8d2a:	4798      	blx	r3
    8d2c:	2204      	movs	r2, #4
    8d2e:	4b02      	ldr	r3, [pc, #8]	; (8d38 <lp3944_init+0x20>)
    8d30:	601a      	str	r2, [r3, #0]
    8d32:	bd07      	pop	{r0, r1, r2, pc}
    8d34:	000062a1 	.word	0x000062a1
    8d38:	41004498 	.word	0x41004498

00008d3c <dd_flash_read_data>:
    8d3c:	b5f8      	push	{r3, r4, r5, r6, r7, lr}
    8d3e:	4c0a      	ldr	r4, [pc, #40]	; (8d68 <dd_flash_read_data+0x2c>)
    8d40:	0006      	movs	r6, r0
    8d42:	4b0a      	ldr	r3, [pc, #40]	; (8d6c <dd_flash_read_data+0x30>)
    8d44:	0020      	movs	r0, r4
    8d46:	000f      	movs	r7, r1
    8d48:	0015      	movs	r5, r2
    8d4a:	4798      	blx	r3
    8d4c:	2800      	cmp	r0, #0
    8d4e:	d10a      	bne.n	8d66 <dd_flash_read_data+0x2a>
    8d50:	b2ab      	uxth	r3, r5
    8d52:	003a      	movs	r2, r7
    8d54:	0031      	movs	r1, r6
    8d56:	0020      	movs	r0, r4
    8d58:	4d05      	ldr	r5, [pc, #20]	; (8d70 <dd_flash_read_data+0x34>)
    8d5a:	47a8      	blx	r5
    8d5c:	2800      	cmp	r0, #0
    8d5e:	d102      	bne.n	8d66 <dd_flash_read_data+0x2a>
    8d60:	0020      	movs	r0, r4
    8d62:	4b04      	ldr	r3, [pc, #16]	; (8d74 <dd_flash_read_data+0x38>)
    8d64:	4798      	blx	r3
    8d66:	bdf8      	pop	{r3, r4, r5, r6, r7, pc}
    8d68:	200018c8 	.word	0x200018c8
    8d6c:	0000254d 	.word	0x0000254d
    8d70:	000022e9 	.word	0x000022e9
    8d74:	0000251d 	.word	0x0000251d

00008d78 <dd_flash_write_data>:
    8d78:	b5f8      	push	{r3, r4, r5, r6, r7, lr}
    8d7a:	4c19      	ldr	r4, [pc, #100]	; (8de0 <dd_flash_write_data+0x68>)
    8d7c:	0006      	movs	r6, r0
    8d7e:	4b19      	ldr	r3, [pc, #100]	; (8de4 <dd_flash_write_data+0x6c>)
    8d80:	0020      	movs	r0, r4
    8d82:	000f      	movs	r7, r1
    8d84:	0015      	movs	r5, r2
    8d86:	4798      	blx	r3
    8d88:	2800      	cmp	r0, #0
    8d8a:	d128      	bne.n	8dde <dd_flash_write_data+0x66>
    8d8c:	0002      	movs	r2, r0
    8d8e:	0031      	movs	r1, r6
    8d90:	0020      	movs	r0, r4
    8d92:	4b15      	ldr	r3, [pc, #84]	; (8de8 <dd_flash_write_data+0x70>)
    8d94:	4798      	blx	r3
    8d96:	2800      	cmp	r0, #0
    8d98:	d121      	bne.n	8dde <dd_flash_write_data+0x66>
    8d9a:	2380      	movs	r3, #128	; 0x80
    8d9c:	0002      	movs	r2, r0
    8d9e:	015b      	lsls	r3, r3, #5
    8da0:	429d      	cmp	r5, r3
    8da2:	d905      	bls.n	8db0 <dd_flash_write_data+0x38>
    8da4:	2280      	movs	r2, #128	; 0x80
    8da6:	0212      	lsls	r2, r2, #8
    8da8:	42aa      	cmp	r2, r5
    8daa:	4192      	sbcs	r2, r2
    8dac:	4252      	negs	r2, r2
    8dae:	3201      	adds	r2, #1
    8db0:	0031      	movs	r1, r6
    8db2:	0020      	movs	r0, r4
    8db4:	4b0d      	ldr	r3, [pc, #52]	; (8dec <dd_flash_write_data+0x74>)
    8db6:	4798      	blx	r3
    8db8:	2800      	cmp	r0, #0
    8dba:	d110      	bne.n	8dde <dd_flash_write_data+0x66>
    8dbc:	b2ab      	uxth	r3, r5
    8dbe:	003a      	movs	r2, r7
    8dc0:	0031      	movs	r1, r6
    8dc2:	0020      	movs	r0, r4
    8dc4:	4d0a      	ldr	r5, [pc, #40]	; (8df0 <dd_flash_write_data+0x78>)
    8dc6:	47a8      	blx	r5
    8dc8:	2800      	cmp	r0, #0
    8dca:	d108      	bne.n	8dde <dd_flash_write_data+0x66>
    8dcc:	2101      	movs	r1, #1
    8dce:	0020      	movs	r0, r4
    8dd0:	4b08      	ldr	r3, [pc, #32]	; (8df4 <dd_flash_write_data+0x7c>)
    8dd2:	4798      	blx	r3
    8dd4:	2800      	cmp	r0, #0
    8dd6:	d102      	bne.n	8dde <dd_flash_write_data+0x66>
    8dd8:	0020      	movs	r0, r4
    8dda:	4b07      	ldr	r3, [pc, #28]	; (8df8 <dd_flash_write_data+0x80>)
    8ddc:	4798      	blx	r3
    8dde:	bdf8      	pop	{r3, r4, r5, r6, r7, pc}
    8de0:	200018c8 	.word	0x200018c8
    8de4:	0000254d 	.word	0x0000254d
    8de8:	000024c1 	.word	0x000024c1
    8dec:	00002409 	.word	0x00002409
    8df0:	00002339 	.word	0x00002339
    8df4:	00002471 	.word	0x00002471
    8df8:	0000251d 	.word	0x0000251d

00008dfc <store_firmware_file>:
    8dfc:	b5f7      	push	{r0, r1, r2, r4, r5, r6, r7, lr}
    8dfe:	000d      	movs	r5, r1
    8e00:	0004      	movs	r4, r0
    8e02:	4918      	ldr	r1, [pc, #96]	; (8e64 <store_firmware_file+0x68>)
    8e04:	4e18      	ldr	r6, [pc, #96]	; (8e68 <store_firmware_file+0x6c>)
    8e06:	4819      	ldr	r0, [pc, #100]	; (8e6c <store_firmware_file+0x70>)
    8e08:	47b0      	blx	r6
    8e0a:	0029      	movs	r1, r5
    8e0c:	4818      	ldr	r0, [pc, #96]	; (8e70 <store_firmware_file+0x74>)
    8e0e:	47b0      	blx	r6
    8e10:	4a18      	ldr	r2, [pc, #96]	; (8e74 <store_firmware_file+0x78>)
    8e12:	0029      	movs	r1, r5
    8e14:	6813      	ldr	r3, [r2, #0]
    8e16:	0020      	movs	r0, r4
    8e18:	195b      	adds	r3, r3, r5
    8e1a:	6013      	str	r3, [r2, #0]
    8e1c:	4b16      	ldr	r3, [pc, #88]	; (8e78 <store_firmware_file+0x7c>)
    8e1e:	4a17      	ldr	r2, [pc, #92]	; (8e7c <store_firmware_file+0x80>)
    8e20:	4798      	blx	r3
    8e22:	1963      	adds	r3, r4, r5
    8e24:	9301      	str	r3, [sp, #4]
    8e26:	9b01      	ldr	r3, [sp, #4]
    8e28:	429c      	cmp	r4, r3
    8e2a:	d100      	bne.n	8e2e <store_firmware_file+0x32>
    8e2c:	bdf7      	pop	{r0, r1, r2, r4, r5, r6, r7, pc}
    8e2e:	4d14      	ldr	r5, [pc, #80]	; (8e80 <store_firmware_file+0x84>)
    8e30:	4e14      	ldr	r6, [pc, #80]	; (8e84 <store_firmware_file+0x88>)
    8e32:	7822      	ldrb	r2, [r4, #0]
    8e34:	5bab      	ldrh	r3, [r5, r6]
    8e36:	54ea      	strb	r2, [r5, r3]
    8e38:	2280      	movs	r2, #128	; 0x80
    8e3a:	3301      	adds	r3, #1
    8e3c:	b29b      	uxth	r3, r3
    8e3e:	53ab      	strh	r3, [r5, r6]
    8e40:	0152      	lsls	r2, r2, #5
    8e42:	4293      	cmp	r3, r2
    8e44:	d10c      	bne.n	8e60 <store_firmware_file+0x64>
    8e46:	4f10      	ldr	r7, [pc, #64]	; (8e88 <store_firmware_file+0x8c>)
    8e48:	4b10      	ldr	r3, [pc, #64]	; (8e8c <store_firmware_file+0x90>)
    8e4a:	0029      	movs	r1, r5
    8e4c:	6838      	ldr	r0, [r7, #0]
    8e4e:	4798      	blx	r3
    8e50:	2280      	movs	r2, #128	; 0x80
    8e52:	683b      	ldr	r3, [r7, #0]
    8e54:	0152      	lsls	r2, r2, #5
    8e56:	189b      	adds	r3, r3, r2
    8e58:	603b      	str	r3, [r7, #0]
    8e5a:	2300      	movs	r3, #0
    8e5c:	52ab      	strh	r3, [r5, r2]
    8e5e:	53ab      	strh	r3, [r5, r6]
    8e60:	3401      	adds	r4, #1
    8e62:	e7e0      	b.n	8e26 <store_firmware_file+0x2a>
    8e64:	0000d7bc 	.word	0x0000d7bc
    8e68:	0000b36d 	.word	0x0000b36d
    8e6c:	0000dbac 	.word	0x0000dbac
    8e70:	0000dbba 	.word	0x0000dbba
    8e74:	200012e0 	.word	0x200012e0
    8e78:	000025a1 	.word	0x000025a1
    8e7c:	200012e4 	.word	0x200012e4
    8e80:	200002da 	.word	0x200002da
    8e84:	00001002 	.word	0x00001002
    8e88:	20000028 	.word	0x20000028
    8e8c:	00008d79 	.word	0x00008d79

00008e90 <nvm_init>:
    8e90:	b507      	push	{r0, r1, r2, lr}
    8e92:	2200      	movs	r2, #0
    8e94:	466b      	mov	r3, sp
    8e96:	4669      	mov	r1, sp
    8e98:	701a      	strb	r2, [r3, #0]
    8e9a:	4b06      	ldr	r3, [pc, #24]	; (8eb4 <nvm_init+0x24>)
    8e9c:	4668      	mov	r0, sp
    8e9e:	685b      	ldr	r3, [r3, #4]
    8ea0:	06db      	lsls	r3, r3, #27
    8ea2:	0f1b      	lsrs	r3, r3, #28
    8ea4:	708b      	strb	r3, [r1, #2]
    8ea6:	4b04      	ldr	r3, [pc, #16]	; (8eb8 <nvm_init+0x28>)
    8ea8:	70ca      	strb	r2, [r1, #3]
    8eaa:	710a      	strb	r2, [r1, #4]
    8eac:	704a      	strb	r2, [r1, #1]
    8eae:	4798      	blx	r3
    8eb0:	bd07      	pop	{r0, r1, r2, pc}
    8eb2:	46c0      	nop			; (mov r8, r8)
    8eb4:	41004000 	.word	0x41004000
    8eb8:	00006011 	.word	0x00006011

00008ebc <dd_nvm_row_read>:
    8ebc:	b570      	push	{r4, r5, r6, lr}
    8ebe:	000d      	movs	r5, r1
    8ec0:	0016      	movs	r6, r2
    8ec2:	0204      	lsls	r4, r0, #8
    8ec4:	b2b2      	uxth	r2, r6
    8ec6:	0029      	movs	r1, r5
    8ec8:	0020      	movs	r0, r4
    8eca:	4b02      	ldr	r3, [pc, #8]	; (8ed4 <dd_nvm_row_read+0x18>)
    8ecc:	4798      	blx	r3
    8ece:	2805      	cmp	r0, #5
    8ed0:	d0f8      	beq.n	8ec4 <dd_nvm_row_read+0x8>
    8ed2:	bd70      	pop	{r4, r5, r6, pc}
    8ed4:	000061d9 	.word	0x000061d9

00008ed8 <dd_nvm_row_write>:
    8ed8:	b5f8      	push	{r3, r4, r5, r6, r7, lr}
    8eda:	000f      	movs	r7, r1
    8edc:	0016      	movs	r6, r2
    8ede:	0204      	lsls	r4, r0, #8
    8ee0:	0020      	movs	r0, r4
    8ee2:	4b07      	ldr	r3, [pc, #28]	; (8f00 <dd_nvm_row_write+0x28>)
    8ee4:	4798      	blx	r3
    8ee6:	0005      	movs	r5, r0
    8ee8:	2805      	cmp	r0, #5
    8eea:	d0f9      	beq.n	8ee0 <dd_nvm_row_write+0x8>
    8eec:	2800      	cmp	r0, #0
    8eee:	d104      	bne.n	8efa <dd_nvm_row_write+0x22>
    8ef0:	b2b2      	uxth	r2, r6
    8ef2:	0039      	movs	r1, r7
    8ef4:	0020      	movs	r0, r4
    8ef6:	4b03      	ldr	r3, [pc, #12]	; (8f04 <dd_nvm_row_write+0x2c>)
    8ef8:	4798      	blx	r3
    8efa:	0028      	movs	r0, r5
    8efc:	bdf8      	pop	{r3, r4, r5, r6, r7, pc}
    8efe:	46c0      	nop			; (mov r8, r8)
    8f00:	00006241 	.word	0x00006241
    8f04:	0000613d 	.word	0x0000613d

00008f08 <get_boot_status>:
    8f08:	b510      	push	{r4, lr}
    8f0a:	0001      	movs	r1, r0
    8f0c:	2210      	movs	r2, #16
    8f0e:	4802      	ldr	r0, [pc, #8]	; (8f18 <get_boot_status+0x10>)
    8f10:	4b02      	ldr	r3, [pc, #8]	; (8f1c <get_boot_status+0x14>)
    8f12:	4798      	blx	r3
    8f14:	bd10      	pop	{r4, pc}
    8f16:	46c0      	nop			; (mov r8, r8)
    8f18:	000003ff 	.word	0x000003ff
    8f1c:	00008ebd 	.word	0x00008ebd

00008f20 <set_boot_status>:
    8f20:	b510      	push	{r4, lr}
    8f22:	0001      	movs	r1, r0
    8f24:	2210      	movs	r2, #16
    8f26:	4802      	ldr	r0, [pc, #8]	; (8f30 <set_boot_status+0x10>)
    8f28:	4b02      	ldr	r3, [pc, #8]	; (8f34 <set_boot_status+0x14>)
    8f2a:	4798      	blx	r3
    8f2c:	bd10      	pop	{r4, pc}
    8f2e:	46c0      	nop			; (mov r8, r8)
    8f30:	000003ff 	.word	0x000003ff
    8f34:	00008ed9 	.word	0x00008ed9

00008f38 <http_client_firmware_download_req_callback>:
    8f38:	b5f0      	push	{r4, r5, r6, r7, lr}
    8f3a:	0014      	movs	r4, r2
    8f3c:	b08b      	sub	sp, #44	; 0x2c
    8f3e:	2904      	cmp	r1, #4
    8f40:	d808      	bhi.n	8f54 <http_client_firmware_download_req_callback+0x1c>
    8f42:	0008      	movs	r0, r1
    8f44:	f000 faee 	bl	9524 <__gnu_thumb1_case_uqi>
    8f48:	644c4503 	.word	0x644c4503
    8f4c:	6c          	.byte	0x6c
    8f4d:	00          	.byte	0x00
    8f4e:	4840      	ldr	r0, [pc, #256]	; (9050 <http_client_firmware_download_req_callback+0x118>)
    8f50:	4b40      	ldr	r3, [pc, #256]	; (9054 <http_client_firmware_download_req_callback+0x11c>)
    8f52:	4798      	blx	r3
    8f54:	2410      	movs	r4, #16
    8f56:	4b40      	ldr	r3, [pc, #256]	; (9058 <http_client_firmware_download_req_callback+0x120>)
    8f58:	781b      	ldrb	r3, [r3, #0]
    8f5a:	4223      	tst	r3, r4
    8f5c:	d04d      	beq.n	8ffa <http_client_firmware_download_req_callback+0xc2>
    8f5e:	493f      	ldr	r1, [pc, #252]	; (905c <http_client_firmware_download_req_callback+0x124>)
    8f60:	483f      	ldr	r0, [pc, #252]	; (9060 <http_client_firmware_download_req_callback+0x128>)
    8f62:	4d40      	ldr	r5, [pc, #256]	; (9064 <http_client_firmware_download_req_callback+0x12c>)
    8f64:	47a8      	blx	r5
    8f66:	0022      	movs	r2, r4
    8f68:	2100      	movs	r1, #0
    8f6a:	483f      	ldr	r0, [pc, #252]	; (9068 <http_client_firmware_download_req_callback+0x130>)
    8f6c:	4b3f      	ldr	r3, [pc, #252]	; (906c <http_client_firmware_download_req_callback+0x134>)
    8f6e:	4798      	blx	r3
    8f70:	4f3f      	ldr	r7, [pc, #252]	; (9070 <http_client_firmware_download_req_callback+0x138>)
    8f72:	4c40      	ldr	r4, [pc, #256]	; (9074 <http_client_firmware_download_req_callback+0x13c>)
    8f74:	4e40      	ldr	r6, [pc, #256]	; (9078 <http_client_firmware_download_req_callback+0x140>)
    8f76:	5be2      	ldrh	r2, [r4, r7]
    8f78:	2a00      	cmp	r2, #0
    8f7a:	d008      	beq.n	8f8e <http_client_firmware_download_req_callback+0x56>
    8f7c:	4b3f      	ldr	r3, [pc, #252]	; (907c <http_client_firmware_download_req_callback+0x144>)
    8f7e:	0021      	movs	r1, r4
    8f80:	6818      	ldr	r0, [r3, #0]
    8f82:	47b0      	blx	r6
    8f84:	2280      	movs	r2, #128	; 0x80
    8f86:	2300      	movs	r3, #0
    8f88:	0152      	lsls	r2, r2, #5
    8f8a:	52a3      	strh	r3, [r4, r2]
    8f8c:	53e3      	strh	r3, [r4, r7]
    8f8e:	4c3c      	ldr	r4, [pc, #240]	; (9080 <http_client_firmware_download_req_callback+0x148>)
    8f90:	483c      	ldr	r0, [pc, #240]	; (9084 <http_client_firmware_download_req_callback+0x14c>)
    8f92:	6821      	ldr	r1, [r4, #0]
    8f94:	47a8      	blx	r5
    8f96:	6823      	ldr	r3, [r4, #0]
    8f98:	2080      	movs	r0, #128	; 0x80
    8f9a:	9303      	str	r3, [sp, #12]
    8f9c:	4b3a      	ldr	r3, [pc, #232]	; (9088 <http_client_firmware_download_req_callback+0x150>)
    8f9e:	2501      	movs	r5, #1
    8fa0:	681b      	ldr	r3, [r3, #0]
    8fa2:	ac06      	add	r4, sp, #24
    8fa4:	9301      	str	r3, [sp, #4]
    8fa6:	9305      	str	r3, [sp, #20]
    8fa8:	2380      	movs	r3, #128	; 0x80
    8faa:	2210      	movs	r2, #16
    8fac:	a902      	add	r1, sp, #8
    8fae:	019b      	lsls	r3, r3, #6
    8fb0:	0140      	lsls	r0, r0, #5
    8fb2:	9304      	str	r3, [sp, #16]
    8fb4:	9502      	str	r5, [sp, #8]
    8fb6:	47b0      	blx	r6
    8fb8:	0020      	movs	r0, r4
    8fba:	4b34      	ldr	r3, [pc, #208]	; (908c <http_client_firmware_download_req_callback+0x154>)
    8fbc:	4798      	blx	r3
    8fbe:	23ff      	movs	r3, #255	; 0xff
    8fc0:	0020      	movs	r0, r4
    8fc2:	7223      	strb	r3, [r4, #8]
    8fc4:	4b32      	ldr	r3, [pc, #200]	; (9090 <http_client_firmware_download_req_callback+0x158>)
    8fc6:	7265      	strb	r5, [r4, #9]
    8fc8:	4798      	blx	r3
    8fca:	4b22      	ldr	r3, [pc, #136]	; (9054 <http_client_firmware_download_req_callback+0x11c>)
    8fcc:	4831      	ldr	r0, [pc, #196]	; (9094 <http_client_firmware_download_req_callback+0x15c>)
    8fce:	4798      	blx	r3
    8fd0:	e013      	b.n	8ffa <http_client_firmware_download_req_callback+0xc2>
    8fd2:	4831      	ldr	r0, [pc, #196]	; (9098 <http_client_firmware_download_req_callback+0x160>)
    8fd4:	4b1f      	ldr	r3, [pc, #124]	; (9054 <http_client_firmware_download_req_callback+0x11c>)
    8fd6:	4798      	blx	r3
    8fd8:	2004      	movs	r0, #4
    8fda:	4b30      	ldr	r3, [pc, #192]	; (909c <http_client_firmware_download_req_callback+0x164>)
    8fdc:	4798      	blx	r3
    8fde:	e7b9      	b.n	8f54 <http_client_firmware_download_req_callback+0x1c>
    8fe0:	8811      	ldrh	r1, [r2, #0]
    8fe2:	482f      	ldr	r0, [pc, #188]	; (90a0 <http_client_firmware_download_req_callback+0x168>)
    8fe4:	6852      	ldr	r2, [r2, #4]
    8fe6:	4d1f      	ldr	r5, [pc, #124]	; (9064 <http_client_firmware_download_req_callback+0x12c>)
    8fe8:	47a8      	blx	r5
    8fea:	8823      	ldrh	r3, [r4, #0]
    8fec:	2bc8      	cmp	r3, #200	; 0xc8
    8fee:	d006      	beq.n	8ffe <http_client_firmware_download_req_callback+0xc6>
    8ff0:	482c      	ldr	r0, [pc, #176]	; (90a4 <http_client_firmware_download_req_callback+0x16c>)
    8ff2:	47a8      	blx	r5
    8ff4:	2020      	movs	r0, #32
    8ff6:	4b29      	ldr	r3, [pc, #164]	; (909c <http_client_firmware_download_req_callback+0x164>)
    8ff8:	4798      	blx	r3
    8ffa:	b00b      	add	sp, #44	; 0x2c
    8ffc:	bdf0      	pop	{r4, r5, r6, r7, pc}
    8ffe:	6861      	ldr	r1, [r4, #4]
    9000:	4b29      	ldr	r3, [pc, #164]	; (90a8 <http_client_firmware_download_req_callback+0x170>)
    9002:	4299      	cmp	r1, r3
    9004:	d8a6      	bhi.n	8f54 <http_client_firmware_download_req_callback+0x1c>
    9006:	68a0      	ldr	r0, [r4, #8]
    9008:	4b28      	ldr	r3, [pc, #160]	; (90ac <http_client_firmware_download_req_callback+0x174>)
    900a:	4798      	blx	r3
    900c:	2010      	movs	r0, #16
    900e:	e7e4      	b.n	8fda <http_client_firmware_download_req_callback+0xa2>
    9010:	4b26      	ldr	r3, [pc, #152]	; (90ac <http_client_firmware_download_req_callback+0x174>)
    9012:	6811      	ldr	r1, [r2, #0]
    9014:	6850      	ldr	r0, [r2, #4]
    9016:	4798      	blx	r3
    9018:	7a23      	ldrb	r3, [r4, #8]
    901a:	2b00      	cmp	r3, #0
    901c:	d09a      	beq.n	8f54 <http_client_firmware_download_req_callback+0x1c>
    901e:	e7f5      	b.n	900c <http_client_firmware_download_req_callback+0xd4>
    9020:	4b10      	ldr	r3, [pc, #64]	; (9064 <http_client_firmware_download_req_callback+0x12c>)
    9022:	6811      	ldr	r1, [r2, #0]
    9024:	4822      	ldr	r0, [pc, #136]	; (90b0 <http_client_firmware_download_req_callback+0x178>)
    9026:	4798      	blx	r3
    9028:	6823      	ldr	r3, [r4, #0]
    902a:	330b      	adds	r3, #11
    902c:	d000      	beq.n	9030 <http_client_firmware_download_req_callback+0xf8>
    902e:	e791      	b.n	8f54 <http_client_firmware_download_req_callback+0x1c>
    9030:	2008      	movs	r0, #8
    9032:	4c09      	ldr	r4, [pc, #36]	; (9058 <http_client_firmware_download_req_callback+0x120>)
    9034:	7823      	ldrb	r3, [r4, #0]
    9036:	4203      	tst	r3, r0
    9038:	d001      	beq.n	903e <http_client_firmware_download_req_callback+0x106>
    903a:	4b1e      	ldr	r3, [pc, #120]	; (90b4 <http_client_firmware_download_req_callback+0x17c>)
    903c:	4798      	blx	r3
    903e:	2004      	movs	r0, #4
    9040:	7823      	ldrb	r3, [r4, #0]
    9042:	4203      	tst	r3, r0
    9044:	d001      	beq.n	904a <http_client_firmware_download_req_callback+0x112>
    9046:	4b1b      	ldr	r3, [pc, #108]	; (90b4 <http_client_firmware_download_req_callback+0x17c>)
    9048:	4798      	blx	r3
    904a:	4b1b      	ldr	r3, [pc, #108]	; (90b8 <http_client_firmware_download_req_callback+0x180>)
    904c:	4798      	blx	r3
    904e:	e781      	b.n	8f54 <http_client_firmware_download_req_callback+0x1c>
    9050:	0000d930 	.word	0x0000d930
    9054:	0000b489 	.word	0x0000b489
    9058:	200002d8 	.word	0x200002d8
    905c:	0000d7d0 	.word	0x0000d7d0
    9060:	0000dbac 	.word	0x0000dbac
    9064:	0000b36d 	.word	0x0000b36d
    9068:	200016ec 	.word	0x200016ec
    906c:	0000b83d 	.word	0x0000b83d
    9070:	00001002 	.word	0x00001002
    9074:	200002da 	.word	0x200002da
    9078:	00008d79 	.word	0x00008d79
    907c:	20000028 	.word	0x20000028
    9080:	200012e4 	.word	0x200012e4
    9084:	0000d8db 	.word	0x0000d8db
    9088:	200012e0 	.word	0x200012e0
    908c:	00008f09 	.word	0x00008f09
    9090:	00008f21 	.word	0x00008f21
    9094:	0000d8fc 	.word	0x0000d8fc
    9098:	0000d965 	.word	0x0000d965
    909c:	00008921 	.word	0x00008921
    90a0:	0000d98f 	.word	0x0000d98f
    90a4:	0000d9c9 	.word	0x0000d9c9
    90a8:	000005a6 	.word	0x000005a6
    90ac:	00008dfd 	.word	0x00008dfd
    90b0:	0000d9dc 	.word	0x0000d9dc
    90b4:	00008911 	.word	0x00008911
    90b8:	00008a09 	.word	0x00008a09

000090bc <getServerFirmwareVersion>:
    90bc:	b510      	push	{r4, lr}
    90be:	490e      	ldr	r1, [pc, #56]	; (90f8 <getServerFirmwareVersion+0x3c>)
    90c0:	4b0e      	ldr	r3, [pc, #56]	; (90fc <getServerFirmwareVersion+0x40>)
    90c2:	480f      	ldr	r0, [pc, #60]	; (9100 <getServerFirmwareVersion+0x44>)
    90c4:	4798      	blx	r3
    90c6:	4b0f      	ldr	r3, [pc, #60]	; (9104 <getServerFirmwareVersion+0x48>)
    90c8:	4798      	blx	r3
    90ca:	2430      	movs	r4, #48	; 0x30
    90cc:	4b0e      	ldr	r3, [pc, #56]	; (9108 <getServerFirmwareVersion+0x4c>)
    90ce:	7818      	ldrb	r0, [r3, #0]
    90d0:	4020      	ands	r0, r4
    90d2:	d00a      	beq.n	90ea <getServerFirmwareVersion+0x2e>
    90d4:	4c0d      	ldr	r4, [pc, #52]	; (910c <getServerFirmwareVersion+0x50>)
    90d6:	2004      	movs	r0, #4
    90d8:	47a0      	blx	r4
    90da:	2008      	movs	r0, #8
    90dc:	47a0      	blx	r4
    90de:	2010      	movs	r0, #16
    90e0:	47a0      	blx	r4
    90e2:	4b0b      	ldr	r3, [pc, #44]	; (9110 <getServerFirmwareVersion+0x54>)
    90e4:	480b      	ldr	r0, [pc, #44]	; (9114 <getServerFirmwareVersion+0x58>)
    90e6:	4798      	blx	r3
    90e8:	bd10      	pop	{r4, pc}
    90ea:	4b0b      	ldr	r3, [pc, #44]	; (9118 <getServerFirmwareVersion+0x5c>)
    90ec:	4798      	blx	r3
    90ee:	480b      	ldr	r0, [pc, #44]	; (911c <getServerFirmwareVersion+0x60>)
    90f0:	4b0b      	ldr	r3, [pc, #44]	; (9120 <getServerFirmwareVersion+0x64>)
    90f2:	4798      	blx	r3
    90f4:	e7ea      	b.n	90cc <getServerFirmwareVersion+0x10>
    90f6:	46c0      	nop			; (mov r8, r8)
    90f8:	00008b0d 	.word	0x00008b0d
    90fc:	00007b3d 	.word	0x00007b3d
    9100:	20001928 	.word	0x20001928
    9104:	000089b1 	.word	0x000089b1
    9108:	200002d8 	.word	0x200002d8
    910c:	00008911 	.word	0x00008911
    9110:	0000b159 	.word	0x0000b159
    9114:	200016f5 	.word	0x200016f5
    9118:	000034b9 	.word	0x000034b9
    911c:	200018d0 	.word	0x200018d0
    9120:	000088c1 	.word	0x000088c1

00009124 <downloadFirmwareUpdate>:
    9124:	b510      	push	{r4, lr}
    9126:	490c      	ldr	r1, [pc, #48]	; (9158 <downloadFirmwareUpdate+0x34>)
    9128:	4b0c      	ldr	r3, [pc, #48]	; (915c <downloadFirmwareUpdate+0x38>)
    912a:	480d      	ldr	r0, [pc, #52]	; (9160 <downloadFirmwareUpdate+0x3c>)
    912c:	4798      	blx	r3
    912e:	4b0d      	ldr	r3, [pc, #52]	; (9164 <downloadFirmwareUpdate+0x40>)
    9130:	4798      	blx	r3
    9132:	2430      	movs	r4, #48	; 0x30
    9134:	4b0c      	ldr	r3, [pc, #48]	; (9168 <downloadFirmwareUpdate+0x44>)
    9136:	7818      	ldrb	r0, [r3, #0]
    9138:	4020      	ands	r0, r4
    913a:	d007      	beq.n	914c <downloadFirmwareUpdate+0x28>
    913c:	4c0b      	ldr	r4, [pc, #44]	; (916c <downloadFirmwareUpdate+0x48>)
    913e:	2004      	movs	r0, #4
    9140:	47a0      	blx	r4
    9142:	2008      	movs	r0, #8
    9144:	47a0      	blx	r4
    9146:	2010      	movs	r0, #16
    9148:	47a0      	blx	r4
    914a:	bd10      	pop	{r4, pc}
    914c:	4b08      	ldr	r3, [pc, #32]	; (9170 <downloadFirmwareUpdate+0x4c>)
    914e:	4798      	blx	r3
    9150:	4808      	ldr	r0, [pc, #32]	; (9174 <downloadFirmwareUpdate+0x50>)
    9152:	4b09      	ldr	r3, [pc, #36]	; (9178 <downloadFirmwareUpdate+0x54>)
    9154:	4798      	blx	r3
    9156:	e7ed      	b.n	9134 <downloadFirmwareUpdate+0x10>
    9158:	00008f39 	.word	0x00008f39
    915c:	00007b3d 	.word	0x00007b3d
    9160:	20001928 	.word	0x20001928
    9164:	00008a09 	.word	0x00008a09
    9168:	200002d8 	.word	0x200002d8
    916c:	00008911 	.word	0x00008911
    9170:	000034b9 	.word	0x000034b9
    9174:	200018d0 	.word	0x200018d0
    9178:	000088c1 	.word	0x000088c1

0000917c <handleUpdateRequest>:
    917c:	b570      	push	{r4, r5, r6, lr}
    917e:	b08a      	sub	sp, #40	; 0x28
    9180:	a803      	add	r0, sp, #12
    9182:	4b28      	ldr	r3, [pc, #160]	; (9224 <handleUpdateRequest+0xa8>)
    9184:	4798      	blx	r3
    9186:	4b28      	ldr	r3, [pc, #160]	; (9228 <handleUpdateRequest+0xac>)
    9188:	4e28      	ldr	r6, [pc, #160]	; (922c <handleUpdateRequest+0xb0>)
    918a:	4d29      	ldr	r5, [pc, #164]	; (9230 <handleUpdateRequest+0xb4>)
    918c:	9307      	str	r3, [sp, #28]
    918e:	a903      	add	r1, sp, #12
    9190:	0030      	movs	r0, r6
    9192:	4b28      	ldr	r3, [pc, #160]	; (9234 <handleUpdateRequest+0xb8>)
    9194:	9504      	str	r5, [sp, #16]
    9196:	4798      	blx	r3
    9198:	4c27      	ldr	r4, [pc, #156]	; (9238 <handleUpdateRequest+0xbc>)
    919a:	1e01      	subs	r1, r0, #0
    919c:	da02      	bge.n	91a4 <handleUpdateRequest+0x28>
    919e:	4827      	ldr	r0, [pc, #156]	; (923c <handleUpdateRequest+0xc0>)
    91a0:	47a0      	blx	r4
    91a2:	e7fe      	b.n	91a2 <handleUpdateRequest+0x26>
    91a4:	4926      	ldr	r1, [pc, #152]	; (9240 <handleUpdateRequest+0xc4>)
    91a6:	4b27      	ldr	r3, [pc, #156]	; (9244 <handleUpdateRequest+0xc8>)
    91a8:	0030      	movs	r0, r6
    91aa:	4798      	blx	r3
    91ac:	2100      	movs	r1, #0
    91ae:	2218      	movs	r2, #24
    91b0:	4b25      	ldr	r3, [pc, #148]	; (9248 <handleUpdateRequest+0xcc>)
    91b2:	a803      	add	r0, sp, #12
    91b4:	4798      	blx	r3
    91b6:	4b25      	ldr	r3, [pc, #148]	; (924c <handleUpdateRequest+0xd0>)
    91b8:	a803      	add	r0, sp, #12
    91ba:	9303      	str	r3, [sp, #12]
    91bc:	4b24      	ldr	r3, [pc, #144]	; (9250 <handleUpdateRequest+0xd4>)
    91be:	4798      	blx	r3
    91c0:	1e01      	subs	r1, r0, #0
    91c2:	d002      	beq.n	91ca <handleUpdateRequest+0x4e>
    91c4:	4823      	ldr	r0, [pc, #140]	; (9254 <handleUpdateRequest+0xd8>)
    91c6:	47a0      	blx	r4
    91c8:	e7fe      	b.n	91c8 <handleUpdateRequest+0x4c>
    91ca:	4b23      	ldr	r3, [pc, #140]	; (9258 <handleUpdateRequest+0xdc>)
    91cc:	4798      	blx	r3
    91ce:	4b23      	ldr	r3, [pc, #140]	; (925c <handleUpdateRequest+0xe0>)
    91d0:	4923      	ldr	r1, [pc, #140]	; (9260 <handleUpdateRequest+0xe4>)
    91d2:	4824      	ldr	r0, [pc, #144]	; (9264 <handleUpdateRequest+0xe8>)
    91d4:	4798      	blx	r3
    91d6:	4e24      	ldr	r6, [pc, #144]	; (9268 <handleUpdateRequest+0xec>)
    91d8:	4824      	ldr	r0, [pc, #144]	; (926c <handleUpdateRequest+0xf0>)
    91da:	0031      	movs	r1, r6
    91dc:	47a0      	blx	r4
    91de:	23ff      	movs	r3, #255	; 0xff
    91e0:	0030      	movs	r0, r6
    91e2:	9300      	str	r3, [sp, #0]
    91e4:	4e22      	ldr	r6, [pc, #136]	; (9270 <handleUpdateRequest+0xf4>)
    91e6:	4b23      	ldr	r3, [pc, #140]	; (9274 <handleUpdateRequest+0xf8>)
    91e8:	2202      	movs	r2, #2
    91ea:	2112      	movs	r1, #18
    91ec:	47b0      	blx	r6
    91ee:	2622      	movs	r6, #34	; 0x22
    91f0:	4b21      	ldr	r3, [pc, #132]	; (9278 <handleUpdateRequest+0xfc>)
    91f2:	7818      	ldrb	r0, [r3, #0]
    91f4:	4030      	ands	r0, r6
    91f6:	d00c      	beq.n	9212 <handleUpdateRequest+0x96>
    91f8:	4820      	ldr	r0, [pc, #128]	; (927c <handleUpdateRequest+0x100>)
    91fa:	4d21      	ldr	r5, [pc, #132]	; (9280 <handleUpdateRequest+0x104>)
    91fc:	47a8      	blx	r5
    91fe:	4b21      	ldr	r3, [pc, #132]	; (9284 <handleUpdateRequest+0x108>)
    9200:	4798      	blx	r3
    9202:	2800      	cmp	r0, #0
    9204:	d00b      	beq.n	921e <handleUpdateRequest+0xa2>
    9206:	4820      	ldr	r0, [pc, #128]	; (9288 <handleUpdateRequest+0x10c>)
    9208:	47a8      	blx	r5
    920a:	4b20      	ldr	r3, [pc, #128]	; (928c <handleUpdateRequest+0x110>)
    920c:	4798      	blx	r3
    920e:	b00a      	add	sp, #40	; 0x28
    9210:	bd70      	pop	{r4, r5, r6, pc}
    9212:	4b1f      	ldr	r3, [pc, #124]	; (9290 <handleUpdateRequest+0x114>)
    9214:	4798      	blx	r3
    9216:	0028      	movs	r0, r5
    9218:	4b1e      	ldr	r3, [pc, #120]	; (9294 <handleUpdateRequest+0x118>)
    921a:	4798      	blx	r3
    921c:	e7e8      	b.n	91f0 <handleUpdateRequest+0x74>
    921e:	481e      	ldr	r0, [pc, #120]	; (9298 <handleUpdateRequest+0x11c>)
    9220:	47a0      	blx	r4
    9222:	e7f4      	b.n	920e <handleUpdateRequest+0x92>
    9224:	00007a7d 	.word	0x00007a7d
    9228:	000005a6 	.word	0x000005a6
    922c:	20001928 	.word	0x20001928
    9230:	200018d0 	.word	0x200018d0
    9234:	00007aa5 	.word	0x00007aa5
    9238:	0000b36d 	.word	0x0000b36d
    923c:	0000d7e9 	.word	0x0000d7e9
    9240:	00008b0d 	.word	0x00008b0d
    9244:	00007b3d 	.word	0x00007b3d
    9248:	0000b20b 	.word	0x0000b20b
    924c:	00008a6d 	.word	0x00008a6d
    9250:	0000338d 	.word	0x0000338d
    9254:	0000d82e 	.word	0x0000d82e
    9258:	00004bbd 	.word	0x00004bbd
    925c:	00004bfd 	.word	0x00004bfd
    9260:	00008931 	.word	0x00008931
    9264:	00008969 	.word	0x00008969
    9268:	0000dc21 	.word	0x0000dc21
    926c:	0000d859 	.word	0x0000d859
    9270:	000036b9 	.word	0x000036b9
    9274:	0000dc14 	.word	0x0000dc14
    9278:	200002d8 	.word	0x200002d8
    927c:	0000d87d 	.word	0x0000d87d
    9280:	0000b489 	.word	0x0000b489
    9284:	000090bd 	.word	0x000090bd
    9288:	0000d897 	.word	0x0000d897
    928c:	00009125 	.word	0x00009125
    9290:	000034b9 	.word	0x000034b9
    9294:	000088c1 	.word	0x000088c1
    9298:	0000d8b9 	.word	0x0000d8b9

0000929c <initDroneDAD>:
    929c:	b5f0      	push	{r4, r5, r6, r7, lr}
    929e:	4b69      	ldr	r3, [pc, #420]	; (9444 <initDroneDAD+0x1a8>)
    92a0:	b095      	sub	sp, #84	; 0x54
    92a2:	4798      	blx	r3
    92a4:	2380      	movs	r3, #128	; 0x80
    92a6:	05db      	lsls	r3, r3, #23
    92a8:	9304      	str	r3, [sp, #16]
    92aa:	23ff      	movs	r3, #255	; 0xff
    92ac:	222c      	movs	r2, #44	; 0x2c
    92ae:	ac04      	add	r4, sp, #16
    92b0:	8123      	strh	r3, [r4, #8]
    92b2:	ab02      	add	r3, sp, #8
    92b4:	189b      	adds	r3, r3, r2
    92b6:	3a2b      	subs	r2, #43	; 0x2b
    92b8:	701a      	strb	r2, [r3, #0]
    92ba:	230e      	movs	r3, #14
    92bc:	aa02      	add	r2, sp, #8
    92be:	189b      	adds	r3, r3, r2
    92c0:	2201      	movs	r2, #1
    92c2:	77da      	strb	r2, [r3, #31]
    92c4:	230f      	movs	r3, #15
    92c6:	2500      	movs	r5, #0
    92c8:	aa02      	add	r2, sp, #8
    92ca:	189b      	adds	r3, r3, r2
    92cc:	77dd      	strb	r5, [r3, #31]
    92ce:	ab06      	add	r3, sp, #24
    92d0:	77dd      	strb	r5, [r3, #31]
    92d2:	ab0f      	add	r3, sp, #60	; 0x3c
    92d4:	701d      	strb	r5, [r3, #0]
    92d6:	2335      	movs	r3, #53	; 0x35
    92d8:	189b      	adds	r3, r3, r2
    92da:	701d      	strb	r5, [r3, #0]
    92dc:	2313      	movs	r3, #19
    92de:	76a3      	strb	r3, [r4, #26]
    92e0:	23c4      	movs	r3, #196	; 0xc4
    92e2:	039b      	lsls	r3, r3, #14
    92e4:	60e3      	str	r3, [r4, #12]
    92e6:	2301      	movs	r3, #1
    92e8:	425b      	negs	r3, r3
    92ea:	6323      	str	r3, [r4, #48]	; 0x30
    92ec:	6363      	str	r3, [r4, #52]	; 0x34
    92ee:	4b56      	ldr	r3, [pc, #344]	; (9448 <initDroneDAD+0x1ac>)
    92f0:	4e56      	ldr	r6, [pc, #344]	; (944c <initDroneDAD+0x1b0>)
    92f2:	63a3      	str	r3, [r4, #56]	; 0x38
    92f4:	4b56      	ldr	r3, [pc, #344]	; (9450 <initDroneDAD+0x1b4>)
    92f6:	4a57      	ldr	r2, [pc, #348]	; (9454 <initDroneDAD+0x1b8>)
    92f8:	63e3      	str	r3, [r4, #60]	; 0x3c
    92fa:	23e1      	movs	r3, #225	; 0xe1
    92fc:	025b      	lsls	r3, r3, #9
    92fe:	6223      	str	r3, [r4, #32]
    9300:	4b55      	ldr	r3, [pc, #340]	; (9458 <initDroneDAD+0x1bc>)
    9302:	6065      	str	r5, [r4, #4]
    9304:	601e      	str	r6, [r3, #0]
    9306:	4b55      	ldr	r3, [pc, #340]	; (945c <initDroneDAD+0x1c0>)
    9308:	72a5      	strb	r5, [r4, #10]
    930a:	72e5      	strb	r5, [r4, #11]
    930c:	62a5      	str	r5, [r4, #40]	; 0x28
    930e:	6165      	str	r5, [r4, #20]
    9310:	8225      	strh	r5, [r4, #16]
    9312:	76e5      	strb	r5, [r4, #27]
    9314:	7625      	strb	r5, [r4, #24]
    9316:	7725      	strb	r5, [r4, #28]
    9318:	7665      	strb	r5, [r4, #25]
    931a:	7765      	strb	r5, [r4, #29]
    931c:	601a      	str	r2, [r3, #0]
    931e:	4a50      	ldr	r2, [pc, #320]	; (9460 <initDroneDAD+0x1c4>)
    9320:	4b50      	ldr	r3, [pc, #320]	; (9464 <initDroneDAD+0x1c8>)
    9322:	4951      	ldr	r1, [pc, #324]	; (9468 <initDroneDAD+0x1cc>)
    9324:	601a      	str	r2, [r3, #0]
    9326:	0030      	movs	r0, r6
    9328:	0022      	movs	r2, r4
    932a:	4b50      	ldr	r3, [pc, #320]	; (946c <initDroneDAD+0x1d0>)
    932c:	4798      	blx	r3
    932e:	4f50      	ldr	r7, [pc, #320]	; (9470 <initDroneDAD+0x1d4>)
    9330:	0029      	movs	r1, r5
    9332:	683b      	ldr	r3, [r7, #0]
    9334:	6898      	ldr	r0, [r3, #8]
    9336:	4b4f      	ldr	r3, [pc, #316]	; (9474 <initDroneDAD+0x1d8>)
    9338:	4798      	blx	r3
    933a:	683b      	ldr	r3, [r7, #0]
    933c:	0029      	movs	r1, r5
    933e:	6858      	ldr	r0, [r3, #4]
    9340:	4b4c      	ldr	r3, [pc, #304]	; (9474 <initDroneDAD+0x1d8>)
    9342:	4798      	blx	r3
    9344:	6835      	ldr	r5, [r6, #0]
    9346:	4b4c      	ldr	r3, [pc, #304]	; (9478 <initDroneDAD+0x1dc>)
    9348:	0028      	movs	r0, r5
    934a:	4798      	blx	r3
    934c:	231f      	movs	r3, #31
    934e:	4018      	ands	r0, r3
    9350:	3b1e      	subs	r3, #30
    9352:	4083      	lsls	r3, r0
    9354:	4a49      	ldr	r2, [pc, #292]	; (947c <initDroneDAD+0x1e0>)
    9356:	6013      	str	r3, [r2, #0]
    9358:	6833      	ldr	r3, [r6, #0]
    935a:	9201      	str	r2, [sp, #4]
    935c:	69de      	ldr	r6, [r3, #28]
    935e:	2e00      	cmp	r6, #0
    9360:	d1fc      	bne.n	935c <initDroneDAD+0xc0>
    9362:	2202      	movs	r2, #2
    9364:	682b      	ldr	r3, [r5, #0]
    9366:	4313      	orrs	r3, r2
    9368:	602b      	str	r3, [r5, #0]
    936a:	4b45      	ldr	r3, [pc, #276]	; (9480 <initDroneDAD+0x1e4>)
    936c:	4798      	blx	r3
    936e:	4b45      	ldr	r3, [pc, #276]	; (9484 <initDroneDAD+0x1e8>)
    9370:	4798      	blx	r3
    9372:	222c      	movs	r2, #44	; 0x2c
    9374:	2501      	movs	r5, #1
    9376:	ab02      	add	r3, sp, #8
    9378:	189b      	adds	r3, r3, r2
    937a:	701e      	strb	r6, [r3, #0]
    937c:	0031      	movs	r1, r6
    937e:	3a20      	subs	r2, #32
    9380:	4b41      	ldr	r3, [pc, #260]	; (9488 <initDroneDAD+0x1ec>)
    9382:	a80a      	add	r0, sp, #40	; 0x28
    9384:	7025      	strb	r5, [r4, #0]
    9386:	6066      	str	r6, [r4, #4]
    9388:	60a6      	str	r6, [r4, #8]
    938a:	7426      	strb	r6, [r4, #16]
    938c:	7466      	strb	r6, [r4, #17]
    938e:	74a5      	strb	r5, [r4, #18]
    9390:	74e5      	strb	r5, [r4, #19]
    9392:	7526      	strb	r6, [r4, #20]
    9394:	4798      	blx	r3
    9396:	4b3d      	ldr	r3, [pc, #244]	; (948c <initDroneDAD+0x1f0>)
    9398:	4e3d      	ldr	r6, [pc, #244]	; (9490 <initDroneDAD+0x1f4>)
    939a:	61a3      	str	r3, [r4, #24]
    939c:	2380      	movs	r3, #128	; 0x80
    939e:	025b      	lsls	r3, r3, #9
    93a0:	60e3      	str	r3, [r4, #12]
    93a2:	4b3c      	ldr	r3, [pc, #240]	; (9494 <initDroneDAD+0x1f8>)
    93a4:	0022      	movs	r2, r4
    93a6:	62a3      	str	r3, [r4, #40]	; 0x28
    93a8:	2301      	movs	r3, #1
    93aa:	425b      	negs	r3, r3
    93ac:	62e3      	str	r3, [r4, #44]	; 0x2c
    93ae:	4b3a      	ldr	r3, [pc, #232]	; (9498 <initDroneDAD+0x1fc>)
    93b0:	493a      	ldr	r1, [pc, #232]	; (949c <initDroneDAD+0x200>)
    93b2:	6323      	str	r3, [r4, #48]	; 0x30
    93b4:	4b3a      	ldr	r3, [pc, #232]	; (94a0 <initDroneDAD+0x204>)
    93b6:	0030      	movs	r0, r6
    93b8:	6363      	str	r3, [r4, #52]	; 0x34
    93ba:	4b3a      	ldr	r3, [pc, #232]	; (94a4 <initDroneDAD+0x208>)
    93bc:	4798      	blx	r3
    93be:	6837      	ldr	r7, [r6, #0]
    93c0:	4b2d      	ldr	r3, [pc, #180]	; (9478 <initDroneDAD+0x1dc>)
    93c2:	0038      	movs	r0, r7
    93c4:	4798      	blx	r3
    93c6:	231f      	movs	r3, #31
    93c8:	4018      	ands	r0, r3
    93ca:	4085      	lsls	r5, r0
    93cc:	9b01      	ldr	r3, [sp, #4]
    93ce:	601d      	str	r5, [r3, #0]
    93d0:	2302      	movs	r3, #2
    93d2:	6832      	ldr	r2, [r6, #0]
    93d4:	69d5      	ldr	r5, [r2, #28]
    93d6:	2d00      	cmp	r5, #0
    93d8:	d1fc      	bne.n	93d4 <initDroneDAD+0x138>
    93da:	683a      	ldr	r2, [r7, #0]
    93dc:	2007      	movs	r0, #7
    93de:	4313      	orrs	r3, r2
    93e0:	603b      	str	r3, [r7, #0]
    93e2:	4f31      	ldr	r7, [pc, #196]	; (94a8 <initDroneDAD+0x20c>)
    93e4:	2304      	movs	r3, #4
    93e6:	603e      	str	r6, [r7, #0]
    93e8:	2601      	movs	r6, #1
    93ea:	a903      	add	r1, sp, #12
    93ec:	713b      	strb	r3, [r7, #4]
    93ee:	4b2f      	ldr	r3, [pc, #188]	; (94ac <initDroneDAD+0x210>)
    93f0:	7178      	strb	r0, [r7, #5]
    93f2:	704e      	strb	r6, [r1, #1]
    93f4:	708d      	strb	r5, [r1, #2]
    93f6:	700e      	strb	r6, [r1, #0]
    93f8:	4798      	blx	r3
    93fa:	797a      	ldrb	r2, [r7, #5]
    93fc:	0953      	lsrs	r3, r2, #5
    93fe:	09d7      	lsrs	r7, r2, #7
    9400:	d11d      	bne.n	943e <initDroneDAD+0x1a2>
    9402:	211f      	movs	r1, #31
    9404:	400a      	ands	r2, r1
    9406:	4096      	lsls	r6, r2
    9408:	4a29      	ldr	r2, [pc, #164]	; (94b0 <initDroneDAD+0x214>)
    940a:	01db      	lsls	r3, r3, #7
    940c:	189b      	adds	r3, r3, r2
    940e:	619e      	str	r6, [r3, #24]
    9410:	4b28      	ldr	r3, [pc, #160]	; (94b4 <initDroneDAD+0x218>)
    9412:	4798      	blx	r3
    9414:	4b28      	ldr	r3, [pc, #160]	; (94b8 <initDroneDAD+0x21c>)
    9416:	4798      	blx	r3
    9418:	4b28      	ldr	r3, [pc, #160]	; (94bc <initDroneDAD+0x220>)
    941a:	4798      	blx	r3
    941c:	4b28      	ldr	r3, [pc, #160]	; (94c0 <initDroneDAD+0x224>)
    941e:	0020      	movs	r0, r4
    9420:	701f      	strb	r7, [r3, #0]
    9422:	4b28      	ldr	r3, [pc, #160]	; (94c4 <initDroneDAD+0x228>)
    9424:	4798      	blx	r3
    9426:	4d28      	ldr	r5, [pc, #160]	; (94c8 <initDroneDAD+0x22c>)
    9428:	0021      	movs	r1, r4
    942a:	0028      	movs	r0, r5
    942c:	4b27      	ldr	r3, [pc, #156]	; (94cc <initDroneDAD+0x230>)
    942e:	4798      	blx	r3
    9430:	0028      	movs	r0, r5
    9432:	4b27      	ldr	r3, [pc, #156]	; (94d0 <initDroneDAD+0x234>)
    9434:	4798      	blx	r3
    9436:	4b27      	ldr	r3, [pc, #156]	; (94d4 <initDroneDAD+0x238>)
    9438:	4798      	blx	r3
    943a:	b015      	add	sp, #84	; 0x54
    943c:	bdf0      	pop	{r4, r5, r6, r7, pc}
    943e:	61ad      	str	r5, [r5, #24]
    9440:	deff      	udf	#255	; 0xff
    9442:	46c0      	nop			; (mov r8, r8)
    9444:	00007851 	.word	0x00007851
    9448:	002a0003 	.word	0x002a0003
    944c:	200002a4 	.word	0x200002a4
    9450:	002b0003 	.word	0x002b0003
    9454:	00008999 	.word	0x00008999
    9458:	200018c4 	.word	0x200018c4
    945c:	200018c0 	.word	0x200018c0
    9460:	00008975 	.word	0x00008975
    9464:	200018bc 	.word	0x200018bc
    9468:	42001800 	.word	0x42001800
    946c:	00006c75 	.word	0x00006c75
    9470:	2000002c 	.word	0x2000002c
    9474:	0000b4c1 	.word	0x0000b4c1
    9478:	00006661 	.word	0x00006661
    947c:	e000e100 	.word	0xe000e100
    9480:	00008c81 	.word	0x00008c81
    9484:	00002629 	.word	0x00002629
    9488:	0000b20b 	.word	0x0000b20b
    948c:	0001d4c0 	.word	0x0001d4c0
    9490:	20001a1c 	.word	0x20001a1c
    9494:	00100002 	.word	0x00100002
    9498:	00120002 	.word	0x00120002
    949c:	42000c00 	.word	0x42000c00
    94a0:	00130002 	.word	0x00130002
    94a4:	0000675d 	.word	0x0000675d
    94a8:	200018c8 	.word	0x200018c8
    94ac:	000062a1 	.word	0x000062a1
    94b0:	41004400 	.word	0x41004400
    94b4:	00008e91 	.word	0x00008e91
    94b8:	00008d19 	.word	0x00008d19
    94bc:	00005fe5 	.word	0x00005fe5
    94c0:	200002d8 	.word	0x200002d8
    94c4:	0000878d 	.word	0x0000878d
    94c8:	200018d0 	.word	0x200018d0
    94cc:	00008799 	.word	0x00008799
    94d0:	00008839 	.word	0x00008839
    94d4:	00002715 	.word	0x00002715

000094d8 <main>:
    94d8:	b580      	push	{r7, lr}
    94da:	4f0a      	ldr	r7, [pc, #40]	; (9504 <main+0x2c>)
    94dc:	4b0a      	ldr	r3, [pc, #40]	; (9508 <main+0x30>)
    94de:	44bd      	add	sp, r7
    94e0:	4798      	blx	r3
    94e2:	4b0a      	ldr	r3, [pc, #40]	; (950c <main+0x34>)
    94e4:	480a      	ldr	r0, [pc, #40]	; (9510 <main+0x38>)
    94e6:	4798      	blx	r3
    94e8:	4b0a      	ldr	r3, [pc, #40]	; (9514 <main+0x3c>)
    94ea:	4798      	blx	r3
    94ec:	2280      	movs	r2, #128	; 0x80
    94ee:	2080      	movs	r0, #128	; 0x80
    94f0:	4b09      	ldr	r3, [pc, #36]	; (9518 <main+0x40>)
    94f2:	0152      	lsls	r2, r2, #5
    94f4:	4669      	mov	r1, sp
    94f6:	0180      	lsls	r0, r0, #6
    94f8:	4798      	blx	r3
    94fa:	4808      	ldr	r0, [pc, #32]	; (951c <main+0x44>)
    94fc:	4b08      	ldr	r3, [pc, #32]	; (9520 <main+0x48>)
    94fe:	4798      	blx	r3
    9500:	e7fe      	b.n	9500 <main+0x28>
    9502:	46c0      	nop			; (mov r8, r8)
    9504:	fffff000 	.word	0xfffff000
    9508:	0000929d 	.word	0x0000929d
    950c:	0000b36d 	.word	0x0000b36d
    9510:	0000da60 	.word	0x0000da60
    9514:	0000917d 	.word	0x0000917d
    9518:	00008d3d 	.word	0x00008d3d
    951c:	0000da71 	.word	0x0000da71
    9520:	0000b489 	.word	0x0000b489

00009524 <__gnu_thumb1_case_uqi>:
    9524:	b402      	push	{r1}
    9526:	4671      	mov	r1, lr
    9528:	0849      	lsrs	r1, r1, #1
    952a:	0049      	lsls	r1, r1, #1
    952c:	5c09      	ldrb	r1, [r1, r0]
    952e:	0049      	lsls	r1, r1, #1
    9530:	448e      	add	lr, r1
    9532:	bc02      	pop	{r1}
    9534:	4770      	bx	lr
    9536:	46c0      	nop			; (mov r8, r8)

00009538 <__udivsi3>:
    9538:	2200      	movs	r2, #0
    953a:	0843      	lsrs	r3, r0, #1
    953c:	428b      	cmp	r3, r1
    953e:	d374      	bcc.n	962a <__udivsi3+0xf2>
    9540:	0903      	lsrs	r3, r0, #4
    9542:	428b      	cmp	r3, r1
    9544:	d35f      	bcc.n	9606 <__udivsi3+0xce>
    9546:	0a03      	lsrs	r3, r0, #8
    9548:	428b      	cmp	r3, r1
    954a:	d344      	bcc.n	95d6 <__udivsi3+0x9e>
    954c:	0b03      	lsrs	r3, r0, #12
    954e:	428b      	cmp	r3, r1
    9550:	d328      	bcc.n	95a4 <__udivsi3+0x6c>
    9552:	0c03      	lsrs	r3, r0, #16
    9554:	428b      	cmp	r3, r1
    9556:	d30d      	bcc.n	9574 <__udivsi3+0x3c>
    9558:	22ff      	movs	r2, #255	; 0xff
    955a:	0209      	lsls	r1, r1, #8
    955c:	ba12      	rev	r2, r2
    955e:	0c03      	lsrs	r3, r0, #16
    9560:	428b      	cmp	r3, r1
    9562:	d302      	bcc.n	956a <__udivsi3+0x32>
    9564:	1212      	asrs	r2, r2, #8
    9566:	0209      	lsls	r1, r1, #8
    9568:	d065      	beq.n	9636 <__udivsi3+0xfe>
    956a:	0b03      	lsrs	r3, r0, #12
    956c:	428b      	cmp	r3, r1
    956e:	d319      	bcc.n	95a4 <__udivsi3+0x6c>
    9570:	e000      	b.n	9574 <__udivsi3+0x3c>
    9572:	0a09      	lsrs	r1, r1, #8
    9574:	0bc3      	lsrs	r3, r0, #15
    9576:	428b      	cmp	r3, r1
    9578:	d301      	bcc.n	957e <__udivsi3+0x46>
    957a:	03cb      	lsls	r3, r1, #15
    957c:	1ac0      	subs	r0, r0, r3
    957e:	4152      	adcs	r2, r2
    9580:	0b83      	lsrs	r3, r0, #14
    9582:	428b      	cmp	r3, r1
    9584:	d301      	bcc.n	958a <__udivsi3+0x52>
    9586:	038b      	lsls	r3, r1, #14
    9588:	1ac0      	subs	r0, r0, r3
    958a:	4152      	adcs	r2, r2
    958c:	0b43      	lsrs	r3, r0, #13
    958e:	428b      	cmp	r3, r1
    9590:	d301      	bcc.n	9596 <__udivsi3+0x5e>
    9592:	034b      	lsls	r3, r1, #13
    9594:	1ac0      	subs	r0, r0, r3
    9596:	4152      	adcs	r2, r2
    9598:	0b03      	lsrs	r3, r0, #12
    959a:	428b      	cmp	r3, r1
    959c:	d301      	bcc.n	95a2 <__udivsi3+0x6a>
    959e:	030b      	lsls	r3, r1, #12
    95a0:	1ac0      	subs	r0, r0, r3
    95a2:	4152      	adcs	r2, r2
    95a4:	0ac3      	lsrs	r3, r0, #11
    95a6:	428b      	cmp	r3, r1
    95a8:	d301      	bcc.n	95ae <__udivsi3+0x76>
    95aa:	02cb      	lsls	r3, r1, #11
    95ac:	1ac0      	subs	r0, r0, r3
    95ae:	4152      	adcs	r2, r2
    95b0:	0a83      	lsrs	r3, r0, #10
    95b2:	428b      	cmp	r3, r1
    95b4:	d301      	bcc.n	95ba <__udivsi3+0x82>
    95b6:	028b      	lsls	r3, r1, #10
    95b8:	1ac0      	subs	r0, r0, r3
    95ba:	4152      	adcs	r2, r2
    95bc:	0a43      	lsrs	r3, r0, #9
    95be:	428b      	cmp	r3, r1
    95c0:	d301      	bcc.n	95c6 <__udivsi3+0x8e>
    95c2:	024b      	lsls	r3, r1, #9
    95c4:	1ac0      	subs	r0, r0, r3
    95c6:	4152      	adcs	r2, r2
    95c8:	0a03      	lsrs	r3, r0, #8
    95ca:	428b      	cmp	r3, r1
    95cc:	d301      	bcc.n	95d2 <__udivsi3+0x9a>
    95ce:	020b      	lsls	r3, r1, #8
    95d0:	1ac0      	subs	r0, r0, r3
    95d2:	4152      	adcs	r2, r2
    95d4:	d2cd      	bcs.n	9572 <__udivsi3+0x3a>
    95d6:	09c3      	lsrs	r3, r0, #7
    95d8:	428b      	cmp	r3, r1
    95da:	d301      	bcc.n	95e0 <__udivsi3+0xa8>
    95dc:	01cb      	lsls	r3, r1, #7
    95de:	1ac0      	subs	r0, r0, r3
    95e0:	4152      	adcs	r2, r2
    95e2:	0983      	lsrs	r3, r0, #6
    95e4:	428b      	cmp	r3, r1
    95e6:	d301      	bcc.n	95ec <__udivsi3+0xb4>
    95e8:	018b      	lsls	r3, r1, #6
    95ea:	1ac0      	subs	r0, r0, r3
    95ec:	4152      	adcs	r2, r2
    95ee:	0943      	lsrs	r3, r0, #5
    95f0:	428b      	cmp	r3, r1
    95f2:	d301      	bcc.n	95f8 <__udivsi3+0xc0>
    95f4:	014b      	lsls	r3, r1, #5
    95f6:	1ac0      	subs	r0, r0, r3
    95f8:	4152      	adcs	r2, r2
    95fa:	0903      	lsrs	r3, r0, #4
    95fc:	428b      	cmp	r3, r1
    95fe:	d301      	bcc.n	9604 <__udivsi3+0xcc>
    9600:	010b      	lsls	r3, r1, #4
    9602:	1ac0      	subs	r0, r0, r3
    9604:	4152      	adcs	r2, r2
    9606:	08c3      	lsrs	r3, r0, #3
    9608:	428b      	cmp	r3, r1
    960a:	d301      	bcc.n	9610 <__udivsi3+0xd8>
    960c:	00cb      	lsls	r3, r1, #3
    960e:	1ac0      	subs	r0, r0, r3
    9610:	4152      	adcs	r2, r2
    9612:	0883      	lsrs	r3, r0, #2
    9614:	428b      	cmp	r3, r1
    9616:	d301      	bcc.n	961c <__udivsi3+0xe4>
    9618:	008b      	lsls	r3, r1, #2
    961a:	1ac0      	subs	r0, r0, r3
    961c:	4152      	adcs	r2, r2
    961e:	0843      	lsrs	r3, r0, #1
    9620:	428b      	cmp	r3, r1
    9622:	d301      	bcc.n	9628 <__udivsi3+0xf0>
    9624:	004b      	lsls	r3, r1, #1
    9626:	1ac0      	subs	r0, r0, r3
    9628:	4152      	adcs	r2, r2
    962a:	1a41      	subs	r1, r0, r1
    962c:	d200      	bcs.n	9630 <__udivsi3+0xf8>
    962e:	4601      	mov	r1, r0
    9630:	4152      	adcs	r2, r2
    9632:	4610      	mov	r0, r2
    9634:	4770      	bx	lr
    9636:	e7ff      	b.n	9638 <__udivsi3+0x100>
    9638:	b501      	push	{r0, lr}
    963a:	2000      	movs	r0, #0
    963c:	f000 f8f0 	bl	9820 <__aeabi_idiv0>
    9640:	bd02      	pop	{r1, pc}
    9642:	46c0      	nop			; (mov r8, r8)

00009644 <__aeabi_uidivmod>:
    9644:	2900      	cmp	r1, #0
    9646:	d0f7      	beq.n	9638 <__udivsi3+0x100>
    9648:	e776      	b.n	9538 <__udivsi3>
    964a:	4770      	bx	lr

0000964c <__divsi3>:
    964c:	4603      	mov	r3, r0
    964e:	430b      	orrs	r3, r1
    9650:	d47f      	bmi.n	9752 <__divsi3+0x106>
    9652:	2200      	movs	r2, #0
    9654:	0843      	lsrs	r3, r0, #1
    9656:	428b      	cmp	r3, r1
    9658:	d374      	bcc.n	9744 <__divsi3+0xf8>
    965a:	0903      	lsrs	r3, r0, #4
    965c:	428b      	cmp	r3, r1
    965e:	d35f      	bcc.n	9720 <__divsi3+0xd4>
    9660:	0a03      	lsrs	r3, r0, #8
    9662:	428b      	cmp	r3, r1
    9664:	d344      	bcc.n	96f0 <__divsi3+0xa4>
    9666:	0b03      	lsrs	r3, r0, #12
    9668:	428b      	cmp	r3, r1
    966a:	d328      	bcc.n	96be <__divsi3+0x72>
    966c:	0c03      	lsrs	r3, r0, #16
    966e:	428b      	cmp	r3, r1
    9670:	d30d      	bcc.n	968e <__divsi3+0x42>
    9672:	22ff      	movs	r2, #255	; 0xff
    9674:	0209      	lsls	r1, r1, #8
    9676:	ba12      	rev	r2, r2
    9678:	0c03      	lsrs	r3, r0, #16
    967a:	428b      	cmp	r3, r1
    967c:	d302      	bcc.n	9684 <__divsi3+0x38>
    967e:	1212      	asrs	r2, r2, #8
    9680:	0209      	lsls	r1, r1, #8
    9682:	d065      	beq.n	9750 <__divsi3+0x104>
    9684:	0b03      	lsrs	r3, r0, #12
    9686:	428b      	cmp	r3, r1
    9688:	d319      	bcc.n	96be <__divsi3+0x72>
    968a:	e000      	b.n	968e <__divsi3+0x42>
    968c:	0a09      	lsrs	r1, r1, #8
    968e:	0bc3      	lsrs	r3, r0, #15
    9690:	428b      	cmp	r3, r1
    9692:	d301      	bcc.n	9698 <__divsi3+0x4c>
    9694:	03cb      	lsls	r3, r1, #15
    9696:	1ac0      	subs	r0, r0, r3
    9698:	4152      	adcs	r2, r2
    969a:	0b83      	lsrs	r3, r0, #14
    969c:	428b      	cmp	r3, r1
    969e:	d301      	bcc.n	96a4 <__divsi3+0x58>
    96a0:	038b      	lsls	r3, r1, #14
    96a2:	1ac0      	subs	r0, r0, r3
    96a4:	4152      	adcs	r2, r2
    96a6:	0b43      	lsrs	r3, r0, #13
    96a8:	428b      	cmp	r3, r1
    96aa:	d301      	bcc.n	96b0 <__divsi3+0x64>
    96ac:	034b      	lsls	r3, r1, #13
    96ae:	1ac0      	subs	r0, r0, r3
    96b0:	4152      	adcs	r2, r2
    96b2:	0b03      	lsrs	r3, r0, #12
    96b4:	428b      	cmp	r3, r1
    96b6:	d301      	bcc.n	96bc <__divsi3+0x70>
    96b8:	030b      	lsls	r3, r1, #12
    96ba:	1ac0      	subs	r0, r0, r3
    96bc:	4152      	adcs	r2, r2
    96be:	0ac3      	lsrs	r3, r0, #11
    96c0:	428b      	cmp	r3, r1
    96c2:	d301      	bcc.n	96c8 <__divsi3+0x7c>
    96c4:	02cb      	lsls	r3, r1, #11
    96c6:	1ac0      	subs	r0, r0, r3
    96c8:	4152      	adcs	r2, r2
    96ca:	0a83      	lsrs	r3, r0, #10
    96cc:	428b      	cmp	r3, r1
    96ce:	d301      	bcc.n	96d4 <__divsi3+0x88>
    96d0:	028b      	lsls	r3, r1, #10
    96d2:	1ac0      	subs	r0, r0, r3
    96d4:	4152      	adcs	r2, r2
    96d6:	0a43      	lsrs	r3, r0, #9
    96d8:	428b      	cmp	r3, r1
    96da:	d301      	bcc.n	96e0 <__divsi3+0x94>
    96dc:	024b      	lsls	r3, r1, #9
    96de:	1ac0      	subs	r0, r0, r3
    96e0:	4152      	adcs	r2, r2
    96e2:	0a03      	lsrs	r3, r0, #8
    96e4:	428b      	cmp	r3, r1
    96e6:	d301      	bcc.n	96ec <__divsi3+0xa0>
    96e8:	020b      	lsls	r3, r1, #8
    96ea:	1ac0      	subs	r0, r0, r3
    96ec:	4152      	adcs	r2, r2
    96ee:	d2cd      	bcs.n	968c <__divsi3+0x40>
    96f0:	09c3      	lsrs	r3, r0, #7
    96f2:	428b      	cmp	r3, r1
    96f4:	d301      	bcc.n	96fa <__divsi3+0xae>
    96f6:	01cb      	lsls	r3, r1, #7
    96f8:	1ac0      	subs	r0, r0, r3
    96fa:	4152      	adcs	r2, r2
    96fc:	0983      	lsrs	r3, r0, #6
    96fe:	428b      	cmp	r3, r1
    9700:	d301      	bcc.n	9706 <__divsi3+0xba>
    9702:	018b      	lsls	r3, r1, #6
    9704:	1ac0      	subs	r0, r0, r3
    9706:	4152      	adcs	r2, r2
    9708:	0943      	lsrs	r3, r0, #5
    970a:	428b      	cmp	r3, r1
    970c:	d301      	bcc.n	9712 <__divsi3+0xc6>
    970e:	014b      	lsls	r3, r1, #5
    9710:	1ac0      	subs	r0, r0, r3
    9712:	4152      	adcs	r2, r2
    9714:	0903      	lsrs	r3, r0, #4
    9716:	428b      	cmp	r3, r1
    9718:	d301      	bcc.n	971e <__divsi3+0xd2>
    971a:	010b      	lsls	r3, r1, #4
    971c:	1ac0      	subs	r0, r0, r3
    971e:	4152      	adcs	r2, r2
    9720:	08c3      	lsrs	r3, r0, #3
    9722:	428b      	cmp	r3, r1
    9724:	d301      	bcc.n	972a <__divsi3+0xde>
    9726:	00cb      	lsls	r3, r1, #3
    9728:	1ac0      	subs	r0, r0, r3
    972a:	4152      	adcs	r2, r2
    972c:	0883      	lsrs	r3, r0, #2
    972e:	428b      	cmp	r3, r1
    9730:	d301      	bcc.n	9736 <__divsi3+0xea>
    9732:	008b      	lsls	r3, r1, #2
    9734:	1ac0      	subs	r0, r0, r3
    9736:	4152      	adcs	r2, r2
    9738:	0843      	lsrs	r3, r0, #1
    973a:	428b      	cmp	r3, r1
    973c:	d301      	bcc.n	9742 <__divsi3+0xf6>
    973e:	004b      	lsls	r3, r1, #1
    9740:	1ac0      	subs	r0, r0, r3
    9742:	4152      	adcs	r2, r2
    9744:	1a41      	subs	r1, r0, r1
    9746:	d200      	bcs.n	974a <__divsi3+0xfe>
    9748:	4601      	mov	r1, r0
    974a:	4152      	adcs	r2, r2
    974c:	4610      	mov	r0, r2
    974e:	4770      	bx	lr
    9750:	e05d      	b.n	980e <__divsi3+0x1c2>
    9752:	0fca      	lsrs	r2, r1, #31
    9754:	d000      	beq.n	9758 <__divsi3+0x10c>
    9756:	4249      	negs	r1, r1
    9758:	1003      	asrs	r3, r0, #32
    975a:	d300      	bcc.n	975e <__divsi3+0x112>
    975c:	4240      	negs	r0, r0
    975e:	4053      	eors	r3, r2
    9760:	2200      	movs	r2, #0
    9762:	469c      	mov	ip, r3
    9764:	0903      	lsrs	r3, r0, #4
    9766:	428b      	cmp	r3, r1
    9768:	d32d      	bcc.n	97c6 <__divsi3+0x17a>
    976a:	0a03      	lsrs	r3, r0, #8
    976c:	428b      	cmp	r3, r1
    976e:	d312      	bcc.n	9796 <__divsi3+0x14a>
    9770:	22fc      	movs	r2, #252	; 0xfc
    9772:	0189      	lsls	r1, r1, #6
    9774:	ba12      	rev	r2, r2
    9776:	0a03      	lsrs	r3, r0, #8
    9778:	428b      	cmp	r3, r1
    977a:	d30c      	bcc.n	9796 <__divsi3+0x14a>
    977c:	0189      	lsls	r1, r1, #6
    977e:	1192      	asrs	r2, r2, #6
    9780:	428b      	cmp	r3, r1
    9782:	d308      	bcc.n	9796 <__divsi3+0x14a>
    9784:	0189      	lsls	r1, r1, #6
    9786:	1192      	asrs	r2, r2, #6
    9788:	428b      	cmp	r3, r1
    978a:	d304      	bcc.n	9796 <__divsi3+0x14a>
    978c:	0189      	lsls	r1, r1, #6
    978e:	d03a      	beq.n	9806 <__divsi3+0x1ba>
    9790:	1192      	asrs	r2, r2, #6
    9792:	e000      	b.n	9796 <__divsi3+0x14a>
    9794:	0989      	lsrs	r1, r1, #6
    9796:	09c3      	lsrs	r3, r0, #7
    9798:	428b      	cmp	r3, r1
    979a:	d301      	bcc.n	97a0 <__divsi3+0x154>
    979c:	01cb      	lsls	r3, r1, #7
    979e:	1ac0      	subs	r0, r0, r3
    97a0:	4152      	adcs	r2, r2
    97a2:	0983      	lsrs	r3, r0, #6
    97a4:	428b      	cmp	r3, r1
    97a6:	d301      	bcc.n	97ac <__divsi3+0x160>
    97a8:	018b      	lsls	r3, r1, #6
    97aa:	1ac0      	subs	r0, r0, r3
    97ac:	4152      	adcs	r2, r2
    97ae:	0943      	lsrs	r3, r0, #5
    97b0:	428b      	cmp	r3, r1
    97b2:	d301      	bcc.n	97b8 <__divsi3+0x16c>
    97b4:	014b      	lsls	r3, r1, #5
    97b6:	1ac0      	subs	r0, r0, r3
    97b8:	4152      	adcs	r2, r2
    97ba:	0903      	lsrs	r3, r0, #4
    97bc:	428b      	cmp	r3, r1
    97be:	d301      	bcc.n	97c4 <__divsi3+0x178>
    97c0:	010b      	lsls	r3, r1, #4
    97c2:	1ac0      	subs	r0, r0, r3
    97c4:	4152      	adcs	r2, r2
    97c6:	08c3      	lsrs	r3, r0, #3
    97c8:	428b      	cmp	r3, r1
    97ca:	d301      	bcc.n	97d0 <__divsi3+0x184>
    97cc:	00cb      	lsls	r3, r1, #3
    97ce:	1ac0      	subs	r0, r0, r3
    97d0:	4152      	adcs	r2, r2
    97d2:	0883      	lsrs	r3, r0, #2
    97d4:	428b      	cmp	r3, r1
    97d6:	d301      	bcc.n	97dc <__divsi3+0x190>
    97d8:	008b      	lsls	r3, r1, #2
    97da:	1ac0      	subs	r0, r0, r3
    97dc:	4152      	adcs	r2, r2
    97de:	d2d9      	bcs.n	9794 <__divsi3+0x148>
    97e0:	0843      	lsrs	r3, r0, #1
    97e2:	428b      	cmp	r3, r1
    97e4:	d301      	bcc.n	97ea <__divsi3+0x19e>
    97e6:	004b      	lsls	r3, r1, #1
    97e8:	1ac0      	subs	r0, r0, r3
    97ea:	4152      	adcs	r2, r2
    97ec:	1a41      	subs	r1, r0, r1
    97ee:	d200      	bcs.n	97f2 <__divsi3+0x1a6>
    97f0:	4601      	mov	r1, r0
    97f2:	4663      	mov	r3, ip
    97f4:	4152      	adcs	r2, r2
    97f6:	105b      	asrs	r3, r3, #1
    97f8:	4610      	mov	r0, r2
    97fa:	d301      	bcc.n	9800 <__divsi3+0x1b4>
    97fc:	4240      	negs	r0, r0
    97fe:	2b00      	cmp	r3, #0
    9800:	d500      	bpl.n	9804 <__divsi3+0x1b8>
    9802:	4249      	negs	r1, r1
    9804:	4770      	bx	lr
    9806:	4663      	mov	r3, ip
    9808:	105b      	asrs	r3, r3, #1
    980a:	d300      	bcc.n	980e <__divsi3+0x1c2>
    980c:	4240      	negs	r0, r0
    980e:	b501      	push	{r0, lr}
    9810:	2000      	movs	r0, #0
    9812:	f000 f805 	bl	9820 <__aeabi_idiv0>
    9816:	bd02      	pop	{r1, pc}

00009818 <__aeabi_idivmod>:
    9818:	2900      	cmp	r1, #0
    981a:	d0f8      	beq.n	980e <__divsi3+0x1c2>
    981c:	e716      	b.n	964c <__divsi3>
    981e:	4770      	bx	lr

00009820 <__aeabi_idiv0>:
    9820:	4770      	bx	lr
    9822:	46c0      	nop			; (mov r8, r8)

00009824 <__aeabi_llsl>:
    9824:	4091      	lsls	r1, r2
    9826:	1c03      	adds	r3, r0, #0
    9828:	4090      	lsls	r0, r2
    982a:	469c      	mov	ip, r3
    982c:	3a20      	subs	r2, #32
    982e:	4093      	lsls	r3, r2
    9830:	4319      	orrs	r1, r3
    9832:	4252      	negs	r2, r2
    9834:	4663      	mov	r3, ip
    9836:	40d3      	lsrs	r3, r2
    9838:	4319      	orrs	r1, r3
    983a:	4770      	bx	lr

0000983c <__aeabi_lmul>:
    983c:	b5f0      	push	{r4, r5, r6, r7, lr}
    983e:	46ce      	mov	lr, r9
    9840:	4647      	mov	r7, r8
    9842:	0415      	lsls	r5, r2, #16
    9844:	0c2d      	lsrs	r5, r5, #16
    9846:	002e      	movs	r6, r5
    9848:	b580      	push	{r7, lr}
    984a:	0407      	lsls	r7, r0, #16
    984c:	0c14      	lsrs	r4, r2, #16
    984e:	0c3f      	lsrs	r7, r7, #16
    9850:	4699      	mov	r9, r3
    9852:	0c03      	lsrs	r3, r0, #16
    9854:	437e      	muls	r6, r7
    9856:	435d      	muls	r5, r3
    9858:	4367      	muls	r7, r4
    985a:	4363      	muls	r3, r4
    985c:	197f      	adds	r7, r7, r5
    985e:	0c34      	lsrs	r4, r6, #16
    9860:	19e4      	adds	r4, r4, r7
    9862:	469c      	mov	ip, r3
    9864:	42a5      	cmp	r5, r4
    9866:	d903      	bls.n	9870 <__aeabi_lmul+0x34>
    9868:	2380      	movs	r3, #128	; 0x80
    986a:	025b      	lsls	r3, r3, #9
    986c:	4698      	mov	r8, r3
    986e:	44c4      	add	ip, r8
    9870:	464b      	mov	r3, r9
    9872:	4351      	muls	r1, r2
    9874:	4343      	muls	r3, r0
    9876:	0436      	lsls	r6, r6, #16
    9878:	0c36      	lsrs	r6, r6, #16
    987a:	0c25      	lsrs	r5, r4, #16
    987c:	0424      	lsls	r4, r4, #16
    987e:	4465      	add	r5, ip
    9880:	19a4      	adds	r4, r4, r6
    9882:	1859      	adds	r1, r3, r1
    9884:	1949      	adds	r1, r1, r5
    9886:	0020      	movs	r0, r4
    9888:	bc0c      	pop	{r2, r3}
    988a:	4690      	mov	r8, r2
    988c:	4699      	mov	r9, r3
    988e:	bdf0      	pop	{r4, r5, r6, r7, pc}

00009890 <__aeabi_dadd>:
    9890:	b5f8      	push	{r3, r4, r5, r6, r7, lr}
    9892:	4645      	mov	r5, r8
    9894:	46de      	mov	lr, fp
    9896:	4657      	mov	r7, sl
    9898:	464e      	mov	r6, r9
    989a:	030c      	lsls	r4, r1, #12
    989c:	b5e0      	push	{r5, r6, r7, lr}
    989e:	004e      	lsls	r6, r1, #1
    98a0:	0fc9      	lsrs	r1, r1, #31
    98a2:	4688      	mov	r8, r1
    98a4:	000d      	movs	r5, r1
    98a6:	0a61      	lsrs	r1, r4, #9
    98a8:	0f44      	lsrs	r4, r0, #29
    98aa:	430c      	orrs	r4, r1
    98ac:	00c7      	lsls	r7, r0, #3
    98ae:	0319      	lsls	r1, r3, #12
    98b0:	0058      	lsls	r0, r3, #1
    98b2:	0fdb      	lsrs	r3, r3, #31
    98b4:	469b      	mov	fp, r3
    98b6:	0a4b      	lsrs	r3, r1, #9
    98b8:	0f51      	lsrs	r1, r2, #29
    98ba:	430b      	orrs	r3, r1
    98bc:	0d76      	lsrs	r6, r6, #21
    98be:	0d40      	lsrs	r0, r0, #21
    98c0:	0019      	movs	r1, r3
    98c2:	00d2      	lsls	r2, r2, #3
    98c4:	45d8      	cmp	r8, fp
    98c6:	d100      	bne.n	98ca <__aeabi_dadd+0x3a>
    98c8:	e0ae      	b.n	9a28 <__aeabi_dadd+0x198>
    98ca:	1a35      	subs	r5, r6, r0
    98cc:	2d00      	cmp	r5, #0
    98ce:	dc00      	bgt.n	98d2 <__aeabi_dadd+0x42>
    98d0:	e0f6      	b.n	9ac0 <__aeabi_dadd+0x230>
    98d2:	2800      	cmp	r0, #0
    98d4:	d10f      	bne.n	98f6 <__aeabi_dadd+0x66>
    98d6:	4313      	orrs	r3, r2
    98d8:	d100      	bne.n	98dc <__aeabi_dadd+0x4c>
    98da:	e0db      	b.n	9a94 <__aeabi_dadd+0x204>
    98dc:	1e6b      	subs	r3, r5, #1
    98de:	2b00      	cmp	r3, #0
    98e0:	d000      	beq.n	98e4 <__aeabi_dadd+0x54>
    98e2:	e137      	b.n	9b54 <__aeabi_dadd+0x2c4>
    98e4:	1aba      	subs	r2, r7, r2
    98e6:	4297      	cmp	r7, r2
    98e8:	41bf      	sbcs	r7, r7
    98ea:	1a64      	subs	r4, r4, r1
    98ec:	427f      	negs	r7, r7
    98ee:	1be4      	subs	r4, r4, r7
    98f0:	2601      	movs	r6, #1
    98f2:	0017      	movs	r7, r2
    98f4:	e024      	b.n	9940 <__aeabi_dadd+0xb0>
    98f6:	4bc6      	ldr	r3, [pc, #792]	; (9c10 <__aeabi_dadd+0x380>)
    98f8:	429e      	cmp	r6, r3
    98fa:	d04d      	beq.n	9998 <__aeabi_dadd+0x108>
    98fc:	2380      	movs	r3, #128	; 0x80
    98fe:	041b      	lsls	r3, r3, #16
    9900:	4319      	orrs	r1, r3
    9902:	2d38      	cmp	r5, #56	; 0x38
    9904:	dd00      	ble.n	9908 <__aeabi_dadd+0x78>
    9906:	e107      	b.n	9b18 <__aeabi_dadd+0x288>
    9908:	2d1f      	cmp	r5, #31
    990a:	dd00      	ble.n	990e <__aeabi_dadd+0x7e>
    990c:	e138      	b.n	9b80 <__aeabi_dadd+0x2f0>
    990e:	2020      	movs	r0, #32
    9910:	1b43      	subs	r3, r0, r5
    9912:	469a      	mov	sl, r3
    9914:	000b      	movs	r3, r1
    9916:	4650      	mov	r0, sl
    9918:	4083      	lsls	r3, r0
    991a:	4699      	mov	r9, r3
    991c:	0013      	movs	r3, r2
    991e:	4648      	mov	r0, r9
    9920:	40eb      	lsrs	r3, r5
    9922:	4318      	orrs	r0, r3
    9924:	0003      	movs	r3, r0
    9926:	4650      	mov	r0, sl
    9928:	4082      	lsls	r2, r0
    992a:	1e50      	subs	r0, r2, #1
    992c:	4182      	sbcs	r2, r0
    992e:	40e9      	lsrs	r1, r5
    9930:	431a      	orrs	r2, r3
    9932:	1aba      	subs	r2, r7, r2
    9934:	1a61      	subs	r1, r4, r1
    9936:	4297      	cmp	r7, r2
    9938:	41a4      	sbcs	r4, r4
    993a:	0017      	movs	r7, r2
    993c:	4264      	negs	r4, r4
    993e:	1b0c      	subs	r4, r1, r4
    9940:	0223      	lsls	r3, r4, #8
    9942:	d562      	bpl.n	9a0a <__aeabi_dadd+0x17a>
    9944:	0264      	lsls	r4, r4, #9
    9946:	0a65      	lsrs	r5, r4, #9
    9948:	2d00      	cmp	r5, #0
    994a:	d100      	bne.n	994e <__aeabi_dadd+0xbe>
    994c:	e0df      	b.n	9b0e <__aeabi_dadd+0x27e>
    994e:	0028      	movs	r0, r5
    9950:	f001 fbe4 	bl	b11c <__clzsi2>
    9954:	0003      	movs	r3, r0
    9956:	3b08      	subs	r3, #8
    9958:	2b1f      	cmp	r3, #31
    995a:	dd00      	ble.n	995e <__aeabi_dadd+0xce>
    995c:	e0d2      	b.n	9b04 <__aeabi_dadd+0x274>
    995e:	2220      	movs	r2, #32
    9960:	003c      	movs	r4, r7
    9962:	1ad2      	subs	r2, r2, r3
    9964:	409d      	lsls	r5, r3
    9966:	40d4      	lsrs	r4, r2
    9968:	409f      	lsls	r7, r3
    996a:	4325      	orrs	r5, r4
    996c:	429e      	cmp	r6, r3
    996e:	dd00      	ble.n	9972 <__aeabi_dadd+0xe2>
    9970:	e0c4      	b.n	9afc <__aeabi_dadd+0x26c>
    9972:	1b9e      	subs	r6, r3, r6
    9974:	1c73      	adds	r3, r6, #1
    9976:	2b1f      	cmp	r3, #31
    9978:	dd00      	ble.n	997c <__aeabi_dadd+0xec>
    997a:	e0f1      	b.n	9b60 <__aeabi_dadd+0x2d0>
    997c:	2220      	movs	r2, #32
    997e:	0038      	movs	r0, r7
    9980:	0029      	movs	r1, r5
    9982:	1ad2      	subs	r2, r2, r3
    9984:	40d8      	lsrs	r0, r3
    9986:	4091      	lsls	r1, r2
    9988:	4097      	lsls	r7, r2
    998a:	002c      	movs	r4, r5
    998c:	4301      	orrs	r1, r0
    998e:	1e78      	subs	r0, r7, #1
    9990:	4187      	sbcs	r7, r0
    9992:	40dc      	lsrs	r4, r3
    9994:	2600      	movs	r6, #0
    9996:	430f      	orrs	r7, r1
    9998:	077b      	lsls	r3, r7, #29
    999a:	d009      	beq.n	99b0 <__aeabi_dadd+0x120>
    999c:	230f      	movs	r3, #15
    999e:	403b      	ands	r3, r7
    99a0:	2b04      	cmp	r3, #4
    99a2:	d005      	beq.n	99b0 <__aeabi_dadd+0x120>
    99a4:	1d3b      	adds	r3, r7, #4
    99a6:	42bb      	cmp	r3, r7
    99a8:	41bf      	sbcs	r7, r7
    99aa:	427f      	negs	r7, r7
    99ac:	19e4      	adds	r4, r4, r7
    99ae:	001f      	movs	r7, r3
    99b0:	0223      	lsls	r3, r4, #8
    99b2:	d52c      	bpl.n	9a0e <__aeabi_dadd+0x17e>
    99b4:	4b96      	ldr	r3, [pc, #600]	; (9c10 <__aeabi_dadd+0x380>)
    99b6:	3601      	adds	r6, #1
    99b8:	429e      	cmp	r6, r3
    99ba:	d100      	bne.n	99be <__aeabi_dadd+0x12e>
    99bc:	e09a      	b.n	9af4 <__aeabi_dadd+0x264>
    99be:	4645      	mov	r5, r8
    99c0:	4b94      	ldr	r3, [pc, #592]	; (9c14 <__aeabi_dadd+0x384>)
    99c2:	08ff      	lsrs	r7, r7, #3
    99c4:	401c      	ands	r4, r3
    99c6:	0760      	lsls	r0, r4, #29
    99c8:	0576      	lsls	r6, r6, #21
    99ca:	0264      	lsls	r4, r4, #9
    99cc:	4307      	orrs	r7, r0
    99ce:	0b24      	lsrs	r4, r4, #12
    99d0:	0d76      	lsrs	r6, r6, #21
    99d2:	2100      	movs	r1, #0
    99d4:	0324      	lsls	r4, r4, #12
    99d6:	0b23      	lsrs	r3, r4, #12
    99d8:	0d0c      	lsrs	r4, r1, #20
    99da:	4a8f      	ldr	r2, [pc, #572]	; (9c18 <__aeabi_dadd+0x388>)
    99dc:	0524      	lsls	r4, r4, #20
    99de:	431c      	orrs	r4, r3
    99e0:	4014      	ands	r4, r2
    99e2:	0533      	lsls	r3, r6, #20
    99e4:	4323      	orrs	r3, r4
    99e6:	005b      	lsls	r3, r3, #1
    99e8:	07ed      	lsls	r5, r5, #31
    99ea:	085b      	lsrs	r3, r3, #1
    99ec:	432b      	orrs	r3, r5
    99ee:	0038      	movs	r0, r7
    99f0:	0019      	movs	r1, r3
    99f2:	bc3c      	pop	{r2, r3, r4, r5}
    99f4:	4690      	mov	r8, r2
    99f6:	4699      	mov	r9, r3
    99f8:	46a2      	mov	sl, r4
    99fa:	46ab      	mov	fp, r5
    99fc:	bdf8      	pop	{r3, r4, r5, r6, r7, pc}
    99fe:	4664      	mov	r4, ip
    9a00:	4304      	orrs	r4, r0
    9a02:	d100      	bne.n	9a06 <__aeabi_dadd+0x176>
    9a04:	e211      	b.n	9e2a <__aeabi_dadd+0x59a>
    9a06:	0004      	movs	r4, r0
    9a08:	4667      	mov	r7, ip
    9a0a:	077b      	lsls	r3, r7, #29
    9a0c:	d1c6      	bne.n	999c <__aeabi_dadd+0x10c>
    9a0e:	4645      	mov	r5, r8
    9a10:	0760      	lsls	r0, r4, #29
    9a12:	08ff      	lsrs	r7, r7, #3
    9a14:	4307      	orrs	r7, r0
    9a16:	08e4      	lsrs	r4, r4, #3
    9a18:	4b7d      	ldr	r3, [pc, #500]	; (9c10 <__aeabi_dadd+0x380>)
    9a1a:	429e      	cmp	r6, r3
    9a1c:	d030      	beq.n	9a80 <__aeabi_dadd+0x1f0>
    9a1e:	0324      	lsls	r4, r4, #12
    9a20:	0576      	lsls	r6, r6, #21
    9a22:	0b24      	lsrs	r4, r4, #12
    9a24:	0d76      	lsrs	r6, r6, #21
    9a26:	e7d4      	b.n	99d2 <__aeabi_dadd+0x142>
    9a28:	1a33      	subs	r3, r6, r0
    9a2a:	469a      	mov	sl, r3
    9a2c:	2b00      	cmp	r3, #0
    9a2e:	dd78      	ble.n	9b22 <__aeabi_dadd+0x292>
    9a30:	2800      	cmp	r0, #0
    9a32:	d031      	beq.n	9a98 <__aeabi_dadd+0x208>
    9a34:	4876      	ldr	r0, [pc, #472]	; (9c10 <__aeabi_dadd+0x380>)
    9a36:	4286      	cmp	r6, r0
    9a38:	d0ae      	beq.n	9998 <__aeabi_dadd+0x108>
    9a3a:	2080      	movs	r0, #128	; 0x80
    9a3c:	0400      	lsls	r0, r0, #16
    9a3e:	4301      	orrs	r1, r0
    9a40:	4653      	mov	r3, sl
    9a42:	2b38      	cmp	r3, #56	; 0x38
    9a44:	dc00      	bgt.n	9a48 <__aeabi_dadd+0x1b8>
    9a46:	e0e9      	b.n	9c1c <__aeabi_dadd+0x38c>
    9a48:	430a      	orrs	r2, r1
    9a4a:	1e51      	subs	r1, r2, #1
    9a4c:	418a      	sbcs	r2, r1
    9a4e:	2100      	movs	r1, #0
    9a50:	19d2      	adds	r2, r2, r7
    9a52:	42ba      	cmp	r2, r7
    9a54:	41bf      	sbcs	r7, r7
    9a56:	1909      	adds	r1, r1, r4
    9a58:	427c      	negs	r4, r7
    9a5a:	0017      	movs	r7, r2
    9a5c:	190c      	adds	r4, r1, r4
    9a5e:	0223      	lsls	r3, r4, #8
    9a60:	d5d3      	bpl.n	9a0a <__aeabi_dadd+0x17a>
    9a62:	4b6b      	ldr	r3, [pc, #428]	; (9c10 <__aeabi_dadd+0x380>)
    9a64:	3601      	adds	r6, #1
    9a66:	429e      	cmp	r6, r3
    9a68:	d100      	bne.n	9a6c <__aeabi_dadd+0x1dc>
    9a6a:	e13a      	b.n	9ce2 <__aeabi_dadd+0x452>
    9a6c:	2001      	movs	r0, #1
    9a6e:	4b69      	ldr	r3, [pc, #420]	; (9c14 <__aeabi_dadd+0x384>)
    9a70:	401c      	ands	r4, r3
    9a72:	087b      	lsrs	r3, r7, #1
    9a74:	4007      	ands	r7, r0
    9a76:	431f      	orrs	r7, r3
    9a78:	07e0      	lsls	r0, r4, #31
    9a7a:	4307      	orrs	r7, r0
    9a7c:	0864      	lsrs	r4, r4, #1
    9a7e:	e78b      	b.n	9998 <__aeabi_dadd+0x108>
    9a80:	0023      	movs	r3, r4
    9a82:	433b      	orrs	r3, r7
    9a84:	d100      	bne.n	9a88 <__aeabi_dadd+0x1f8>
    9a86:	e1cb      	b.n	9e20 <__aeabi_dadd+0x590>
    9a88:	2280      	movs	r2, #128	; 0x80
    9a8a:	0312      	lsls	r2, r2, #12
    9a8c:	4314      	orrs	r4, r2
    9a8e:	0324      	lsls	r4, r4, #12
    9a90:	0b24      	lsrs	r4, r4, #12
    9a92:	e79e      	b.n	99d2 <__aeabi_dadd+0x142>
    9a94:	002e      	movs	r6, r5
    9a96:	e77f      	b.n	9998 <__aeabi_dadd+0x108>
    9a98:	0008      	movs	r0, r1
    9a9a:	4310      	orrs	r0, r2
    9a9c:	d100      	bne.n	9aa0 <__aeabi_dadd+0x210>
    9a9e:	e0b4      	b.n	9c0a <__aeabi_dadd+0x37a>
    9aa0:	1e58      	subs	r0, r3, #1
    9aa2:	2800      	cmp	r0, #0
    9aa4:	d000      	beq.n	9aa8 <__aeabi_dadd+0x218>
    9aa6:	e0de      	b.n	9c66 <__aeabi_dadd+0x3d6>
    9aa8:	18ba      	adds	r2, r7, r2
    9aaa:	42ba      	cmp	r2, r7
    9aac:	419b      	sbcs	r3, r3
    9aae:	1864      	adds	r4, r4, r1
    9ab0:	425b      	negs	r3, r3
    9ab2:	18e4      	adds	r4, r4, r3
    9ab4:	0017      	movs	r7, r2
    9ab6:	2601      	movs	r6, #1
    9ab8:	0223      	lsls	r3, r4, #8
    9aba:	d5a6      	bpl.n	9a0a <__aeabi_dadd+0x17a>
    9abc:	2602      	movs	r6, #2
    9abe:	e7d5      	b.n	9a6c <__aeabi_dadd+0x1dc>
    9ac0:	2d00      	cmp	r5, #0
    9ac2:	d16e      	bne.n	9ba2 <__aeabi_dadd+0x312>
    9ac4:	1c70      	adds	r0, r6, #1
    9ac6:	0540      	lsls	r0, r0, #21
    9ac8:	0d40      	lsrs	r0, r0, #21
    9aca:	2801      	cmp	r0, #1
    9acc:	dc00      	bgt.n	9ad0 <__aeabi_dadd+0x240>
    9ace:	e0f9      	b.n	9cc4 <__aeabi_dadd+0x434>
    9ad0:	1ab8      	subs	r0, r7, r2
    9ad2:	4684      	mov	ip, r0
    9ad4:	4287      	cmp	r7, r0
    9ad6:	4180      	sbcs	r0, r0
    9ad8:	1ae5      	subs	r5, r4, r3
    9ada:	4240      	negs	r0, r0
    9adc:	1a2d      	subs	r5, r5, r0
    9ade:	0228      	lsls	r0, r5, #8
    9ae0:	d400      	bmi.n	9ae4 <__aeabi_dadd+0x254>
    9ae2:	e089      	b.n	9bf8 <__aeabi_dadd+0x368>
    9ae4:	1bd7      	subs	r7, r2, r7
    9ae6:	42ba      	cmp	r2, r7
    9ae8:	4192      	sbcs	r2, r2
    9aea:	1b1c      	subs	r4, r3, r4
    9aec:	4252      	negs	r2, r2
    9aee:	1aa5      	subs	r5, r4, r2
    9af0:	46d8      	mov	r8, fp
    9af2:	e729      	b.n	9948 <__aeabi_dadd+0xb8>
    9af4:	4645      	mov	r5, r8
    9af6:	2400      	movs	r4, #0
    9af8:	2700      	movs	r7, #0
    9afa:	e76a      	b.n	99d2 <__aeabi_dadd+0x142>
    9afc:	4c45      	ldr	r4, [pc, #276]	; (9c14 <__aeabi_dadd+0x384>)
    9afe:	1af6      	subs	r6, r6, r3
    9b00:	402c      	ands	r4, r5
    9b02:	e749      	b.n	9998 <__aeabi_dadd+0x108>
    9b04:	003d      	movs	r5, r7
    9b06:	3828      	subs	r0, #40	; 0x28
    9b08:	4085      	lsls	r5, r0
    9b0a:	2700      	movs	r7, #0
    9b0c:	e72e      	b.n	996c <__aeabi_dadd+0xdc>
    9b0e:	0038      	movs	r0, r7
    9b10:	f001 fb04 	bl	b11c <__clzsi2>
    9b14:	3020      	adds	r0, #32
    9b16:	e71d      	b.n	9954 <__aeabi_dadd+0xc4>
    9b18:	430a      	orrs	r2, r1
    9b1a:	1e51      	subs	r1, r2, #1
    9b1c:	418a      	sbcs	r2, r1
    9b1e:	2100      	movs	r1, #0
    9b20:	e707      	b.n	9932 <__aeabi_dadd+0xa2>
    9b22:	2b00      	cmp	r3, #0
    9b24:	d000      	beq.n	9b28 <__aeabi_dadd+0x298>
    9b26:	e0f3      	b.n	9d10 <__aeabi_dadd+0x480>
    9b28:	1c70      	adds	r0, r6, #1
    9b2a:	0543      	lsls	r3, r0, #21
    9b2c:	0d5b      	lsrs	r3, r3, #21
    9b2e:	2b01      	cmp	r3, #1
    9b30:	dc00      	bgt.n	9b34 <__aeabi_dadd+0x2a4>
    9b32:	e0ad      	b.n	9c90 <__aeabi_dadd+0x400>
    9b34:	4b36      	ldr	r3, [pc, #216]	; (9c10 <__aeabi_dadd+0x380>)
    9b36:	4298      	cmp	r0, r3
    9b38:	d100      	bne.n	9b3c <__aeabi_dadd+0x2ac>
    9b3a:	e0d1      	b.n	9ce0 <__aeabi_dadd+0x450>
    9b3c:	18ba      	adds	r2, r7, r2
    9b3e:	42ba      	cmp	r2, r7
    9b40:	41bf      	sbcs	r7, r7
    9b42:	1864      	adds	r4, r4, r1
    9b44:	427f      	negs	r7, r7
    9b46:	19e4      	adds	r4, r4, r7
    9b48:	07e7      	lsls	r7, r4, #31
    9b4a:	0852      	lsrs	r2, r2, #1
    9b4c:	4317      	orrs	r7, r2
    9b4e:	0864      	lsrs	r4, r4, #1
    9b50:	0006      	movs	r6, r0
    9b52:	e721      	b.n	9998 <__aeabi_dadd+0x108>
    9b54:	482e      	ldr	r0, [pc, #184]	; (9c10 <__aeabi_dadd+0x380>)
    9b56:	4285      	cmp	r5, r0
    9b58:	d100      	bne.n	9b5c <__aeabi_dadd+0x2cc>
    9b5a:	e093      	b.n	9c84 <__aeabi_dadd+0x3f4>
    9b5c:	001d      	movs	r5, r3
    9b5e:	e6d0      	b.n	9902 <__aeabi_dadd+0x72>
    9b60:	0029      	movs	r1, r5
    9b62:	3e1f      	subs	r6, #31
    9b64:	40f1      	lsrs	r1, r6
    9b66:	2b20      	cmp	r3, #32
    9b68:	d100      	bne.n	9b6c <__aeabi_dadd+0x2dc>
    9b6a:	e08d      	b.n	9c88 <__aeabi_dadd+0x3f8>
    9b6c:	2240      	movs	r2, #64	; 0x40
    9b6e:	1ad3      	subs	r3, r2, r3
    9b70:	409d      	lsls	r5, r3
    9b72:	432f      	orrs	r7, r5
    9b74:	1e7d      	subs	r5, r7, #1
    9b76:	41af      	sbcs	r7, r5
    9b78:	2400      	movs	r4, #0
    9b7a:	430f      	orrs	r7, r1
    9b7c:	2600      	movs	r6, #0
    9b7e:	e744      	b.n	9a0a <__aeabi_dadd+0x17a>
    9b80:	002b      	movs	r3, r5
    9b82:	0008      	movs	r0, r1
    9b84:	3b20      	subs	r3, #32
    9b86:	40d8      	lsrs	r0, r3
    9b88:	0003      	movs	r3, r0
    9b8a:	2d20      	cmp	r5, #32
    9b8c:	d100      	bne.n	9b90 <__aeabi_dadd+0x300>
    9b8e:	e07d      	b.n	9c8c <__aeabi_dadd+0x3fc>
    9b90:	2040      	movs	r0, #64	; 0x40
    9b92:	1b45      	subs	r5, r0, r5
    9b94:	40a9      	lsls	r1, r5
    9b96:	430a      	orrs	r2, r1
    9b98:	1e51      	subs	r1, r2, #1
    9b9a:	418a      	sbcs	r2, r1
    9b9c:	2100      	movs	r1, #0
    9b9e:	431a      	orrs	r2, r3
    9ba0:	e6c7      	b.n	9932 <__aeabi_dadd+0xa2>
    9ba2:	2e00      	cmp	r6, #0
    9ba4:	d050      	beq.n	9c48 <__aeabi_dadd+0x3b8>
    9ba6:	4e1a      	ldr	r6, [pc, #104]	; (9c10 <__aeabi_dadd+0x380>)
    9ba8:	42b0      	cmp	r0, r6
    9baa:	d057      	beq.n	9c5c <__aeabi_dadd+0x3cc>
    9bac:	2680      	movs	r6, #128	; 0x80
    9bae:	426b      	negs	r3, r5
    9bb0:	4699      	mov	r9, r3
    9bb2:	0436      	lsls	r6, r6, #16
    9bb4:	4334      	orrs	r4, r6
    9bb6:	464b      	mov	r3, r9
    9bb8:	2b38      	cmp	r3, #56	; 0x38
    9bba:	dd00      	ble.n	9bbe <__aeabi_dadd+0x32e>
    9bbc:	e0d6      	b.n	9d6c <__aeabi_dadd+0x4dc>
    9bbe:	2b1f      	cmp	r3, #31
    9bc0:	dd00      	ble.n	9bc4 <__aeabi_dadd+0x334>
    9bc2:	e135      	b.n	9e30 <__aeabi_dadd+0x5a0>
    9bc4:	2620      	movs	r6, #32
    9bc6:	1af5      	subs	r5, r6, r3
    9bc8:	0026      	movs	r6, r4
    9bca:	40ae      	lsls	r6, r5
    9bcc:	46b2      	mov	sl, r6
    9bce:	003e      	movs	r6, r7
    9bd0:	40de      	lsrs	r6, r3
    9bd2:	46ac      	mov	ip, r5
    9bd4:	0035      	movs	r5, r6
    9bd6:	4656      	mov	r6, sl
    9bd8:	432e      	orrs	r6, r5
    9bda:	4665      	mov	r5, ip
    9bdc:	40af      	lsls	r7, r5
    9bde:	1e7d      	subs	r5, r7, #1
    9be0:	41af      	sbcs	r7, r5
    9be2:	40dc      	lsrs	r4, r3
    9be4:	4337      	orrs	r7, r6
    9be6:	1bd7      	subs	r7, r2, r7
    9be8:	42ba      	cmp	r2, r7
    9bea:	4192      	sbcs	r2, r2
    9bec:	1b0c      	subs	r4, r1, r4
    9bee:	4252      	negs	r2, r2
    9bf0:	1aa4      	subs	r4, r4, r2
    9bf2:	0006      	movs	r6, r0
    9bf4:	46d8      	mov	r8, fp
    9bf6:	e6a3      	b.n	9940 <__aeabi_dadd+0xb0>
    9bf8:	4664      	mov	r4, ip
    9bfa:	4667      	mov	r7, ip
    9bfc:	432c      	orrs	r4, r5
    9bfe:	d000      	beq.n	9c02 <__aeabi_dadd+0x372>
    9c00:	e6a2      	b.n	9948 <__aeabi_dadd+0xb8>
    9c02:	2500      	movs	r5, #0
    9c04:	2600      	movs	r6, #0
    9c06:	2700      	movs	r7, #0
    9c08:	e706      	b.n	9a18 <__aeabi_dadd+0x188>
    9c0a:	001e      	movs	r6, r3
    9c0c:	e6c4      	b.n	9998 <__aeabi_dadd+0x108>
    9c0e:	46c0      	nop			; (mov r8, r8)
    9c10:	000007ff 	.word	0x000007ff
    9c14:	ff7fffff 	.word	0xff7fffff
    9c18:	800fffff 	.word	0x800fffff
    9c1c:	2b1f      	cmp	r3, #31
    9c1e:	dc63      	bgt.n	9ce8 <__aeabi_dadd+0x458>
    9c20:	2020      	movs	r0, #32
    9c22:	1ac3      	subs	r3, r0, r3
    9c24:	0008      	movs	r0, r1
    9c26:	4098      	lsls	r0, r3
    9c28:	469c      	mov	ip, r3
    9c2a:	4683      	mov	fp, r0
    9c2c:	4653      	mov	r3, sl
    9c2e:	0010      	movs	r0, r2
    9c30:	40d8      	lsrs	r0, r3
    9c32:	0003      	movs	r3, r0
    9c34:	4658      	mov	r0, fp
    9c36:	4318      	orrs	r0, r3
    9c38:	4663      	mov	r3, ip
    9c3a:	409a      	lsls	r2, r3
    9c3c:	1e53      	subs	r3, r2, #1
    9c3e:	419a      	sbcs	r2, r3
    9c40:	4653      	mov	r3, sl
    9c42:	4302      	orrs	r2, r0
    9c44:	40d9      	lsrs	r1, r3
    9c46:	e703      	b.n	9a50 <__aeabi_dadd+0x1c0>
    9c48:	0026      	movs	r6, r4
    9c4a:	433e      	orrs	r6, r7
    9c4c:	d006      	beq.n	9c5c <__aeabi_dadd+0x3cc>
    9c4e:	43eb      	mvns	r3, r5
    9c50:	4699      	mov	r9, r3
    9c52:	2b00      	cmp	r3, #0
    9c54:	d0c7      	beq.n	9be6 <__aeabi_dadd+0x356>
    9c56:	4e94      	ldr	r6, [pc, #592]	; (9ea8 <__aeabi_dadd+0x618>)
    9c58:	42b0      	cmp	r0, r6
    9c5a:	d1ac      	bne.n	9bb6 <__aeabi_dadd+0x326>
    9c5c:	000c      	movs	r4, r1
    9c5e:	0017      	movs	r7, r2
    9c60:	0006      	movs	r6, r0
    9c62:	46d8      	mov	r8, fp
    9c64:	e698      	b.n	9998 <__aeabi_dadd+0x108>
    9c66:	4b90      	ldr	r3, [pc, #576]	; (9ea8 <__aeabi_dadd+0x618>)
    9c68:	459a      	cmp	sl, r3
    9c6a:	d00b      	beq.n	9c84 <__aeabi_dadd+0x3f4>
    9c6c:	4682      	mov	sl, r0
    9c6e:	e6e7      	b.n	9a40 <__aeabi_dadd+0x1b0>
    9c70:	2800      	cmp	r0, #0
    9c72:	d000      	beq.n	9c76 <__aeabi_dadd+0x3e6>
    9c74:	e09e      	b.n	9db4 <__aeabi_dadd+0x524>
    9c76:	0018      	movs	r0, r3
    9c78:	4310      	orrs	r0, r2
    9c7a:	d100      	bne.n	9c7e <__aeabi_dadd+0x3ee>
    9c7c:	e0e9      	b.n	9e52 <__aeabi_dadd+0x5c2>
    9c7e:	001c      	movs	r4, r3
    9c80:	0017      	movs	r7, r2
    9c82:	46d8      	mov	r8, fp
    9c84:	4e88      	ldr	r6, [pc, #544]	; (9ea8 <__aeabi_dadd+0x618>)
    9c86:	e687      	b.n	9998 <__aeabi_dadd+0x108>
    9c88:	2500      	movs	r5, #0
    9c8a:	e772      	b.n	9b72 <__aeabi_dadd+0x2e2>
    9c8c:	2100      	movs	r1, #0
    9c8e:	e782      	b.n	9b96 <__aeabi_dadd+0x306>
    9c90:	0023      	movs	r3, r4
    9c92:	433b      	orrs	r3, r7
    9c94:	2e00      	cmp	r6, #0
    9c96:	d000      	beq.n	9c9a <__aeabi_dadd+0x40a>
    9c98:	e0ab      	b.n	9df2 <__aeabi_dadd+0x562>
    9c9a:	2b00      	cmp	r3, #0
    9c9c:	d100      	bne.n	9ca0 <__aeabi_dadd+0x410>
    9c9e:	e0e7      	b.n	9e70 <__aeabi_dadd+0x5e0>
    9ca0:	000b      	movs	r3, r1
    9ca2:	4313      	orrs	r3, r2
    9ca4:	d100      	bne.n	9ca8 <__aeabi_dadd+0x418>
    9ca6:	e677      	b.n	9998 <__aeabi_dadd+0x108>
    9ca8:	18ba      	adds	r2, r7, r2
    9caa:	42ba      	cmp	r2, r7
    9cac:	41bf      	sbcs	r7, r7
    9cae:	1864      	adds	r4, r4, r1
    9cb0:	427f      	negs	r7, r7
    9cb2:	19e4      	adds	r4, r4, r7
    9cb4:	0223      	lsls	r3, r4, #8
    9cb6:	d400      	bmi.n	9cba <__aeabi_dadd+0x42a>
    9cb8:	e0f2      	b.n	9ea0 <__aeabi_dadd+0x610>
    9cba:	4b7c      	ldr	r3, [pc, #496]	; (9eac <__aeabi_dadd+0x61c>)
    9cbc:	0017      	movs	r7, r2
    9cbe:	401c      	ands	r4, r3
    9cc0:	0006      	movs	r6, r0
    9cc2:	e669      	b.n	9998 <__aeabi_dadd+0x108>
    9cc4:	0020      	movs	r0, r4
    9cc6:	4338      	orrs	r0, r7
    9cc8:	2e00      	cmp	r6, #0
    9cca:	d1d1      	bne.n	9c70 <__aeabi_dadd+0x3e0>
    9ccc:	2800      	cmp	r0, #0
    9cce:	d15b      	bne.n	9d88 <__aeabi_dadd+0x4f8>
    9cd0:	001c      	movs	r4, r3
    9cd2:	4314      	orrs	r4, r2
    9cd4:	d100      	bne.n	9cd8 <__aeabi_dadd+0x448>
    9cd6:	e0a8      	b.n	9e2a <__aeabi_dadd+0x59a>
    9cd8:	001c      	movs	r4, r3
    9cda:	0017      	movs	r7, r2
    9cdc:	46d8      	mov	r8, fp
    9cde:	e65b      	b.n	9998 <__aeabi_dadd+0x108>
    9ce0:	0006      	movs	r6, r0
    9ce2:	2400      	movs	r4, #0
    9ce4:	2700      	movs	r7, #0
    9ce6:	e697      	b.n	9a18 <__aeabi_dadd+0x188>
    9ce8:	4650      	mov	r0, sl
    9cea:	000b      	movs	r3, r1
    9cec:	3820      	subs	r0, #32
    9cee:	40c3      	lsrs	r3, r0
    9cf0:	4699      	mov	r9, r3
    9cf2:	4653      	mov	r3, sl
    9cf4:	2b20      	cmp	r3, #32
    9cf6:	d100      	bne.n	9cfa <__aeabi_dadd+0x46a>
    9cf8:	e095      	b.n	9e26 <__aeabi_dadd+0x596>
    9cfa:	2340      	movs	r3, #64	; 0x40
    9cfc:	4650      	mov	r0, sl
    9cfe:	1a1b      	subs	r3, r3, r0
    9d00:	4099      	lsls	r1, r3
    9d02:	430a      	orrs	r2, r1
    9d04:	1e51      	subs	r1, r2, #1
    9d06:	418a      	sbcs	r2, r1
    9d08:	464b      	mov	r3, r9
    9d0a:	2100      	movs	r1, #0
    9d0c:	431a      	orrs	r2, r3
    9d0e:	e69f      	b.n	9a50 <__aeabi_dadd+0x1c0>
    9d10:	2e00      	cmp	r6, #0
    9d12:	d130      	bne.n	9d76 <__aeabi_dadd+0x4e6>
    9d14:	0026      	movs	r6, r4
    9d16:	433e      	orrs	r6, r7
    9d18:	d067      	beq.n	9dea <__aeabi_dadd+0x55a>
    9d1a:	43db      	mvns	r3, r3
    9d1c:	469a      	mov	sl, r3
    9d1e:	2b00      	cmp	r3, #0
    9d20:	d01c      	beq.n	9d5c <__aeabi_dadd+0x4cc>
    9d22:	4e61      	ldr	r6, [pc, #388]	; (9ea8 <__aeabi_dadd+0x618>)
    9d24:	42b0      	cmp	r0, r6
    9d26:	d060      	beq.n	9dea <__aeabi_dadd+0x55a>
    9d28:	4653      	mov	r3, sl
    9d2a:	2b38      	cmp	r3, #56	; 0x38
    9d2c:	dd00      	ble.n	9d30 <__aeabi_dadd+0x4a0>
    9d2e:	e096      	b.n	9e5e <__aeabi_dadd+0x5ce>
    9d30:	2b1f      	cmp	r3, #31
    9d32:	dd00      	ble.n	9d36 <__aeabi_dadd+0x4a6>
    9d34:	e09f      	b.n	9e76 <__aeabi_dadd+0x5e6>
    9d36:	2620      	movs	r6, #32
    9d38:	1af3      	subs	r3, r6, r3
    9d3a:	0026      	movs	r6, r4
    9d3c:	409e      	lsls	r6, r3
    9d3e:	469c      	mov	ip, r3
    9d40:	46b3      	mov	fp, r6
    9d42:	4653      	mov	r3, sl
    9d44:	003e      	movs	r6, r7
    9d46:	40de      	lsrs	r6, r3
    9d48:	0033      	movs	r3, r6
    9d4a:	465e      	mov	r6, fp
    9d4c:	431e      	orrs	r6, r3
    9d4e:	4663      	mov	r3, ip
    9d50:	409f      	lsls	r7, r3
    9d52:	1e7b      	subs	r3, r7, #1
    9d54:	419f      	sbcs	r7, r3
    9d56:	4653      	mov	r3, sl
    9d58:	40dc      	lsrs	r4, r3
    9d5a:	4337      	orrs	r7, r6
    9d5c:	18bf      	adds	r7, r7, r2
    9d5e:	4297      	cmp	r7, r2
    9d60:	4192      	sbcs	r2, r2
    9d62:	1864      	adds	r4, r4, r1
    9d64:	4252      	negs	r2, r2
    9d66:	18a4      	adds	r4, r4, r2
    9d68:	0006      	movs	r6, r0
    9d6a:	e678      	b.n	9a5e <__aeabi_dadd+0x1ce>
    9d6c:	4327      	orrs	r7, r4
    9d6e:	1e7c      	subs	r4, r7, #1
    9d70:	41a7      	sbcs	r7, r4
    9d72:	2400      	movs	r4, #0
    9d74:	e737      	b.n	9be6 <__aeabi_dadd+0x356>
    9d76:	4e4c      	ldr	r6, [pc, #304]	; (9ea8 <__aeabi_dadd+0x618>)
    9d78:	42b0      	cmp	r0, r6
    9d7a:	d036      	beq.n	9dea <__aeabi_dadd+0x55a>
    9d7c:	2680      	movs	r6, #128	; 0x80
    9d7e:	425b      	negs	r3, r3
    9d80:	0436      	lsls	r6, r6, #16
    9d82:	469a      	mov	sl, r3
    9d84:	4334      	orrs	r4, r6
    9d86:	e7cf      	b.n	9d28 <__aeabi_dadd+0x498>
    9d88:	0018      	movs	r0, r3
    9d8a:	4310      	orrs	r0, r2
    9d8c:	d100      	bne.n	9d90 <__aeabi_dadd+0x500>
    9d8e:	e603      	b.n	9998 <__aeabi_dadd+0x108>
    9d90:	1ab8      	subs	r0, r7, r2
    9d92:	4684      	mov	ip, r0
    9d94:	4567      	cmp	r7, ip
    9d96:	41ad      	sbcs	r5, r5
    9d98:	1ae0      	subs	r0, r4, r3
    9d9a:	426d      	negs	r5, r5
    9d9c:	1b40      	subs	r0, r0, r5
    9d9e:	0205      	lsls	r5, r0, #8
    9da0:	d400      	bmi.n	9da4 <__aeabi_dadd+0x514>
    9da2:	e62c      	b.n	99fe <__aeabi_dadd+0x16e>
    9da4:	1bd7      	subs	r7, r2, r7
    9da6:	42ba      	cmp	r2, r7
    9da8:	4192      	sbcs	r2, r2
    9daa:	1b1c      	subs	r4, r3, r4
    9dac:	4252      	negs	r2, r2
    9dae:	1aa4      	subs	r4, r4, r2
    9db0:	46d8      	mov	r8, fp
    9db2:	e5f1      	b.n	9998 <__aeabi_dadd+0x108>
    9db4:	0018      	movs	r0, r3
    9db6:	4310      	orrs	r0, r2
    9db8:	d100      	bne.n	9dbc <__aeabi_dadd+0x52c>
    9dba:	e763      	b.n	9c84 <__aeabi_dadd+0x3f4>
    9dbc:	08f8      	lsrs	r0, r7, #3
    9dbe:	0767      	lsls	r7, r4, #29
    9dc0:	4307      	orrs	r7, r0
    9dc2:	2080      	movs	r0, #128	; 0x80
    9dc4:	08e4      	lsrs	r4, r4, #3
    9dc6:	0300      	lsls	r0, r0, #12
    9dc8:	4204      	tst	r4, r0
    9dca:	d008      	beq.n	9dde <__aeabi_dadd+0x54e>
    9dcc:	08dd      	lsrs	r5, r3, #3
    9dce:	4205      	tst	r5, r0
    9dd0:	d105      	bne.n	9dde <__aeabi_dadd+0x54e>
    9dd2:	08d2      	lsrs	r2, r2, #3
    9dd4:	0759      	lsls	r1, r3, #29
    9dd6:	4311      	orrs	r1, r2
    9dd8:	000f      	movs	r7, r1
    9dda:	002c      	movs	r4, r5
    9ddc:	46d8      	mov	r8, fp
    9dde:	0f7b      	lsrs	r3, r7, #29
    9de0:	00e4      	lsls	r4, r4, #3
    9de2:	431c      	orrs	r4, r3
    9de4:	00ff      	lsls	r7, r7, #3
    9de6:	4e30      	ldr	r6, [pc, #192]	; (9ea8 <__aeabi_dadd+0x618>)
    9de8:	e5d6      	b.n	9998 <__aeabi_dadd+0x108>
    9dea:	000c      	movs	r4, r1
    9dec:	0017      	movs	r7, r2
    9dee:	0006      	movs	r6, r0
    9df0:	e5d2      	b.n	9998 <__aeabi_dadd+0x108>
    9df2:	2b00      	cmp	r3, #0
    9df4:	d038      	beq.n	9e68 <__aeabi_dadd+0x5d8>
    9df6:	000b      	movs	r3, r1
    9df8:	4313      	orrs	r3, r2
    9dfa:	d100      	bne.n	9dfe <__aeabi_dadd+0x56e>
    9dfc:	e742      	b.n	9c84 <__aeabi_dadd+0x3f4>
    9dfe:	08f8      	lsrs	r0, r7, #3
    9e00:	0767      	lsls	r7, r4, #29
    9e02:	4307      	orrs	r7, r0
    9e04:	2080      	movs	r0, #128	; 0x80
    9e06:	08e4      	lsrs	r4, r4, #3
    9e08:	0300      	lsls	r0, r0, #12
    9e0a:	4204      	tst	r4, r0
    9e0c:	d0e7      	beq.n	9dde <__aeabi_dadd+0x54e>
    9e0e:	08cb      	lsrs	r3, r1, #3
    9e10:	4203      	tst	r3, r0
    9e12:	d1e4      	bne.n	9dde <__aeabi_dadd+0x54e>
    9e14:	08d2      	lsrs	r2, r2, #3
    9e16:	0749      	lsls	r1, r1, #29
    9e18:	4311      	orrs	r1, r2
    9e1a:	000f      	movs	r7, r1
    9e1c:	001c      	movs	r4, r3
    9e1e:	e7de      	b.n	9dde <__aeabi_dadd+0x54e>
    9e20:	2700      	movs	r7, #0
    9e22:	2400      	movs	r4, #0
    9e24:	e5d5      	b.n	99d2 <__aeabi_dadd+0x142>
    9e26:	2100      	movs	r1, #0
    9e28:	e76b      	b.n	9d02 <__aeabi_dadd+0x472>
    9e2a:	2500      	movs	r5, #0
    9e2c:	2700      	movs	r7, #0
    9e2e:	e5f3      	b.n	9a18 <__aeabi_dadd+0x188>
    9e30:	464e      	mov	r6, r9
    9e32:	0025      	movs	r5, r4
    9e34:	3e20      	subs	r6, #32
    9e36:	40f5      	lsrs	r5, r6
    9e38:	464b      	mov	r3, r9
    9e3a:	002e      	movs	r6, r5
    9e3c:	2b20      	cmp	r3, #32
    9e3e:	d02d      	beq.n	9e9c <__aeabi_dadd+0x60c>
    9e40:	2540      	movs	r5, #64	; 0x40
    9e42:	1aed      	subs	r5, r5, r3
    9e44:	40ac      	lsls	r4, r5
    9e46:	4327      	orrs	r7, r4
    9e48:	1e7c      	subs	r4, r7, #1
    9e4a:	41a7      	sbcs	r7, r4
    9e4c:	2400      	movs	r4, #0
    9e4e:	4337      	orrs	r7, r6
    9e50:	e6c9      	b.n	9be6 <__aeabi_dadd+0x356>
    9e52:	2480      	movs	r4, #128	; 0x80
    9e54:	2500      	movs	r5, #0
    9e56:	0324      	lsls	r4, r4, #12
    9e58:	4e13      	ldr	r6, [pc, #76]	; (9ea8 <__aeabi_dadd+0x618>)
    9e5a:	2700      	movs	r7, #0
    9e5c:	e5dc      	b.n	9a18 <__aeabi_dadd+0x188>
    9e5e:	4327      	orrs	r7, r4
    9e60:	1e7c      	subs	r4, r7, #1
    9e62:	41a7      	sbcs	r7, r4
    9e64:	2400      	movs	r4, #0
    9e66:	e779      	b.n	9d5c <__aeabi_dadd+0x4cc>
    9e68:	000c      	movs	r4, r1
    9e6a:	0017      	movs	r7, r2
    9e6c:	4e0e      	ldr	r6, [pc, #56]	; (9ea8 <__aeabi_dadd+0x618>)
    9e6e:	e593      	b.n	9998 <__aeabi_dadd+0x108>
    9e70:	000c      	movs	r4, r1
    9e72:	0017      	movs	r7, r2
    9e74:	e590      	b.n	9998 <__aeabi_dadd+0x108>
    9e76:	4656      	mov	r6, sl
    9e78:	0023      	movs	r3, r4
    9e7a:	3e20      	subs	r6, #32
    9e7c:	40f3      	lsrs	r3, r6
    9e7e:	4699      	mov	r9, r3
    9e80:	4653      	mov	r3, sl
    9e82:	2b20      	cmp	r3, #32
    9e84:	d00e      	beq.n	9ea4 <__aeabi_dadd+0x614>
    9e86:	2340      	movs	r3, #64	; 0x40
    9e88:	4656      	mov	r6, sl
    9e8a:	1b9b      	subs	r3, r3, r6
    9e8c:	409c      	lsls	r4, r3
    9e8e:	4327      	orrs	r7, r4
    9e90:	1e7c      	subs	r4, r7, #1
    9e92:	41a7      	sbcs	r7, r4
    9e94:	464b      	mov	r3, r9
    9e96:	2400      	movs	r4, #0
    9e98:	431f      	orrs	r7, r3
    9e9a:	e75f      	b.n	9d5c <__aeabi_dadd+0x4cc>
    9e9c:	2400      	movs	r4, #0
    9e9e:	e7d2      	b.n	9e46 <__aeabi_dadd+0x5b6>
    9ea0:	0017      	movs	r7, r2
    9ea2:	e5b2      	b.n	9a0a <__aeabi_dadd+0x17a>
    9ea4:	2400      	movs	r4, #0
    9ea6:	e7f2      	b.n	9e8e <__aeabi_dadd+0x5fe>
    9ea8:	000007ff 	.word	0x000007ff
    9eac:	ff7fffff 	.word	0xff7fffff

00009eb0 <__aeabi_ddiv>:
    9eb0:	b5f0      	push	{r4, r5, r6, r7, lr}
    9eb2:	4657      	mov	r7, sl
    9eb4:	4645      	mov	r5, r8
    9eb6:	46de      	mov	lr, fp
    9eb8:	464e      	mov	r6, r9
    9eba:	b5e0      	push	{r5, r6, r7, lr}
    9ebc:	004c      	lsls	r4, r1, #1
    9ebe:	030e      	lsls	r6, r1, #12
    9ec0:	b087      	sub	sp, #28
    9ec2:	4683      	mov	fp, r0
    9ec4:	4692      	mov	sl, r2
    9ec6:	001d      	movs	r5, r3
    9ec8:	4680      	mov	r8, r0
    9eca:	0b36      	lsrs	r6, r6, #12
    9ecc:	0d64      	lsrs	r4, r4, #21
    9ece:	0fcf      	lsrs	r7, r1, #31
    9ed0:	2c00      	cmp	r4, #0
    9ed2:	d04f      	beq.n	9f74 <__aeabi_ddiv+0xc4>
    9ed4:	4b6f      	ldr	r3, [pc, #444]	; (a094 <__aeabi_ddiv+0x1e4>)
    9ed6:	429c      	cmp	r4, r3
    9ed8:	d035      	beq.n	9f46 <__aeabi_ddiv+0x96>
    9eda:	2380      	movs	r3, #128	; 0x80
    9edc:	0f42      	lsrs	r2, r0, #29
    9ede:	041b      	lsls	r3, r3, #16
    9ee0:	00f6      	lsls	r6, r6, #3
    9ee2:	4313      	orrs	r3, r2
    9ee4:	4333      	orrs	r3, r6
    9ee6:	4699      	mov	r9, r3
    9ee8:	00c3      	lsls	r3, r0, #3
    9eea:	4698      	mov	r8, r3
    9eec:	4b6a      	ldr	r3, [pc, #424]	; (a098 <__aeabi_ddiv+0x1e8>)
    9eee:	2600      	movs	r6, #0
    9ef0:	469c      	mov	ip, r3
    9ef2:	2300      	movs	r3, #0
    9ef4:	4464      	add	r4, ip
    9ef6:	9303      	str	r3, [sp, #12]
    9ef8:	032b      	lsls	r3, r5, #12
    9efa:	0b1b      	lsrs	r3, r3, #12
    9efc:	469b      	mov	fp, r3
    9efe:	006b      	lsls	r3, r5, #1
    9f00:	0fed      	lsrs	r5, r5, #31
    9f02:	4650      	mov	r0, sl
    9f04:	0d5b      	lsrs	r3, r3, #21
    9f06:	9501      	str	r5, [sp, #4]
    9f08:	d05e      	beq.n	9fc8 <__aeabi_ddiv+0x118>
    9f0a:	4a62      	ldr	r2, [pc, #392]	; (a094 <__aeabi_ddiv+0x1e4>)
    9f0c:	4293      	cmp	r3, r2
    9f0e:	d053      	beq.n	9fb8 <__aeabi_ddiv+0x108>
    9f10:	465a      	mov	r2, fp
    9f12:	00d1      	lsls	r1, r2, #3
    9f14:	2280      	movs	r2, #128	; 0x80
    9f16:	0f40      	lsrs	r0, r0, #29
    9f18:	0412      	lsls	r2, r2, #16
    9f1a:	4302      	orrs	r2, r0
    9f1c:	430a      	orrs	r2, r1
    9f1e:	4693      	mov	fp, r2
    9f20:	4652      	mov	r2, sl
    9f22:	00d1      	lsls	r1, r2, #3
    9f24:	4a5c      	ldr	r2, [pc, #368]	; (a098 <__aeabi_ddiv+0x1e8>)
    9f26:	4694      	mov	ip, r2
    9f28:	2200      	movs	r2, #0
    9f2a:	4463      	add	r3, ip
    9f2c:	0038      	movs	r0, r7
    9f2e:	4068      	eors	r0, r5
    9f30:	4684      	mov	ip, r0
    9f32:	9002      	str	r0, [sp, #8]
    9f34:	1ae4      	subs	r4, r4, r3
    9f36:	4316      	orrs	r6, r2
    9f38:	2e0f      	cmp	r6, #15
    9f3a:	d900      	bls.n	9f3e <__aeabi_ddiv+0x8e>
    9f3c:	e0b4      	b.n	a0a8 <__aeabi_ddiv+0x1f8>
    9f3e:	4b57      	ldr	r3, [pc, #348]	; (a09c <__aeabi_ddiv+0x1ec>)
    9f40:	00b6      	lsls	r6, r6, #2
    9f42:	599b      	ldr	r3, [r3, r6]
    9f44:	469f      	mov	pc, r3
    9f46:	0003      	movs	r3, r0
    9f48:	4333      	orrs	r3, r6
    9f4a:	4699      	mov	r9, r3
    9f4c:	d16c      	bne.n	a028 <__aeabi_ddiv+0x178>
    9f4e:	2300      	movs	r3, #0
    9f50:	4698      	mov	r8, r3
    9f52:	3302      	adds	r3, #2
    9f54:	2608      	movs	r6, #8
    9f56:	9303      	str	r3, [sp, #12]
    9f58:	e7ce      	b.n	9ef8 <__aeabi_ddiv+0x48>
    9f5a:	46cb      	mov	fp, r9
    9f5c:	4641      	mov	r1, r8
    9f5e:	9a03      	ldr	r2, [sp, #12]
    9f60:	9701      	str	r7, [sp, #4]
    9f62:	2a02      	cmp	r2, #2
    9f64:	d165      	bne.n	a032 <__aeabi_ddiv+0x182>
    9f66:	9b01      	ldr	r3, [sp, #4]
    9f68:	4c4a      	ldr	r4, [pc, #296]	; (a094 <__aeabi_ddiv+0x1e4>)
    9f6a:	469c      	mov	ip, r3
    9f6c:	2300      	movs	r3, #0
    9f6e:	2200      	movs	r2, #0
    9f70:	4698      	mov	r8, r3
    9f72:	e06b      	b.n	a04c <__aeabi_ddiv+0x19c>
    9f74:	0003      	movs	r3, r0
    9f76:	4333      	orrs	r3, r6
    9f78:	4699      	mov	r9, r3
    9f7a:	d04e      	beq.n	a01a <__aeabi_ddiv+0x16a>
    9f7c:	2e00      	cmp	r6, #0
    9f7e:	d100      	bne.n	9f82 <__aeabi_ddiv+0xd2>
    9f80:	e1bc      	b.n	a2fc <__aeabi_ddiv+0x44c>
    9f82:	0030      	movs	r0, r6
    9f84:	f001 f8ca 	bl	b11c <__clzsi2>
    9f88:	0003      	movs	r3, r0
    9f8a:	3b0b      	subs	r3, #11
    9f8c:	2b1c      	cmp	r3, #28
    9f8e:	dd00      	ble.n	9f92 <__aeabi_ddiv+0xe2>
    9f90:	e1ac      	b.n	a2ec <__aeabi_ddiv+0x43c>
    9f92:	221d      	movs	r2, #29
    9f94:	1ad3      	subs	r3, r2, r3
    9f96:	465a      	mov	r2, fp
    9f98:	0001      	movs	r1, r0
    9f9a:	40da      	lsrs	r2, r3
    9f9c:	3908      	subs	r1, #8
    9f9e:	408e      	lsls	r6, r1
    9fa0:	0013      	movs	r3, r2
    9fa2:	4333      	orrs	r3, r6
    9fa4:	4699      	mov	r9, r3
    9fa6:	465b      	mov	r3, fp
    9fa8:	408b      	lsls	r3, r1
    9faa:	4698      	mov	r8, r3
    9fac:	2300      	movs	r3, #0
    9fae:	4c3c      	ldr	r4, [pc, #240]	; (a0a0 <__aeabi_ddiv+0x1f0>)
    9fb0:	2600      	movs	r6, #0
    9fb2:	1a24      	subs	r4, r4, r0
    9fb4:	9303      	str	r3, [sp, #12]
    9fb6:	e79f      	b.n	9ef8 <__aeabi_ddiv+0x48>
    9fb8:	4651      	mov	r1, sl
    9fba:	465a      	mov	r2, fp
    9fbc:	4311      	orrs	r1, r2
    9fbe:	d129      	bne.n	a014 <__aeabi_ddiv+0x164>
    9fc0:	2200      	movs	r2, #0
    9fc2:	4693      	mov	fp, r2
    9fc4:	3202      	adds	r2, #2
    9fc6:	e7b1      	b.n	9f2c <__aeabi_ddiv+0x7c>
    9fc8:	4659      	mov	r1, fp
    9fca:	4301      	orrs	r1, r0
    9fcc:	d01e      	beq.n	a00c <__aeabi_ddiv+0x15c>
    9fce:	465b      	mov	r3, fp
    9fd0:	2b00      	cmp	r3, #0
    9fd2:	d100      	bne.n	9fd6 <__aeabi_ddiv+0x126>
    9fd4:	e19e      	b.n	a314 <__aeabi_ddiv+0x464>
    9fd6:	4658      	mov	r0, fp
    9fd8:	f001 f8a0 	bl	b11c <__clzsi2>
    9fdc:	0003      	movs	r3, r0
    9fde:	3b0b      	subs	r3, #11
    9fe0:	2b1c      	cmp	r3, #28
    9fe2:	dd00      	ble.n	9fe6 <__aeabi_ddiv+0x136>
    9fe4:	e18f      	b.n	a306 <__aeabi_ddiv+0x456>
    9fe6:	0002      	movs	r2, r0
    9fe8:	4659      	mov	r1, fp
    9fea:	3a08      	subs	r2, #8
    9fec:	4091      	lsls	r1, r2
    9fee:	468b      	mov	fp, r1
    9ff0:	211d      	movs	r1, #29
    9ff2:	1acb      	subs	r3, r1, r3
    9ff4:	4651      	mov	r1, sl
    9ff6:	40d9      	lsrs	r1, r3
    9ff8:	000b      	movs	r3, r1
    9ffa:	4659      	mov	r1, fp
    9ffc:	430b      	orrs	r3, r1
    9ffe:	4651      	mov	r1, sl
    a000:	469b      	mov	fp, r3
    a002:	4091      	lsls	r1, r2
    a004:	4b26      	ldr	r3, [pc, #152]	; (a0a0 <__aeabi_ddiv+0x1f0>)
    a006:	2200      	movs	r2, #0
    a008:	1a1b      	subs	r3, r3, r0
    a00a:	e78f      	b.n	9f2c <__aeabi_ddiv+0x7c>
    a00c:	2300      	movs	r3, #0
    a00e:	2201      	movs	r2, #1
    a010:	469b      	mov	fp, r3
    a012:	e78b      	b.n	9f2c <__aeabi_ddiv+0x7c>
    a014:	4651      	mov	r1, sl
    a016:	2203      	movs	r2, #3
    a018:	e788      	b.n	9f2c <__aeabi_ddiv+0x7c>
    a01a:	2300      	movs	r3, #0
    a01c:	4698      	mov	r8, r3
    a01e:	3301      	adds	r3, #1
    a020:	2604      	movs	r6, #4
    a022:	2400      	movs	r4, #0
    a024:	9303      	str	r3, [sp, #12]
    a026:	e767      	b.n	9ef8 <__aeabi_ddiv+0x48>
    a028:	2303      	movs	r3, #3
    a02a:	46b1      	mov	r9, r6
    a02c:	9303      	str	r3, [sp, #12]
    a02e:	260c      	movs	r6, #12
    a030:	e762      	b.n	9ef8 <__aeabi_ddiv+0x48>
    a032:	2a03      	cmp	r2, #3
    a034:	d100      	bne.n	a038 <__aeabi_ddiv+0x188>
    a036:	e25c      	b.n	a4f2 <__aeabi_ddiv+0x642>
    a038:	9b01      	ldr	r3, [sp, #4]
    a03a:	2a01      	cmp	r2, #1
    a03c:	d000      	beq.n	a040 <__aeabi_ddiv+0x190>
    a03e:	e1e4      	b.n	a40a <__aeabi_ddiv+0x55a>
    a040:	4013      	ands	r3, r2
    a042:	469c      	mov	ip, r3
    a044:	2300      	movs	r3, #0
    a046:	2400      	movs	r4, #0
    a048:	2200      	movs	r2, #0
    a04a:	4698      	mov	r8, r3
    a04c:	2100      	movs	r1, #0
    a04e:	0312      	lsls	r2, r2, #12
    a050:	0b13      	lsrs	r3, r2, #12
    a052:	0d0a      	lsrs	r2, r1, #20
    a054:	0512      	lsls	r2, r2, #20
    a056:	431a      	orrs	r2, r3
    a058:	0523      	lsls	r3, r4, #20
    a05a:	4c12      	ldr	r4, [pc, #72]	; (a0a4 <__aeabi_ddiv+0x1f4>)
    a05c:	4640      	mov	r0, r8
    a05e:	4022      	ands	r2, r4
    a060:	4313      	orrs	r3, r2
    a062:	4662      	mov	r2, ip
    a064:	005b      	lsls	r3, r3, #1
    a066:	07d2      	lsls	r2, r2, #31
    a068:	085b      	lsrs	r3, r3, #1
    a06a:	4313      	orrs	r3, r2
    a06c:	0019      	movs	r1, r3
    a06e:	b007      	add	sp, #28
    a070:	bc3c      	pop	{r2, r3, r4, r5}
    a072:	4690      	mov	r8, r2
    a074:	4699      	mov	r9, r3
    a076:	46a2      	mov	sl, r4
    a078:	46ab      	mov	fp, r5
    a07a:	bdf0      	pop	{r4, r5, r6, r7, pc}
    a07c:	2300      	movs	r3, #0
    a07e:	2280      	movs	r2, #128	; 0x80
    a080:	469c      	mov	ip, r3
    a082:	0312      	lsls	r2, r2, #12
    a084:	4698      	mov	r8, r3
    a086:	4c03      	ldr	r4, [pc, #12]	; (a094 <__aeabi_ddiv+0x1e4>)
    a088:	e7e0      	b.n	a04c <__aeabi_ddiv+0x19c>
    a08a:	2300      	movs	r3, #0
    a08c:	4c01      	ldr	r4, [pc, #4]	; (a094 <__aeabi_ddiv+0x1e4>)
    a08e:	2200      	movs	r2, #0
    a090:	4698      	mov	r8, r3
    a092:	e7db      	b.n	a04c <__aeabi_ddiv+0x19c>
    a094:	000007ff 	.word	0x000007ff
    a098:	fffffc01 	.word	0xfffffc01
    a09c:	0000dc58 	.word	0x0000dc58
    a0a0:	fffffc0d 	.word	0xfffffc0d
    a0a4:	800fffff 	.word	0x800fffff
    a0a8:	45d9      	cmp	r9, fp
    a0aa:	d900      	bls.n	a0ae <__aeabi_ddiv+0x1fe>
    a0ac:	e139      	b.n	a322 <__aeabi_ddiv+0x472>
    a0ae:	d100      	bne.n	a0b2 <__aeabi_ddiv+0x202>
    a0b0:	e134      	b.n	a31c <__aeabi_ddiv+0x46c>
    a0b2:	2300      	movs	r3, #0
    a0b4:	4646      	mov	r6, r8
    a0b6:	464d      	mov	r5, r9
    a0b8:	469a      	mov	sl, r3
    a0ba:	3c01      	subs	r4, #1
    a0bc:	465b      	mov	r3, fp
    a0be:	0e0a      	lsrs	r2, r1, #24
    a0c0:	021b      	lsls	r3, r3, #8
    a0c2:	431a      	orrs	r2, r3
    a0c4:	020b      	lsls	r3, r1, #8
    a0c6:	0c17      	lsrs	r7, r2, #16
    a0c8:	9303      	str	r3, [sp, #12]
    a0ca:	0413      	lsls	r3, r2, #16
    a0cc:	0c1b      	lsrs	r3, r3, #16
    a0ce:	0039      	movs	r1, r7
    a0d0:	0028      	movs	r0, r5
    a0d2:	4690      	mov	r8, r2
    a0d4:	9301      	str	r3, [sp, #4]
    a0d6:	f7ff fa2f 	bl	9538 <__udivsi3>
    a0da:	0002      	movs	r2, r0
    a0dc:	9b01      	ldr	r3, [sp, #4]
    a0de:	4683      	mov	fp, r0
    a0e0:	435a      	muls	r2, r3
    a0e2:	0028      	movs	r0, r5
    a0e4:	0039      	movs	r1, r7
    a0e6:	4691      	mov	r9, r2
    a0e8:	f7ff faac 	bl	9644 <__aeabi_uidivmod>
    a0ec:	0c35      	lsrs	r5, r6, #16
    a0ee:	0409      	lsls	r1, r1, #16
    a0f0:	430d      	orrs	r5, r1
    a0f2:	45a9      	cmp	r9, r5
    a0f4:	d90d      	bls.n	a112 <__aeabi_ddiv+0x262>
    a0f6:	465b      	mov	r3, fp
    a0f8:	4445      	add	r5, r8
    a0fa:	3b01      	subs	r3, #1
    a0fc:	45a8      	cmp	r8, r5
    a0fe:	d900      	bls.n	a102 <__aeabi_ddiv+0x252>
    a100:	e13a      	b.n	a378 <__aeabi_ddiv+0x4c8>
    a102:	45a9      	cmp	r9, r5
    a104:	d800      	bhi.n	a108 <__aeabi_ddiv+0x258>
    a106:	e137      	b.n	a378 <__aeabi_ddiv+0x4c8>
    a108:	2302      	movs	r3, #2
    a10a:	425b      	negs	r3, r3
    a10c:	469c      	mov	ip, r3
    a10e:	4445      	add	r5, r8
    a110:	44e3      	add	fp, ip
    a112:	464b      	mov	r3, r9
    a114:	1aeb      	subs	r3, r5, r3
    a116:	0039      	movs	r1, r7
    a118:	0018      	movs	r0, r3
    a11a:	9304      	str	r3, [sp, #16]
    a11c:	f7ff fa0c 	bl	9538 <__udivsi3>
    a120:	9b01      	ldr	r3, [sp, #4]
    a122:	0005      	movs	r5, r0
    a124:	4343      	muls	r3, r0
    a126:	0039      	movs	r1, r7
    a128:	9804      	ldr	r0, [sp, #16]
    a12a:	4699      	mov	r9, r3
    a12c:	f7ff fa8a 	bl	9644 <__aeabi_uidivmod>
    a130:	0433      	lsls	r3, r6, #16
    a132:	0409      	lsls	r1, r1, #16
    a134:	0c1b      	lsrs	r3, r3, #16
    a136:	430b      	orrs	r3, r1
    a138:	4599      	cmp	r9, r3
    a13a:	d909      	bls.n	a150 <__aeabi_ddiv+0x2a0>
    a13c:	4443      	add	r3, r8
    a13e:	1e6a      	subs	r2, r5, #1
    a140:	4598      	cmp	r8, r3
    a142:	d900      	bls.n	a146 <__aeabi_ddiv+0x296>
    a144:	e11a      	b.n	a37c <__aeabi_ddiv+0x4cc>
    a146:	4599      	cmp	r9, r3
    a148:	d800      	bhi.n	a14c <__aeabi_ddiv+0x29c>
    a14a:	e117      	b.n	a37c <__aeabi_ddiv+0x4cc>
    a14c:	3d02      	subs	r5, #2
    a14e:	4443      	add	r3, r8
    a150:	464a      	mov	r2, r9
    a152:	1a9b      	subs	r3, r3, r2
    a154:	465a      	mov	r2, fp
    a156:	0412      	lsls	r2, r2, #16
    a158:	432a      	orrs	r2, r5
    a15a:	9903      	ldr	r1, [sp, #12]
    a15c:	4693      	mov	fp, r2
    a15e:	0c10      	lsrs	r0, r2, #16
    a160:	0c0a      	lsrs	r2, r1, #16
    a162:	4691      	mov	r9, r2
    a164:	0409      	lsls	r1, r1, #16
    a166:	465a      	mov	r2, fp
    a168:	0c09      	lsrs	r1, r1, #16
    a16a:	464e      	mov	r6, r9
    a16c:	000d      	movs	r5, r1
    a16e:	0412      	lsls	r2, r2, #16
    a170:	0c12      	lsrs	r2, r2, #16
    a172:	4345      	muls	r5, r0
    a174:	9105      	str	r1, [sp, #20]
    a176:	4351      	muls	r1, r2
    a178:	4372      	muls	r2, r6
    a17a:	4370      	muls	r0, r6
    a17c:	1952      	adds	r2, r2, r5
    a17e:	0c0e      	lsrs	r6, r1, #16
    a180:	18b2      	adds	r2, r6, r2
    a182:	4295      	cmp	r5, r2
    a184:	d903      	bls.n	a18e <__aeabi_ddiv+0x2de>
    a186:	2580      	movs	r5, #128	; 0x80
    a188:	026d      	lsls	r5, r5, #9
    a18a:	46ac      	mov	ip, r5
    a18c:	4460      	add	r0, ip
    a18e:	0c15      	lsrs	r5, r2, #16
    a190:	0409      	lsls	r1, r1, #16
    a192:	0412      	lsls	r2, r2, #16
    a194:	0c09      	lsrs	r1, r1, #16
    a196:	1828      	adds	r0, r5, r0
    a198:	1852      	adds	r2, r2, r1
    a19a:	4283      	cmp	r3, r0
    a19c:	d200      	bcs.n	a1a0 <__aeabi_ddiv+0x2f0>
    a19e:	e0ce      	b.n	a33e <__aeabi_ddiv+0x48e>
    a1a0:	d100      	bne.n	a1a4 <__aeabi_ddiv+0x2f4>
    a1a2:	e0c8      	b.n	a336 <__aeabi_ddiv+0x486>
    a1a4:	1a1d      	subs	r5, r3, r0
    a1a6:	4653      	mov	r3, sl
    a1a8:	1a9e      	subs	r6, r3, r2
    a1aa:	45b2      	cmp	sl, r6
    a1ac:	4192      	sbcs	r2, r2
    a1ae:	4252      	negs	r2, r2
    a1b0:	1aab      	subs	r3, r5, r2
    a1b2:	469a      	mov	sl, r3
    a1b4:	4598      	cmp	r8, r3
    a1b6:	d100      	bne.n	a1ba <__aeabi_ddiv+0x30a>
    a1b8:	e117      	b.n	a3ea <__aeabi_ddiv+0x53a>
    a1ba:	0039      	movs	r1, r7
    a1bc:	0018      	movs	r0, r3
    a1be:	f7ff f9bb 	bl	9538 <__udivsi3>
    a1c2:	9b01      	ldr	r3, [sp, #4]
    a1c4:	0005      	movs	r5, r0
    a1c6:	4343      	muls	r3, r0
    a1c8:	0039      	movs	r1, r7
    a1ca:	4650      	mov	r0, sl
    a1cc:	9304      	str	r3, [sp, #16]
    a1ce:	f7ff fa39 	bl	9644 <__aeabi_uidivmod>
    a1d2:	9804      	ldr	r0, [sp, #16]
    a1d4:	040b      	lsls	r3, r1, #16
    a1d6:	0c31      	lsrs	r1, r6, #16
    a1d8:	4319      	orrs	r1, r3
    a1da:	4288      	cmp	r0, r1
    a1dc:	d909      	bls.n	a1f2 <__aeabi_ddiv+0x342>
    a1de:	4441      	add	r1, r8
    a1e0:	1e6b      	subs	r3, r5, #1
    a1e2:	4588      	cmp	r8, r1
    a1e4:	d900      	bls.n	a1e8 <__aeabi_ddiv+0x338>
    a1e6:	e107      	b.n	a3f8 <__aeabi_ddiv+0x548>
    a1e8:	4288      	cmp	r0, r1
    a1ea:	d800      	bhi.n	a1ee <__aeabi_ddiv+0x33e>
    a1ec:	e104      	b.n	a3f8 <__aeabi_ddiv+0x548>
    a1ee:	3d02      	subs	r5, #2
    a1f0:	4441      	add	r1, r8
    a1f2:	9b04      	ldr	r3, [sp, #16]
    a1f4:	1acb      	subs	r3, r1, r3
    a1f6:	0018      	movs	r0, r3
    a1f8:	0039      	movs	r1, r7
    a1fa:	9304      	str	r3, [sp, #16]
    a1fc:	f7ff f99c 	bl	9538 <__udivsi3>
    a200:	9b01      	ldr	r3, [sp, #4]
    a202:	4682      	mov	sl, r0
    a204:	4343      	muls	r3, r0
    a206:	0039      	movs	r1, r7
    a208:	9804      	ldr	r0, [sp, #16]
    a20a:	9301      	str	r3, [sp, #4]
    a20c:	f7ff fa1a 	bl	9644 <__aeabi_uidivmod>
    a210:	9801      	ldr	r0, [sp, #4]
    a212:	040b      	lsls	r3, r1, #16
    a214:	0431      	lsls	r1, r6, #16
    a216:	0c09      	lsrs	r1, r1, #16
    a218:	4319      	orrs	r1, r3
    a21a:	4288      	cmp	r0, r1
    a21c:	d90d      	bls.n	a23a <__aeabi_ddiv+0x38a>
    a21e:	4653      	mov	r3, sl
    a220:	4441      	add	r1, r8
    a222:	3b01      	subs	r3, #1
    a224:	4588      	cmp	r8, r1
    a226:	d900      	bls.n	a22a <__aeabi_ddiv+0x37a>
    a228:	e0e8      	b.n	a3fc <__aeabi_ddiv+0x54c>
    a22a:	4288      	cmp	r0, r1
    a22c:	d800      	bhi.n	a230 <__aeabi_ddiv+0x380>
    a22e:	e0e5      	b.n	a3fc <__aeabi_ddiv+0x54c>
    a230:	2302      	movs	r3, #2
    a232:	425b      	negs	r3, r3
    a234:	469c      	mov	ip, r3
    a236:	4441      	add	r1, r8
    a238:	44e2      	add	sl, ip
    a23a:	9b01      	ldr	r3, [sp, #4]
    a23c:	042d      	lsls	r5, r5, #16
    a23e:	1ace      	subs	r6, r1, r3
    a240:	4651      	mov	r1, sl
    a242:	4329      	orrs	r1, r5
    a244:	9d05      	ldr	r5, [sp, #20]
    a246:	464f      	mov	r7, r9
    a248:	002a      	movs	r2, r5
    a24a:	040b      	lsls	r3, r1, #16
    a24c:	0c08      	lsrs	r0, r1, #16
    a24e:	0c1b      	lsrs	r3, r3, #16
    a250:	435a      	muls	r2, r3
    a252:	4345      	muls	r5, r0
    a254:	437b      	muls	r3, r7
    a256:	4378      	muls	r0, r7
    a258:	195b      	adds	r3, r3, r5
    a25a:	0c17      	lsrs	r7, r2, #16
    a25c:	18fb      	adds	r3, r7, r3
    a25e:	429d      	cmp	r5, r3
    a260:	d903      	bls.n	a26a <__aeabi_ddiv+0x3ba>
    a262:	2580      	movs	r5, #128	; 0x80
    a264:	026d      	lsls	r5, r5, #9
    a266:	46ac      	mov	ip, r5
    a268:	4460      	add	r0, ip
    a26a:	0c1d      	lsrs	r5, r3, #16
    a26c:	0412      	lsls	r2, r2, #16
    a26e:	041b      	lsls	r3, r3, #16
    a270:	0c12      	lsrs	r2, r2, #16
    a272:	1828      	adds	r0, r5, r0
    a274:	189b      	adds	r3, r3, r2
    a276:	4286      	cmp	r6, r0
    a278:	d200      	bcs.n	a27c <__aeabi_ddiv+0x3cc>
    a27a:	e093      	b.n	a3a4 <__aeabi_ddiv+0x4f4>
    a27c:	d100      	bne.n	a280 <__aeabi_ddiv+0x3d0>
    a27e:	e08e      	b.n	a39e <__aeabi_ddiv+0x4ee>
    a280:	2301      	movs	r3, #1
    a282:	4319      	orrs	r1, r3
    a284:	4ba0      	ldr	r3, [pc, #640]	; (a508 <__aeabi_ddiv+0x658>)
    a286:	18e3      	adds	r3, r4, r3
    a288:	2b00      	cmp	r3, #0
    a28a:	dc00      	bgt.n	a28e <__aeabi_ddiv+0x3de>
    a28c:	e099      	b.n	a3c2 <__aeabi_ddiv+0x512>
    a28e:	074a      	lsls	r2, r1, #29
    a290:	d000      	beq.n	a294 <__aeabi_ddiv+0x3e4>
    a292:	e09e      	b.n	a3d2 <__aeabi_ddiv+0x522>
    a294:	465a      	mov	r2, fp
    a296:	01d2      	lsls	r2, r2, #7
    a298:	d506      	bpl.n	a2a8 <__aeabi_ddiv+0x3f8>
    a29a:	465a      	mov	r2, fp
    a29c:	4b9b      	ldr	r3, [pc, #620]	; (a50c <__aeabi_ddiv+0x65c>)
    a29e:	401a      	ands	r2, r3
    a2a0:	2380      	movs	r3, #128	; 0x80
    a2a2:	4693      	mov	fp, r2
    a2a4:	00db      	lsls	r3, r3, #3
    a2a6:	18e3      	adds	r3, r4, r3
    a2a8:	4a99      	ldr	r2, [pc, #612]	; (a510 <__aeabi_ddiv+0x660>)
    a2aa:	4293      	cmp	r3, r2
    a2ac:	dd68      	ble.n	a380 <__aeabi_ddiv+0x4d0>
    a2ae:	2301      	movs	r3, #1
    a2b0:	9a02      	ldr	r2, [sp, #8]
    a2b2:	4c98      	ldr	r4, [pc, #608]	; (a514 <__aeabi_ddiv+0x664>)
    a2b4:	401a      	ands	r2, r3
    a2b6:	2300      	movs	r3, #0
    a2b8:	4694      	mov	ip, r2
    a2ba:	4698      	mov	r8, r3
    a2bc:	2200      	movs	r2, #0
    a2be:	e6c5      	b.n	a04c <__aeabi_ddiv+0x19c>
    a2c0:	2280      	movs	r2, #128	; 0x80
    a2c2:	464b      	mov	r3, r9
    a2c4:	0312      	lsls	r2, r2, #12
    a2c6:	4213      	tst	r3, r2
    a2c8:	d00a      	beq.n	a2e0 <__aeabi_ddiv+0x430>
    a2ca:	465b      	mov	r3, fp
    a2cc:	4213      	tst	r3, r2
    a2ce:	d106      	bne.n	a2de <__aeabi_ddiv+0x42e>
    a2d0:	431a      	orrs	r2, r3
    a2d2:	0312      	lsls	r2, r2, #12
    a2d4:	0b12      	lsrs	r2, r2, #12
    a2d6:	46ac      	mov	ip, r5
    a2d8:	4688      	mov	r8, r1
    a2da:	4c8e      	ldr	r4, [pc, #568]	; (a514 <__aeabi_ddiv+0x664>)
    a2dc:	e6b6      	b.n	a04c <__aeabi_ddiv+0x19c>
    a2de:	464b      	mov	r3, r9
    a2e0:	431a      	orrs	r2, r3
    a2e2:	0312      	lsls	r2, r2, #12
    a2e4:	0b12      	lsrs	r2, r2, #12
    a2e6:	46bc      	mov	ip, r7
    a2e8:	4c8a      	ldr	r4, [pc, #552]	; (a514 <__aeabi_ddiv+0x664>)
    a2ea:	e6af      	b.n	a04c <__aeabi_ddiv+0x19c>
    a2ec:	0003      	movs	r3, r0
    a2ee:	465a      	mov	r2, fp
    a2f0:	3b28      	subs	r3, #40	; 0x28
    a2f2:	409a      	lsls	r2, r3
    a2f4:	2300      	movs	r3, #0
    a2f6:	4691      	mov	r9, r2
    a2f8:	4698      	mov	r8, r3
    a2fa:	e657      	b.n	9fac <__aeabi_ddiv+0xfc>
    a2fc:	4658      	mov	r0, fp
    a2fe:	f000 ff0d 	bl	b11c <__clzsi2>
    a302:	3020      	adds	r0, #32
    a304:	e640      	b.n	9f88 <__aeabi_ddiv+0xd8>
    a306:	0003      	movs	r3, r0
    a308:	4652      	mov	r2, sl
    a30a:	3b28      	subs	r3, #40	; 0x28
    a30c:	409a      	lsls	r2, r3
    a30e:	2100      	movs	r1, #0
    a310:	4693      	mov	fp, r2
    a312:	e677      	b.n	a004 <__aeabi_ddiv+0x154>
    a314:	f000 ff02 	bl	b11c <__clzsi2>
    a318:	3020      	adds	r0, #32
    a31a:	e65f      	b.n	9fdc <__aeabi_ddiv+0x12c>
    a31c:	4588      	cmp	r8, r1
    a31e:	d200      	bcs.n	a322 <__aeabi_ddiv+0x472>
    a320:	e6c7      	b.n	a0b2 <__aeabi_ddiv+0x202>
    a322:	464b      	mov	r3, r9
    a324:	07de      	lsls	r6, r3, #31
    a326:	085d      	lsrs	r5, r3, #1
    a328:	4643      	mov	r3, r8
    a32a:	085b      	lsrs	r3, r3, #1
    a32c:	431e      	orrs	r6, r3
    a32e:	4643      	mov	r3, r8
    a330:	07db      	lsls	r3, r3, #31
    a332:	469a      	mov	sl, r3
    a334:	e6c2      	b.n	a0bc <__aeabi_ddiv+0x20c>
    a336:	2500      	movs	r5, #0
    a338:	4592      	cmp	sl, r2
    a33a:	d300      	bcc.n	a33e <__aeabi_ddiv+0x48e>
    a33c:	e733      	b.n	a1a6 <__aeabi_ddiv+0x2f6>
    a33e:	9e03      	ldr	r6, [sp, #12]
    a340:	4659      	mov	r1, fp
    a342:	46b4      	mov	ip, r6
    a344:	44e2      	add	sl, ip
    a346:	45b2      	cmp	sl, r6
    a348:	41ad      	sbcs	r5, r5
    a34a:	426d      	negs	r5, r5
    a34c:	4445      	add	r5, r8
    a34e:	18eb      	adds	r3, r5, r3
    a350:	3901      	subs	r1, #1
    a352:	4598      	cmp	r8, r3
    a354:	d207      	bcs.n	a366 <__aeabi_ddiv+0x4b6>
    a356:	4298      	cmp	r0, r3
    a358:	d900      	bls.n	a35c <__aeabi_ddiv+0x4ac>
    a35a:	e07f      	b.n	a45c <__aeabi_ddiv+0x5ac>
    a35c:	d100      	bne.n	a360 <__aeabi_ddiv+0x4b0>
    a35e:	e0bc      	b.n	a4da <__aeabi_ddiv+0x62a>
    a360:	1a1d      	subs	r5, r3, r0
    a362:	468b      	mov	fp, r1
    a364:	e71f      	b.n	a1a6 <__aeabi_ddiv+0x2f6>
    a366:	4598      	cmp	r8, r3
    a368:	d1fa      	bne.n	a360 <__aeabi_ddiv+0x4b0>
    a36a:	9d03      	ldr	r5, [sp, #12]
    a36c:	4555      	cmp	r5, sl
    a36e:	d9f2      	bls.n	a356 <__aeabi_ddiv+0x4a6>
    a370:	4643      	mov	r3, r8
    a372:	468b      	mov	fp, r1
    a374:	1a1d      	subs	r5, r3, r0
    a376:	e716      	b.n	a1a6 <__aeabi_ddiv+0x2f6>
    a378:	469b      	mov	fp, r3
    a37a:	e6ca      	b.n	a112 <__aeabi_ddiv+0x262>
    a37c:	0015      	movs	r5, r2
    a37e:	e6e7      	b.n	a150 <__aeabi_ddiv+0x2a0>
    a380:	465a      	mov	r2, fp
    a382:	08c9      	lsrs	r1, r1, #3
    a384:	0752      	lsls	r2, r2, #29
    a386:	430a      	orrs	r2, r1
    a388:	055b      	lsls	r3, r3, #21
    a38a:	4690      	mov	r8, r2
    a38c:	0d5c      	lsrs	r4, r3, #21
    a38e:	465a      	mov	r2, fp
    a390:	2301      	movs	r3, #1
    a392:	9902      	ldr	r1, [sp, #8]
    a394:	0252      	lsls	r2, r2, #9
    a396:	4019      	ands	r1, r3
    a398:	0b12      	lsrs	r2, r2, #12
    a39a:	468c      	mov	ip, r1
    a39c:	e656      	b.n	a04c <__aeabi_ddiv+0x19c>
    a39e:	2b00      	cmp	r3, #0
    a3a0:	d100      	bne.n	a3a4 <__aeabi_ddiv+0x4f4>
    a3a2:	e76f      	b.n	a284 <__aeabi_ddiv+0x3d4>
    a3a4:	4446      	add	r6, r8
    a3a6:	1e4a      	subs	r2, r1, #1
    a3a8:	45b0      	cmp	r8, r6
    a3aa:	d929      	bls.n	a400 <__aeabi_ddiv+0x550>
    a3ac:	0011      	movs	r1, r2
    a3ae:	4286      	cmp	r6, r0
    a3b0:	d000      	beq.n	a3b4 <__aeabi_ddiv+0x504>
    a3b2:	e765      	b.n	a280 <__aeabi_ddiv+0x3d0>
    a3b4:	9a03      	ldr	r2, [sp, #12]
    a3b6:	4293      	cmp	r3, r2
    a3b8:	d000      	beq.n	a3bc <__aeabi_ddiv+0x50c>
    a3ba:	e761      	b.n	a280 <__aeabi_ddiv+0x3d0>
    a3bc:	e762      	b.n	a284 <__aeabi_ddiv+0x3d4>
    a3be:	2101      	movs	r1, #1
    a3c0:	4249      	negs	r1, r1
    a3c2:	2001      	movs	r0, #1
    a3c4:	1ac2      	subs	r2, r0, r3
    a3c6:	2a38      	cmp	r2, #56	; 0x38
    a3c8:	dd21      	ble.n	a40e <__aeabi_ddiv+0x55e>
    a3ca:	9b02      	ldr	r3, [sp, #8]
    a3cc:	4003      	ands	r3, r0
    a3ce:	469c      	mov	ip, r3
    a3d0:	e638      	b.n	a044 <__aeabi_ddiv+0x194>
    a3d2:	220f      	movs	r2, #15
    a3d4:	400a      	ands	r2, r1
    a3d6:	2a04      	cmp	r2, #4
    a3d8:	d100      	bne.n	a3dc <__aeabi_ddiv+0x52c>
    a3da:	e75b      	b.n	a294 <__aeabi_ddiv+0x3e4>
    a3dc:	000a      	movs	r2, r1
    a3de:	1d11      	adds	r1, r2, #4
    a3e0:	4291      	cmp	r1, r2
    a3e2:	4192      	sbcs	r2, r2
    a3e4:	4252      	negs	r2, r2
    a3e6:	4493      	add	fp, r2
    a3e8:	e754      	b.n	a294 <__aeabi_ddiv+0x3e4>
    a3ea:	4b47      	ldr	r3, [pc, #284]	; (a508 <__aeabi_ddiv+0x658>)
    a3ec:	18e3      	adds	r3, r4, r3
    a3ee:	2b00      	cmp	r3, #0
    a3f0:	dde5      	ble.n	a3be <__aeabi_ddiv+0x50e>
    a3f2:	2201      	movs	r2, #1
    a3f4:	4252      	negs	r2, r2
    a3f6:	e7f2      	b.n	a3de <__aeabi_ddiv+0x52e>
    a3f8:	001d      	movs	r5, r3
    a3fa:	e6fa      	b.n	a1f2 <__aeabi_ddiv+0x342>
    a3fc:	469a      	mov	sl, r3
    a3fe:	e71c      	b.n	a23a <__aeabi_ddiv+0x38a>
    a400:	42b0      	cmp	r0, r6
    a402:	d839      	bhi.n	a478 <__aeabi_ddiv+0x5c8>
    a404:	d06e      	beq.n	a4e4 <__aeabi_ddiv+0x634>
    a406:	0011      	movs	r1, r2
    a408:	e73a      	b.n	a280 <__aeabi_ddiv+0x3d0>
    a40a:	9302      	str	r3, [sp, #8]
    a40c:	e73a      	b.n	a284 <__aeabi_ddiv+0x3d4>
    a40e:	2a1f      	cmp	r2, #31
    a410:	dc3c      	bgt.n	a48c <__aeabi_ddiv+0x5dc>
    a412:	2320      	movs	r3, #32
    a414:	1a9b      	subs	r3, r3, r2
    a416:	000c      	movs	r4, r1
    a418:	4658      	mov	r0, fp
    a41a:	4099      	lsls	r1, r3
    a41c:	4098      	lsls	r0, r3
    a41e:	1e4b      	subs	r3, r1, #1
    a420:	4199      	sbcs	r1, r3
    a422:	465b      	mov	r3, fp
    a424:	40d4      	lsrs	r4, r2
    a426:	40d3      	lsrs	r3, r2
    a428:	4320      	orrs	r0, r4
    a42a:	4308      	orrs	r0, r1
    a42c:	001a      	movs	r2, r3
    a42e:	0743      	lsls	r3, r0, #29
    a430:	d009      	beq.n	a446 <__aeabi_ddiv+0x596>
    a432:	230f      	movs	r3, #15
    a434:	4003      	ands	r3, r0
    a436:	2b04      	cmp	r3, #4
    a438:	d005      	beq.n	a446 <__aeabi_ddiv+0x596>
    a43a:	0001      	movs	r1, r0
    a43c:	1d08      	adds	r0, r1, #4
    a43e:	4288      	cmp	r0, r1
    a440:	419b      	sbcs	r3, r3
    a442:	425b      	negs	r3, r3
    a444:	18d2      	adds	r2, r2, r3
    a446:	0213      	lsls	r3, r2, #8
    a448:	d53a      	bpl.n	a4c0 <__aeabi_ddiv+0x610>
    a44a:	2301      	movs	r3, #1
    a44c:	9a02      	ldr	r2, [sp, #8]
    a44e:	2401      	movs	r4, #1
    a450:	401a      	ands	r2, r3
    a452:	2300      	movs	r3, #0
    a454:	4694      	mov	ip, r2
    a456:	4698      	mov	r8, r3
    a458:	2200      	movs	r2, #0
    a45a:	e5f7      	b.n	a04c <__aeabi_ddiv+0x19c>
    a45c:	2102      	movs	r1, #2
    a45e:	4249      	negs	r1, r1
    a460:	468c      	mov	ip, r1
    a462:	9d03      	ldr	r5, [sp, #12]
    a464:	44e3      	add	fp, ip
    a466:	46ac      	mov	ip, r5
    a468:	44e2      	add	sl, ip
    a46a:	45aa      	cmp	sl, r5
    a46c:	41ad      	sbcs	r5, r5
    a46e:	426d      	negs	r5, r5
    a470:	4445      	add	r5, r8
    a472:	18ed      	adds	r5, r5, r3
    a474:	1a2d      	subs	r5, r5, r0
    a476:	e696      	b.n	a1a6 <__aeabi_ddiv+0x2f6>
    a478:	1e8a      	subs	r2, r1, #2
    a47a:	9903      	ldr	r1, [sp, #12]
    a47c:	004d      	lsls	r5, r1, #1
    a47e:	428d      	cmp	r5, r1
    a480:	4189      	sbcs	r1, r1
    a482:	4249      	negs	r1, r1
    a484:	4441      	add	r1, r8
    a486:	1876      	adds	r6, r6, r1
    a488:	9503      	str	r5, [sp, #12]
    a48a:	e78f      	b.n	a3ac <__aeabi_ddiv+0x4fc>
    a48c:	201f      	movs	r0, #31
    a48e:	4240      	negs	r0, r0
    a490:	1ac3      	subs	r3, r0, r3
    a492:	4658      	mov	r0, fp
    a494:	40d8      	lsrs	r0, r3
    a496:	0003      	movs	r3, r0
    a498:	2a20      	cmp	r2, #32
    a49a:	d028      	beq.n	a4ee <__aeabi_ddiv+0x63e>
    a49c:	2040      	movs	r0, #64	; 0x40
    a49e:	465d      	mov	r5, fp
    a4a0:	1a82      	subs	r2, r0, r2
    a4a2:	4095      	lsls	r5, r2
    a4a4:	4329      	orrs	r1, r5
    a4a6:	1e4a      	subs	r2, r1, #1
    a4a8:	4191      	sbcs	r1, r2
    a4aa:	4319      	orrs	r1, r3
    a4ac:	2307      	movs	r3, #7
    a4ae:	2200      	movs	r2, #0
    a4b0:	400b      	ands	r3, r1
    a4b2:	d009      	beq.n	a4c8 <__aeabi_ddiv+0x618>
    a4b4:	230f      	movs	r3, #15
    a4b6:	2200      	movs	r2, #0
    a4b8:	400b      	ands	r3, r1
    a4ba:	0008      	movs	r0, r1
    a4bc:	2b04      	cmp	r3, #4
    a4be:	d1bd      	bne.n	a43c <__aeabi_ddiv+0x58c>
    a4c0:	0001      	movs	r1, r0
    a4c2:	0753      	lsls	r3, r2, #29
    a4c4:	0252      	lsls	r2, r2, #9
    a4c6:	0b12      	lsrs	r2, r2, #12
    a4c8:	08c9      	lsrs	r1, r1, #3
    a4ca:	4319      	orrs	r1, r3
    a4cc:	2301      	movs	r3, #1
    a4ce:	4688      	mov	r8, r1
    a4d0:	9902      	ldr	r1, [sp, #8]
    a4d2:	2400      	movs	r4, #0
    a4d4:	4019      	ands	r1, r3
    a4d6:	468c      	mov	ip, r1
    a4d8:	e5b8      	b.n	a04c <__aeabi_ddiv+0x19c>
    a4da:	4552      	cmp	r2, sl
    a4dc:	d8be      	bhi.n	a45c <__aeabi_ddiv+0x5ac>
    a4de:	468b      	mov	fp, r1
    a4e0:	2500      	movs	r5, #0
    a4e2:	e660      	b.n	a1a6 <__aeabi_ddiv+0x2f6>
    a4e4:	9d03      	ldr	r5, [sp, #12]
    a4e6:	429d      	cmp	r5, r3
    a4e8:	d3c6      	bcc.n	a478 <__aeabi_ddiv+0x5c8>
    a4ea:	0011      	movs	r1, r2
    a4ec:	e762      	b.n	a3b4 <__aeabi_ddiv+0x504>
    a4ee:	2500      	movs	r5, #0
    a4f0:	e7d8      	b.n	a4a4 <__aeabi_ddiv+0x5f4>
    a4f2:	2280      	movs	r2, #128	; 0x80
    a4f4:	465b      	mov	r3, fp
    a4f6:	0312      	lsls	r2, r2, #12
    a4f8:	431a      	orrs	r2, r3
    a4fa:	9b01      	ldr	r3, [sp, #4]
    a4fc:	0312      	lsls	r2, r2, #12
    a4fe:	0b12      	lsrs	r2, r2, #12
    a500:	469c      	mov	ip, r3
    a502:	4688      	mov	r8, r1
    a504:	4c03      	ldr	r4, [pc, #12]	; (a514 <__aeabi_ddiv+0x664>)
    a506:	e5a1      	b.n	a04c <__aeabi_ddiv+0x19c>
    a508:	000003ff 	.word	0x000003ff
    a50c:	feffffff 	.word	0xfeffffff
    a510:	000007fe 	.word	0x000007fe
    a514:	000007ff 	.word	0x000007ff

0000a518 <__aeabi_dmul>:
    a518:	b5f0      	push	{r4, r5, r6, r7, lr}
    a51a:	4657      	mov	r7, sl
    a51c:	4645      	mov	r5, r8
    a51e:	46de      	mov	lr, fp
    a520:	464e      	mov	r6, r9
    a522:	b5e0      	push	{r5, r6, r7, lr}
    a524:	030c      	lsls	r4, r1, #12
    a526:	4698      	mov	r8, r3
    a528:	004e      	lsls	r6, r1, #1
    a52a:	0b23      	lsrs	r3, r4, #12
    a52c:	b087      	sub	sp, #28
    a52e:	0007      	movs	r7, r0
    a530:	4692      	mov	sl, r2
    a532:	469b      	mov	fp, r3
    a534:	0d76      	lsrs	r6, r6, #21
    a536:	0fcd      	lsrs	r5, r1, #31
    a538:	2e00      	cmp	r6, #0
    a53a:	d06b      	beq.n	a614 <__aeabi_dmul+0xfc>
    a53c:	4b6d      	ldr	r3, [pc, #436]	; (a6f4 <__aeabi_dmul+0x1dc>)
    a53e:	429e      	cmp	r6, r3
    a540:	d035      	beq.n	a5ae <__aeabi_dmul+0x96>
    a542:	2480      	movs	r4, #128	; 0x80
    a544:	465b      	mov	r3, fp
    a546:	0f42      	lsrs	r2, r0, #29
    a548:	0424      	lsls	r4, r4, #16
    a54a:	00db      	lsls	r3, r3, #3
    a54c:	4314      	orrs	r4, r2
    a54e:	431c      	orrs	r4, r3
    a550:	00c3      	lsls	r3, r0, #3
    a552:	4699      	mov	r9, r3
    a554:	4b68      	ldr	r3, [pc, #416]	; (a6f8 <__aeabi_dmul+0x1e0>)
    a556:	46a3      	mov	fp, r4
    a558:	469c      	mov	ip, r3
    a55a:	2300      	movs	r3, #0
    a55c:	2700      	movs	r7, #0
    a55e:	4466      	add	r6, ip
    a560:	9302      	str	r3, [sp, #8]
    a562:	4643      	mov	r3, r8
    a564:	031c      	lsls	r4, r3, #12
    a566:	005a      	lsls	r2, r3, #1
    a568:	0fdb      	lsrs	r3, r3, #31
    a56a:	4650      	mov	r0, sl
    a56c:	0b24      	lsrs	r4, r4, #12
    a56e:	0d52      	lsrs	r2, r2, #21
    a570:	4698      	mov	r8, r3
    a572:	d100      	bne.n	a576 <__aeabi_dmul+0x5e>
    a574:	e076      	b.n	a664 <__aeabi_dmul+0x14c>
    a576:	4b5f      	ldr	r3, [pc, #380]	; (a6f4 <__aeabi_dmul+0x1dc>)
    a578:	429a      	cmp	r2, r3
    a57a:	d06d      	beq.n	a658 <__aeabi_dmul+0x140>
    a57c:	2380      	movs	r3, #128	; 0x80
    a57e:	0f41      	lsrs	r1, r0, #29
    a580:	041b      	lsls	r3, r3, #16
    a582:	430b      	orrs	r3, r1
    a584:	495c      	ldr	r1, [pc, #368]	; (a6f8 <__aeabi_dmul+0x1e0>)
    a586:	00e4      	lsls	r4, r4, #3
    a588:	468c      	mov	ip, r1
    a58a:	431c      	orrs	r4, r3
    a58c:	00c3      	lsls	r3, r0, #3
    a58e:	2000      	movs	r0, #0
    a590:	4462      	add	r2, ip
    a592:	4641      	mov	r1, r8
    a594:	18b6      	adds	r6, r6, r2
    a596:	4069      	eors	r1, r5
    a598:	1c72      	adds	r2, r6, #1
    a59a:	9101      	str	r1, [sp, #4]
    a59c:	4694      	mov	ip, r2
    a59e:	4307      	orrs	r7, r0
    a5a0:	2f0f      	cmp	r7, #15
    a5a2:	d900      	bls.n	a5a6 <__aeabi_dmul+0x8e>
    a5a4:	e0b0      	b.n	a708 <__aeabi_dmul+0x1f0>
    a5a6:	4a55      	ldr	r2, [pc, #340]	; (a6fc <__aeabi_dmul+0x1e4>)
    a5a8:	00bf      	lsls	r7, r7, #2
    a5aa:	59d2      	ldr	r2, [r2, r7]
    a5ac:	4697      	mov	pc, r2
    a5ae:	465b      	mov	r3, fp
    a5b0:	4303      	orrs	r3, r0
    a5b2:	4699      	mov	r9, r3
    a5b4:	d000      	beq.n	a5b8 <__aeabi_dmul+0xa0>
    a5b6:	e087      	b.n	a6c8 <__aeabi_dmul+0x1b0>
    a5b8:	2300      	movs	r3, #0
    a5ba:	469b      	mov	fp, r3
    a5bc:	3302      	adds	r3, #2
    a5be:	2708      	movs	r7, #8
    a5c0:	9302      	str	r3, [sp, #8]
    a5c2:	e7ce      	b.n	a562 <__aeabi_dmul+0x4a>
    a5c4:	4642      	mov	r2, r8
    a5c6:	9201      	str	r2, [sp, #4]
    a5c8:	2802      	cmp	r0, #2
    a5ca:	d067      	beq.n	a69c <__aeabi_dmul+0x184>
    a5cc:	2803      	cmp	r0, #3
    a5ce:	d100      	bne.n	a5d2 <__aeabi_dmul+0xba>
    a5d0:	e20e      	b.n	a9f0 <__aeabi_dmul+0x4d8>
    a5d2:	2801      	cmp	r0, #1
    a5d4:	d000      	beq.n	a5d8 <__aeabi_dmul+0xc0>
    a5d6:	e162      	b.n	a89e <__aeabi_dmul+0x386>
    a5d8:	2300      	movs	r3, #0
    a5da:	2400      	movs	r4, #0
    a5dc:	2200      	movs	r2, #0
    a5de:	4699      	mov	r9, r3
    a5e0:	9901      	ldr	r1, [sp, #4]
    a5e2:	4001      	ands	r1, r0
    a5e4:	b2cd      	uxtb	r5, r1
    a5e6:	2100      	movs	r1, #0
    a5e8:	0312      	lsls	r2, r2, #12
    a5ea:	0d0b      	lsrs	r3, r1, #20
    a5ec:	0b12      	lsrs	r2, r2, #12
    a5ee:	051b      	lsls	r3, r3, #20
    a5f0:	4313      	orrs	r3, r2
    a5f2:	4a43      	ldr	r2, [pc, #268]	; (a700 <__aeabi_dmul+0x1e8>)
    a5f4:	0524      	lsls	r4, r4, #20
    a5f6:	4013      	ands	r3, r2
    a5f8:	431c      	orrs	r4, r3
    a5fa:	0064      	lsls	r4, r4, #1
    a5fc:	07ed      	lsls	r5, r5, #31
    a5fe:	0864      	lsrs	r4, r4, #1
    a600:	432c      	orrs	r4, r5
    a602:	4648      	mov	r0, r9
    a604:	0021      	movs	r1, r4
    a606:	b007      	add	sp, #28
    a608:	bc3c      	pop	{r2, r3, r4, r5}
    a60a:	4690      	mov	r8, r2
    a60c:	4699      	mov	r9, r3
    a60e:	46a2      	mov	sl, r4
    a610:	46ab      	mov	fp, r5
    a612:	bdf0      	pop	{r4, r5, r6, r7, pc}
    a614:	4303      	orrs	r3, r0
    a616:	4699      	mov	r9, r3
    a618:	d04f      	beq.n	a6ba <__aeabi_dmul+0x1a2>
    a61a:	465b      	mov	r3, fp
    a61c:	2b00      	cmp	r3, #0
    a61e:	d100      	bne.n	a622 <__aeabi_dmul+0x10a>
    a620:	e189      	b.n	a936 <__aeabi_dmul+0x41e>
    a622:	4658      	mov	r0, fp
    a624:	f000 fd7a 	bl	b11c <__clzsi2>
    a628:	0003      	movs	r3, r0
    a62a:	3b0b      	subs	r3, #11
    a62c:	2b1c      	cmp	r3, #28
    a62e:	dd00      	ble.n	a632 <__aeabi_dmul+0x11a>
    a630:	e17a      	b.n	a928 <__aeabi_dmul+0x410>
    a632:	221d      	movs	r2, #29
    a634:	1ad3      	subs	r3, r2, r3
    a636:	003a      	movs	r2, r7
    a638:	0001      	movs	r1, r0
    a63a:	465c      	mov	r4, fp
    a63c:	40da      	lsrs	r2, r3
    a63e:	3908      	subs	r1, #8
    a640:	408c      	lsls	r4, r1
    a642:	0013      	movs	r3, r2
    a644:	408f      	lsls	r7, r1
    a646:	4323      	orrs	r3, r4
    a648:	469b      	mov	fp, r3
    a64a:	46b9      	mov	r9, r7
    a64c:	2300      	movs	r3, #0
    a64e:	4e2d      	ldr	r6, [pc, #180]	; (a704 <__aeabi_dmul+0x1ec>)
    a650:	2700      	movs	r7, #0
    a652:	1a36      	subs	r6, r6, r0
    a654:	9302      	str	r3, [sp, #8]
    a656:	e784      	b.n	a562 <__aeabi_dmul+0x4a>
    a658:	4653      	mov	r3, sl
    a65a:	4323      	orrs	r3, r4
    a65c:	d12a      	bne.n	a6b4 <__aeabi_dmul+0x19c>
    a65e:	2400      	movs	r4, #0
    a660:	2002      	movs	r0, #2
    a662:	e796      	b.n	a592 <__aeabi_dmul+0x7a>
    a664:	4653      	mov	r3, sl
    a666:	4323      	orrs	r3, r4
    a668:	d020      	beq.n	a6ac <__aeabi_dmul+0x194>
    a66a:	2c00      	cmp	r4, #0
    a66c:	d100      	bne.n	a670 <__aeabi_dmul+0x158>
    a66e:	e157      	b.n	a920 <__aeabi_dmul+0x408>
    a670:	0020      	movs	r0, r4
    a672:	f000 fd53 	bl	b11c <__clzsi2>
    a676:	0003      	movs	r3, r0
    a678:	3b0b      	subs	r3, #11
    a67a:	2b1c      	cmp	r3, #28
    a67c:	dd00      	ble.n	a680 <__aeabi_dmul+0x168>
    a67e:	e149      	b.n	a914 <__aeabi_dmul+0x3fc>
    a680:	211d      	movs	r1, #29
    a682:	1acb      	subs	r3, r1, r3
    a684:	4651      	mov	r1, sl
    a686:	0002      	movs	r2, r0
    a688:	40d9      	lsrs	r1, r3
    a68a:	4653      	mov	r3, sl
    a68c:	3a08      	subs	r2, #8
    a68e:	4094      	lsls	r4, r2
    a690:	4093      	lsls	r3, r2
    a692:	430c      	orrs	r4, r1
    a694:	4a1b      	ldr	r2, [pc, #108]	; (a704 <__aeabi_dmul+0x1ec>)
    a696:	1a12      	subs	r2, r2, r0
    a698:	2000      	movs	r0, #0
    a69a:	e77a      	b.n	a592 <__aeabi_dmul+0x7a>
    a69c:	2501      	movs	r5, #1
    a69e:	9b01      	ldr	r3, [sp, #4]
    a6a0:	4c14      	ldr	r4, [pc, #80]	; (a6f4 <__aeabi_dmul+0x1dc>)
    a6a2:	401d      	ands	r5, r3
    a6a4:	2300      	movs	r3, #0
    a6a6:	2200      	movs	r2, #0
    a6a8:	4699      	mov	r9, r3
    a6aa:	e79c      	b.n	a5e6 <__aeabi_dmul+0xce>
    a6ac:	2400      	movs	r4, #0
    a6ae:	2200      	movs	r2, #0
    a6b0:	2001      	movs	r0, #1
    a6b2:	e76e      	b.n	a592 <__aeabi_dmul+0x7a>
    a6b4:	4653      	mov	r3, sl
    a6b6:	2003      	movs	r0, #3
    a6b8:	e76b      	b.n	a592 <__aeabi_dmul+0x7a>
    a6ba:	2300      	movs	r3, #0
    a6bc:	469b      	mov	fp, r3
    a6be:	3301      	adds	r3, #1
    a6c0:	2704      	movs	r7, #4
    a6c2:	2600      	movs	r6, #0
    a6c4:	9302      	str	r3, [sp, #8]
    a6c6:	e74c      	b.n	a562 <__aeabi_dmul+0x4a>
    a6c8:	2303      	movs	r3, #3
    a6ca:	4681      	mov	r9, r0
    a6cc:	270c      	movs	r7, #12
    a6ce:	9302      	str	r3, [sp, #8]
    a6d0:	e747      	b.n	a562 <__aeabi_dmul+0x4a>
    a6d2:	2280      	movs	r2, #128	; 0x80
    a6d4:	2300      	movs	r3, #0
    a6d6:	2500      	movs	r5, #0
    a6d8:	0312      	lsls	r2, r2, #12
    a6da:	4699      	mov	r9, r3
    a6dc:	4c05      	ldr	r4, [pc, #20]	; (a6f4 <__aeabi_dmul+0x1dc>)
    a6de:	e782      	b.n	a5e6 <__aeabi_dmul+0xce>
    a6e0:	465c      	mov	r4, fp
    a6e2:	464b      	mov	r3, r9
    a6e4:	9802      	ldr	r0, [sp, #8]
    a6e6:	e76f      	b.n	a5c8 <__aeabi_dmul+0xb0>
    a6e8:	465c      	mov	r4, fp
    a6ea:	464b      	mov	r3, r9
    a6ec:	9501      	str	r5, [sp, #4]
    a6ee:	9802      	ldr	r0, [sp, #8]
    a6f0:	e76a      	b.n	a5c8 <__aeabi_dmul+0xb0>
    a6f2:	46c0      	nop			; (mov r8, r8)
    a6f4:	000007ff 	.word	0x000007ff
    a6f8:	fffffc01 	.word	0xfffffc01
    a6fc:	0000dc98 	.word	0x0000dc98
    a700:	800fffff 	.word	0x800fffff
    a704:	fffffc0d 	.word	0xfffffc0d
    a708:	464a      	mov	r2, r9
    a70a:	4649      	mov	r1, r9
    a70c:	0c17      	lsrs	r7, r2, #16
    a70e:	0c1a      	lsrs	r2, r3, #16
    a710:	041b      	lsls	r3, r3, #16
    a712:	0c1b      	lsrs	r3, r3, #16
    a714:	0408      	lsls	r0, r1, #16
    a716:	0019      	movs	r1, r3
    a718:	0c00      	lsrs	r0, r0, #16
    a71a:	4341      	muls	r1, r0
    a71c:	0015      	movs	r5, r2
    a71e:	4688      	mov	r8, r1
    a720:	0019      	movs	r1, r3
    a722:	437d      	muls	r5, r7
    a724:	4379      	muls	r1, r7
    a726:	9503      	str	r5, [sp, #12]
    a728:	4689      	mov	r9, r1
    a72a:	0029      	movs	r1, r5
    a72c:	0015      	movs	r5, r2
    a72e:	4345      	muls	r5, r0
    a730:	444d      	add	r5, r9
    a732:	9502      	str	r5, [sp, #8]
    a734:	4645      	mov	r5, r8
    a736:	0c2d      	lsrs	r5, r5, #16
    a738:	46aa      	mov	sl, r5
    a73a:	9d02      	ldr	r5, [sp, #8]
    a73c:	4455      	add	r5, sl
    a73e:	45a9      	cmp	r9, r5
    a740:	d906      	bls.n	a750 <__aeabi_dmul+0x238>
    a742:	468a      	mov	sl, r1
    a744:	2180      	movs	r1, #128	; 0x80
    a746:	0249      	lsls	r1, r1, #9
    a748:	4689      	mov	r9, r1
    a74a:	44ca      	add	sl, r9
    a74c:	4651      	mov	r1, sl
    a74e:	9103      	str	r1, [sp, #12]
    a750:	0c29      	lsrs	r1, r5, #16
    a752:	9104      	str	r1, [sp, #16]
    a754:	4641      	mov	r1, r8
    a756:	0409      	lsls	r1, r1, #16
    a758:	042d      	lsls	r5, r5, #16
    a75a:	0c09      	lsrs	r1, r1, #16
    a75c:	4688      	mov	r8, r1
    a75e:	0029      	movs	r1, r5
    a760:	0c25      	lsrs	r5, r4, #16
    a762:	0424      	lsls	r4, r4, #16
    a764:	4441      	add	r1, r8
    a766:	0c24      	lsrs	r4, r4, #16
    a768:	9105      	str	r1, [sp, #20]
    a76a:	0021      	movs	r1, r4
    a76c:	4341      	muls	r1, r0
    a76e:	4688      	mov	r8, r1
    a770:	0021      	movs	r1, r4
    a772:	4379      	muls	r1, r7
    a774:	468a      	mov	sl, r1
    a776:	4368      	muls	r0, r5
    a778:	4641      	mov	r1, r8
    a77a:	4450      	add	r0, sl
    a77c:	4681      	mov	r9, r0
    a77e:	0c08      	lsrs	r0, r1, #16
    a780:	4448      	add	r0, r9
    a782:	436f      	muls	r7, r5
    a784:	4582      	cmp	sl, r0
    a786:	d903      	bls.n	a790 <__aeabi_dmul+0x278>
    a788:	2180      	movs	r1, #128	; 0x80
    a78a:	0249      	lsls	r1, r1, #9
    a78c:	4689      	mov	r9, r1
    a78e:	444f      	add	r7, r9
    a790:	0c01      	lsrs	r1, r0, #16
    a792:	4689      	mov	r9, r1
    a794:	0039      	movs	r1, r7
    a796:	4449      	add	r1, r9
    a798:	9102      	str	r1, [sp, #8]
    a79a:	4641      	mov	r1, r8
    a79c:	040f      	lsls	r7, r1, #16
    a79e:	9904      	ldr	r1, [sp, #16]
    a7a0:	0c3f      	lsrs	r7, r7, #16
    a7a2:	4688      	mov	r8, r1
    a7a4:	0400      	lsls	r0, r0, #16
    a7a6:	19c0      	adds	r0, r0, r7
    a7a8:	4480      	add	r8, r0
    a7aa:	4641      	mov	r1, r8
    a7ac:	9104      	str	r1, [sp, #16]
    a7ae:	4659      	mov	r1, fp
    a7b0:	0c0f      	lsrs	r7, r1, #16
    a7b2:	0409      	lsls	r1, r1, #16
    a7b4:	0c09      	lsrs	r1, r1, #16
    a7b6:	4688      	mov	r8, r1
    a7b8:	4359      	muls	r1, r3
    a7ba:	468a      	mov	sl, r1
    a7bc:	0039      	movs	r1, r7
    a7be:	4351      	muls	r1, r2
    a7c0:	4689      	mov	r9, r1
    a7c2:	4641      	mov	r1, r8
    a7c4:	434a      	muls	r2, r1
    a7c6:	4651      	mov	r1, sl
    a7c8:	0c09      	lsrs	r1, r1, #16
    a7ca:	468b      	mov	fp, r1
    a7cc:	437b      	muls	r3, r7
    a7ce:	18d2      	adds	r2, r2, r3
    a7d0:	445a      	add	r2, fp
    a7d2:	4293      	cmp	r3, r2
    a7d4:	d903      	bls.n	a7de <__aeabi_dmul+0x2c6>
    a7d6:	2380      	movs	r3, #128	; 0x80
    a7d8:	025b      	lsls	r3, r3, #9
    a7da:	469b      	mov	fp, r3
    a7dc:	44d9      	add	r9, fp
    a7de:	4651      	mov	r1, sl
    a7e0:	0409      	lsls	r1, r1, #16
    a7e2:	0c09      	lsrs	r1, r1, #16
    a7e4:	468a      	mov	sl, r1
    a7e6:	4641      	mov	r1, r8
    a7e8:	4361      	muls	r1, r4
    a7ea:	437c      	muls	r4, r7
    a7ec:	0c13      	lsrs	r3, r2, #16
    a7ee:	0412      	lsls	r2, r2, #16
    a7f0:	444b      	add	r3, r9
    a7f2:	4452      	add	r2, sl
    a7f4:	46a1      	mov	r9, r4
    a7f6:	468a      	mov	sl, r1
    a7f8:	003c      	movs	r4, r7
    a7fa:	4641      	mov	r1, r8
    a7fc:	436c      	muls	r4, r5
    a7fe:	434d      	muls	r5, r1
    a800:	4651      	mov	r1, sl
    a802:	444d      	add	r5, r9
    a804:	0c0f      	lsrs	r7, r1, #16
    a806:	197d      	adds	r5, r7, r5
    a808:	45a9      	cmp	r9, r5
    a80a:	d903      	bls.n	a814 <__aeabi_dmul+0x2fc>
    a80c:	2180      	movs	r1, #128	; 0x80
    a80e:	0249      	lsls	r1, r1, #9
    a810:	4688      	mov	r8, r1
    a812:	4444      	add	r4, r8
    a814:	9f04      	ldr	r7, [sp, #16]
    a816:	9903      	ldr	r1, [sp, #12]
    a818:	46b8      	mov	r8, r7
    a81a:	4441      	add	r1, r8
    a81c:	468b      	mov	fp, r1
    a81e:	4583      	cmp	fp, r0
    a820:	4180      	sbcs	r0, r0
    a822:	4241      	negs	r1, r0
    a824:	4688      	mov	r8, r1
    a826:	4651      	mov	r1, sl
    a828:	0408      	lsls	r0, r1, #16
    a82a:	042f      	lsls	r7, r5, #16
    a82c:	0c00      	lsrs	r0, r0, #16
    a82e:	183f      	adds	r7, r7, r0
    a830:	4658      	mov	r0, fp
    a832:	9902      	ldr	r1, [sp, #8]
    a834:	1810      	adds	r0, r2, r0
    a836:	4689      	mov	r9, r1
    a838:	4290      	cmp	r0, r2
    a83a:	4192      	sbcs	r2, r2
    a83c:	444f      	add	r7, r9
    a83e:	46ba      	mov	sl, r7
    a840:	4252      	negs	r2, r2
    a842:	4699      	mov	r9, r3
    a844:	4693      	mov	fp, r2
    a846:	44c2      	add	sl, r8
    a848:	44d1      	add	r9, sl
    a84a:	44cb      	add	fp, r9
    a84c:	428f      	cmp	r7, r1
    a84e:	41bf      	sbcs	r7, r7
    a850:	45c2      	cmp	sl, r8
    a852:	4189      	sbcs	r1, r1
    a854:	4599      	cmp	r9, r3
    a856:	419b      	sbcs	r3, r3
    a858:	4593      	cmp	fp, r2
    a85a:	4192      	sbcs	r2, r2
    a85c:	427f      	negs	r7, r7
    a85e:	4249      	negs	r1, r1
    a860:	0c2d      	lsrs	r5, r5, #16
    a862:	4252      	negs	r2, r2
    a864:	430f      	orrs	r7, r1
    a866:	425b      	negs	r3, r3
    a868:	4313      	orrs	r3, r2
    a86a:	197f      	adds	r7, r7, r5
    a86c:	18ff      	adds	r7, r7, r3
    a86e:	465b      	mov	r3, fp
    a870:	193c      	adds	r4, r7, r4
    a872:	0ddb      	lsrs	r3, r3, #23
    a874:	9a05      	ldr	r2, [sp, #20]
    a876:	0264      	lsls	r4, r4, #9
    a878:	431c      	orrs	r4, r3
    a87a:	0243      	lsls	r3, r0, #9
    a87c:	4313      	orrs	r3, r2
    a87e:	1e5d      	subs	r5, r3, #1
    a880:	41ab      	sbcs	r3, r5
    a882:	465a      	mov	r2, fp
    a884:	0dc0      	lsrs	r0, r0, #23
    a886:	4303      	orrs	r3, r0
    a888:	0252      	lsls	r2, r2, #9
    a88a:	4313      	orrs	r3, r2
    a88c:	01e2      	lsls	r2, r4, #7
    a88e:	d556      	bpl.n	a93e <__aeabi_dmul+0x426>
    a890:	2001      	movs	r0, #1
    a892:	085a      	lsrs	r2, r3, #1
    a894:	4003      	ands	r3, r0
    a896:	4313      	orrs	r3, r2
    a898:	07e2      	lsls	r2, r4, #31
    a89a:	4313      	orrs	r3, r2
    a89c:	0864      	lsrs	r4, r4, #1
    a89e:	485a      	ldr	r0, [pc, #360]	; (aa08 <__aeabi_dmul+0x4f0>)
    a8a0:	4460      	add	r0, ip
    a8a2:	2800      	cmp	r0, #0
    a8a4:	dd4d      	ble.n	a942 <__aeabi_dmul+0x42a>
    a8a6:	075a      	lsls	r2, r3, #29
    a8a8:	d009      	beq.n	a8be <__aeabi_dmul+0x3a6>
    a8aa:	220f      	movs	r2, #15
    a8ac:	401a      	ands	r2, r3
    a8ae:	2a04      	cmp	r2, #4
    a8b0:	d005      	beq.n	a8be <__aeabi_dmul+0x3a6>
    a8b2:	1d1a      	adds	r2, r3, #4
    a8b4:	429a      	cmp	r2, r3
    a8b6:	419b      	sbcs	r3, r3
    a8b8:	425b      	negs	r3, r3
    a8ba:	18e4      	adds	r4, r4, r3
    a8bc:	0013      	movs	r3, r2
    a8be:	01e2      	lsls	r2, r4, #7
    a8c0:	d504      	bpl.n	a8cc <__aeabi_dmul+0x3b4>
    a8c2:	2080      	movs	r0, #128	; 0x80
    a8c4:	4a51      	ldr	r2, [pc, #324]	; (aa0c <__aeabi_dmul+0x4f4>)
    a8c6:	00c0      	lsls	r0, r0, #3
    a8c8:	4014      	ands	r4, r2
    a8ca:	4460      	add	r0, ip
    a8cc:	4a50      	ldr	r2, [pc, #320]	; (aa10 <__aeabi_dmul+0x4f8>)
    a8ce:	4290      	cmp	r0, r2
    a8d0:	dd00      	ble.n	a8d4 <__aeabi_dmul+0x3bc>
    a8d2:	e6e3      	b.n	a69c <__aeabi_dmul+0x184>
    a8d4:	2501      	movs	r5, #1
    a8d6:	08db      	lsrs	r3, r3, #3
    a8d8:	0762      	lsls	r2, r4, #29
    a8da:	431a      	orrs	r2, r3
    a8dc:	0264      	lsls	r4, r4, #9
    a8de:	9b01      	ldr	r3, [sp, #4]
    a8e0:	4691      	mov	r9, r2
    a8e2:	0b22      	lsrs	r2, r4, #12
    a8e4:	0544      	lsls	r4, r0, #21
    a8e6:	0d64      	lsrs	r4, r4, #21
    a8e8:	401d      	ands	r5, r3
    a8ea:	e67c      	b.n	a5e6 <__aeabi_dmul+0xce>
    a8ec:	2280      	movs	r2, #128	; 0x80
    a8ee:	4659      	mov	r1, fp
    a8f0:	0312      	lsls	r2, r2, #12
    a8f2:	4211      	tst	r1, r2
    a8f4:	d008      	beq.n	a908 <__aeabi_dmul+0x3f0>
    a8f6:	4214      	tst	r4, r2
    a8f8:	d106      	bne.n	a908 <__aeabi_dmul+0x3f0>
    a8fa:	4322      	orrs	r2, r4
    a8fc:	0312      	lsls	r2, r2, #12
    a8fe:	0b12      	lsrs	r2, r2, #12
    a900:	4645      	mov	r5, r8
    a902:	4699      	mov	r9, r3
    a904:	4c43      	ldr	r4, [pc, #268]	; (aa14 <__aeabi_dmul+0x4fc>)
    a906:	e66e      	b.n	a5e6 <__aeabi_dmul+0xce>
    a908:	465b      	mov	r3, fp
    a90a:	431a      	orrs	r2, r3
    a90c:	0312      	lsls	r2, r2, #12
    a90e:	0b12      	lsrs	r2, r2, #12
    a910:	4c40      	ldr	r4, [pc, #256]	; (aa14 <__aeabi_dmul+0x4fc>)
    a912:	e668      	b.n	a5e6 <__aeabi_dmul+0xce>
    a914:	0003      	movs	r3, r0
    a916:	4654      	mov	r4, sl
    a918:	3b28      	subs	r3, #40	; 0x28
    a91a:	409c      	lsls	r4, r3
    a91c:	2300      	movs	r3, #0
    a91e:	e6b9      	b.n	a694 <__aeabi_dmul+0x17c>
    a920:	f000 fbfc 	bl	b11c <__clzsi2>
    a924:	3020      	adds	r0, #32
    a926:	e6a6      	b.n	a676 <__aeabi_dmul+0x15e>
    a928:	0003      	movs	r3, r0
    a92a:	3b28      	subs	r3, #40	; 0x28
    a92c:	409f      	lsls	r7, r3
    a92e:	2300      	movs	r3, #0
    a930:	46bb      	mov	fp, r7
    a932:	4699      	mov	r9, r3
    a934:	e68a      	b.n	a64c <__aeabi_dmul+0x134>
    a936:	f000 fbf1 	bl	b11c <__clzsi2>
    a93a:	3020      	adds	r0, #32
    a93c:	e674      	b.n	a628 <__aeabi_dmul+0x110>
    a93e:	46b4      	mov	ip, r6
    a940:	e7ad      	b.n	a89e <__aeabi_dmul+0x386>
    a942:	2501      	movs	r5, #1
    a944:	1a2a      	subs	r2, r5, r0
    a946:	2a38      	cmp	r2, #56	; 0x38
    a948:	dd06      	ble.n	a958 <__aeabi_dmul+0x440>
    a94a:	9b01      	ldr	r3, [sp, #4]
    a94c:	2400      	movs	r4, #0
    a94e:	401d      	ands	r5, r3
    a950:	2300      	movs	r3, #0
    a952:	2200      	movs	r2, #0
    a954:	4699      	mov	r9, r3
    a956:	e646      	b.n	a5e6 <__aeabi_dmul+0xce>
    a958:	2a1f      	cmp	r2, #31
    a95a:	dc21      	bgt.n	a9a0 <__aeabi_dmul+0x488>
    a95c:	2520      	movs	r5, #32
    a95e:	0020      	movs	r0, r4
    a960:	1aad      	subs	r5, r5, r2
    a962:	001e      	movs	r6, r3
    a964:	40ab      	lsls	r3, r5
    a966:	40a8      	lsls	r0, r5
    a968:	40d6      	lsrs	r6, r2
    a96a:	1e5d      	subs	r5, r3, #1
    a96c:	41ab      	sbcs	r3, r5
    a96e:	4330      	orrs	r0, r6
    a970:	4318      	orrs	r0, r3
    a972:	40d4      	lsrs	r4, r2
    a974:	0743      	lsls	r3, r0, #29
    a976:	d009      	beq.n	a98c <__aeabi_dmul+0x474>
    a978:	230f      	movs	r3, #15
    a97a:	4003      	ands	r3, r0
    a97c:	2b04      	cmp	r3, #4
    a97e:	d005      	beq.n	a98c <__aeabi_dmul+0x474>
    a980:	0003      	movs	r3, r0
    a982:	1d18      	adds	r0, r3, #4
    a984:	4298      	cmp	r0, r3
    a986:	419b      	sbcs	r3, r3
    a988:	425b      	negs	r3, r3
    a98a:	18e4      	adds	r4, r4, r3
    a98c:	0223      	lsls	r3, r4, #8
    a98e:	d521      	bpl.n	a9d4 <__aeabi_dmul+0x4bc>
    a990:	2501      	movs	r5, #1
    a992:	9b01      	ldr	r3, [sp, #4]
    a994:	2401      	movs	r4, #1
    a996:	401d      	ands	r5, r3
    a998:	2300      	movs	r3, #0
    a99a:	2200      	movs	r2, #0
    a99c:	4699      	mov	r9, r3
    a99e:	e622      	b.n	a5e6 <__aeabi_dmul+0xce>
    a9a0:	251f      	movs	r5, #31
    a9a2:	0021      	movs	r1, r4
    a9a4:	426d      	negs	r5, r5
    a9a6:	1a28      	subs	r0, r5, r0
    a9a8:	40c1      	lsrs	r1, r0
    a9aa:	0008      	movs	r0, r1
    a9ac:	2a20      	cmp	r2, #32
    a9ae:	d01d      	beq.n	a9ec <__aeabi_dmul+0x4d4>
    a9b0:	355f      	adds	r5, #95	; 0x5f
    a9b2:	1aaa      	subs	r2, r5, r2
    a9b4:	4094      	lsls	r4, r2
    a9b6:	4323      	orrs	r3, r4
    a9b8:	1e5c      	subs	r4, r3, #1
    a9ba:	41a3      	sbcs	r3, r4
    a9bc:	2507      	movs	r5, #7
    a9be:	4303      	orrs	r3, r0
    a9c0:	401d      	ands	r5, r3
    a9c2:	2200      	movs	r2, #0
    a9c4:	2d00      	cmp	r5, #0
    a9c6:	d009      	beq.n	a9dc <__aeabi_dmul+0x4c4>
    a9c8:	220f      	movs	r2, #15
    a9ca:	2400      	movs	r4, #0
    a9cc:	401a      	ands	r2, r3
    a9ce:	0018      	movs	r0, r3
    a9d0:	2a04      	cmp	r2, #4
    a9d2:	d1d6      	bne.n	a982 <__aeabi_dmul+0x46a>
    a9d4:	0003      	movs	r3, r0
    a9d6:	0765      	lsls	r5, r4, #29
    a9d8:	0264      	lsls	r4, r4, #9
    a9da:	0b22      	lsrs	r2, r4, #12
    a9dc:	08db      	lsrs	r3, r3, #3
    a9de:	432b      	orrs	r3, r5
    a9e0:	2501      	movs	r5, #1
    a9e2:	4699      	mov	r9, r3
    a9e4:	9b01      	ldr	r3, [sp, #4]
    a9e6:	2400      	movs	r4, #0
    a9e8:	401d      	ands	r5, r3
    a9ea:	e5fc      	b.n	a5e6 <__aeabi_dmul+0xce>
    a9ec:	2400      	movs	r4, #0
    a9ee:	e7e2      	b.n	a9b6 <__aeabi_dmul+0x49e>
    a9f0:	2280      	movs	r2, #128	; 0x80
    a9f2:	2501      	movs	r5, #1
    a9f4:	0312      	lsls	r2, r2, #12
    a9f6:	4322      	orrs	r2, r4
    a9f8:	9901      	ldr	r1, [sp, #4]
    a9fa:	0312      	lsls	r2, r2, #12
    a9fc:	0b12      	lsrs	r2, r2, #12
    a9fe:	400d      	ands	r5, r1
    aa00:	4699      	mov	r9, r3
    aa02:	4c04      	ldr	r4, [pc, #16]	; (aa14 <__aeabi_dmul+0x4fc>)
    aa04:	e5ef      	b.n	a5e6 <__aeabi_dmul+0xce>
    aa06:	46c0      	nop			; (mov r8, r8)
    aa08:	000003ff 	.word	0x000003ff
    aa0c:	feffffff 	.word	0xfeffffff
    aa10:	000007fe 	.word	0x000007fe
    aa14:	000007ff 	.word	0x000007ff

0000aa18 <__aeabi_dsub>:
    aa18:	b5f0      	push	{r4, r5, r6, r7, lr}
    aa1a:	4646      	mov	r6, r8
    aa1c:	46d6      	mov	lr, sl
    aa1e:	464f      	mov	r7, r9
    aa20:	030c      	lsls	r4, r1, #12
    aa22:	b5c0      	push	{r6, r7, lr}
    aa24:	0fcd      	lsrs	r5, r1, #31
    aa26:	004e      	lsls	r6, r1, #1
    aa28:	0a61      	lsrs	r1, r4, #9
    aa2a:	0f44      	lsrs	r4, r0, #29
    aa2c:	430c      	orrs	r4, r1
    aa2e:	00c1      	lsls	r1, r0, #3
    aa30:	0058      	lsls	r0, r3, #1
    aa32:	0d40      	lsrs	r0, r0, #21
    aa34:	4684      	mov	ip, r0
    aa36:	468a      	mov	sl, r1
    aa38:	000f      	movs	r7, r1
    aa3a:	0319      	lsls	r1, r3, #12
    aa3c:	0f50      	lsrs	r0, r2, #29
    aa3e:	0a49      	lsrs	r1, r1, #9
    aa40:	4301      	orrs	r1, r0
    aa42:	48c6      	ldr	r0, [pc, #792]	; (ad5c <__aeabi_dsub+0x344>)
    aa44:	0d76      	lsrs	r6, r6, #21
    aa46:	46a8      	mov	r8, r5
    aa48:	0fdb      	lsrs	r3, r3, #31
    aa4a:	00d2      	lsls	r2, r2, #3
    aa4c:	4584      	cmp	ip, r0
    aa4e:	d100      	bne.n	aa52 <__aeabi_dsub+0x3a>
    aa50:	e0d8      	b.n	ac04 <__aeabi_dsub+0x1ec>
    aa52:	2001      	movs	r0, #1
    aa54:	4043      	eors	r3, r0
    aa56:	42ab      	cmp	r3, r5
    aa58:	d100      	bne.n	aa5c <__aeabi_dsub+0x44>
    aa5a:	e0a6      	b.n	abaa <__aeabi_dsub+0x192>
    aa5c:	4660      	mov	r0, ip
    aa5e:	1a35      	subs	r5, r6, r0
    aa60:	2d00      	cmp	r5, #0
    aa62:	dc00      	bgt.n	aa66 <__aeabi_dsub+0x4e>
    aa64:	e105      	b.n	ac72 <__aeabi_dsub+0x25a>
    aa66:	2800      	cmp	r0, #0
    aa68:	d110      	bne.n	aa8c <__aeabi_dsub+0x74>
    aa6a:	000b      	movs	r3, r1
    aa6c:	4313      	orrs	r3, r2
    aa6e:	d100      	bne.n	aa72 <__aeabi_dsub+0x5a>
    aa70:	e0d7      	b.n	ac22 <__aeabi_dsub+0x20a>
    aa72:	1e6b      	subs	r3, r5, #1
    aa74:	2b00      	cmp	r3, #0
    aa76:	d000      	beq.n	aa7a <__aeabi_dsub+0x62>
    aa78:	e14b      	b.n	ad12 <__aeabi_dsub+0x2fa>
    aa7a:	4653      	mov	r3, sl
    aa7c:	1a9f      	subs	r7, r3, r2
    aa7e:	45ba      	cmp	sl, r7
    aa80:	4180      	sbcs	r0, r0
    aa82:	1a64      	subs	r4, r4, r1
    aa84:	4240      	negs	r0, r0
    aa86:	1a24      	subs	r4, r4, r0
    aa88:	2601      	movs	r6, #1
    aa8a:	e01e      	b.n	aaca <__aeabi_dsub+0xb2>
    aa8c:	4bb3      	ldr	r3, [pc, #716]	; (ad5c <__aeabi_dsub+0x344>)
    aa8e:	429e      	cmp	r6, r3
    aa90:	d048      	beq.n	ab24 <__aeabi_dsub+0x10c>
    aa92:	2380      	movs	r3, #128	; 0x80
    aa94:	041b      	lsls	r3, r3, #16
    aa96:	4319      	orrs	r1, r3
    aa98:	2d38      	cmp	r5, #56	; 0x38
    aa9a:	dd00      	ble.n	aa9e <__aeabi_dsub+0x86>
    aa9c:	e119      	b.n	acd2 <__aeabi_dsub+0x2ba>
    aa9e:	2d1f      	cmp	r5, #31
    aaa0:	dd00      	ble.n	aaa4 <__aeabi_dsub+0x8c>
    aaa2:	e14c      	b.n	ad3e <__aeabi_dsub+0x326>
    aaa4:	2320      	movs	r3, #32
    aaa6:	000f      	movs	r7, r1
    aaa8:	1b5b      	subs	r3, r3, r5
    aaaa:	0010      	movs	r0, r2
    aaac:	409a      	lsls	r2, r3
    aaae:	409f      	lsls	r7, r3
    aab0:	40e8      	lsrs	r0, r5
    aab2:	1e53      	subs	r3, r2, #1
    aab4:	419a      	sbcs	r2, r3
    aab6:	40e9      	lsrs	r1, r5
    aab8:	4307      	orrs	r7, r0
    aaba:	4317      	orrs	r7, r2
    aabc:	4653      	mov	r3, sl
    aabe:	1bdf      	subs	r7, r3, r7
    aac0:	1a61      	subs	r1, r4, r1
    aac2:	45ba      	cmp	sl, r7
    aac4:	41a4      	sbcs	r4, r4
    aac6:	4264      	negs	r4, r4
    aac8:	1b0c      	subs	r4, r1, r4
    aaca:	0223      	lsls	r3, r4, #8
    aacc:	d400      	bmi.n	aad0 <__aeabi_dsub+0xb8>
    aace:	e0c5      	b.n	ac5c <__aeabi_dsub+0x244>
    aad0:	0264      	lsls	r4, r4, #9
    aad2:	0a65      	lsrs	r5, r4, #9
    aad4:	2d00      	cmp	r5, #0
    aad6:	d100      	bne.n	aada <__aeabi_dsub+0xc2>
    aad8:	e0f6      	b.n	acc8 <__aeabi_dsub+0x2b0>
    aada:	0028      	movs	r0, r5
    aadc:	f000 fb1e 	bl	b11c <__clzsi2>
    aae0:	0003      	movs	r3, r0
    aae2:	3b08      	subs	r3, #8
    aae4:	2b1f      	cmp	r3, #31
    aae6:	dd00      	ble.n	aaea <__aeabi_dsub+0xd2>
    aae8:	e0e9      	b.n	acbe <__aeabi_dsub+0x2a6>
    aaea:	2220      	movs	r2, #32
    aaec:	003c      	movs	r4, r7
    aaee:	1ad2      	subs	r2, r2, r3
    aaf0:	409d      	lsls	r5, r3
    aaf2:	40d4      	lsrs	r4, r2
    aaf4:	409f      	lsls	r7, r3
    aaf6:	4325      	orrs	r5, r4
    aaf8:	429e      	cmp	r6, r3
    aafa:	dd00      	ble.n	aafe <__aeabi_dsub+0xe6>
    aafc:	e0db      	b.n	acb6 <__aeabi_dsub+0x29e>
    aafe:	1b9e      	subs	r6, r3, r6
    ab00:	1c73      	adds	r3, r6, #1
    ab02:	2b1f      	cmp	r3, #31
    ab04:	dd00      	ble.n	ab08 <__aeabi_dsub+0xf0>
    ab06:	e10a      	b.n	ad1e <__aeabi_dsub+0x306>
    ab08:	2220      	movs	r2, #32
    ab0a:	0038      	movs	r0, r7
    ab0c:	1ad2      	subs	r2, r2, r3
    ab0e:	0029      	movs	r1, r5
    ab10:	4097      	lsls	r7, r2
    ab12:	002c      	movs	r4, r5
    ab14:	4091      	lsls	r1, r2
    ab16:	40d8      	lsrs	r0, r3
    ab18:	1e7a      	subs	r2, r7, #1
    ab1a:	4197      	sbcs	r7, r2
    ab1c:	40dc      	lsrs	r4, r3
    ab1e:	2600      	movs	r6, #0
    ab20:	4301      	orrs	r1, r0
    ab22:	430f      	orrs	r7, r1
    ab24:	077b      	lsls	r3, r7, #29
    ab26:	d009      	beq.n	ab3c <__aeabi_dsub+0x124>
    ab28:	230f      	movs	r3, #15
    ab2a:	403b      	ands	r3, r7
    ab2c:	2b04      	cmp	r3, #4
    ab2e:	d005      	beq.n	ab3c <__aeabi_dsub+0x124>
    ab30:	1d3b      	adds	r3, r7, #4
    ab32:	42bb      	cmp	r3, r7
    ab34:	41bf      	sbcs	r7, r7
    ab36:	427f      	negs	r7, r7
    ab38:	19e4      	adds	r4, r4, r7
    ab3a:	001f      	movs	r7, r3
    ab3c:	0223      	lsls	r3, r4, #8
    ab3e:	d525      	bpl.n	ab8c <__aeabi_dsub+0x174>
    ab40:	4b86      	ldr	r3, [pc, #536]	; (ad5c <__aeabi_dsub+0x344>)
    ab42:	3601      	adds	r6, #1
    ab44:	429e      	cmp	r6, r3
    ab46:	d100      	bne.n	ab4a <__aeabi_dsub+0x132>
    ab48:	e0af      	b.n	acaa <__aeabi_dsub+0x292>
    ab4a:	4b85      	ldr	r3, [pc, #532]	; (ad60 <__aeabi_dsub+0x348>)
    ab4c:	2501      	movs	r5, #1
    ab4e:	401c      	ands	r4, r3
    ab50:	4643      	mov	r3, r8
    ab52:	0762      	lsls	r2, r4, #29
    ab54:	08ff      	lsrs	r7, r7, #3
    ab56:	0264      	lsls	r4, r4, #9
    ab58:	0576      	lsls	r6, r6, #21
    ab5a:	4317      	orrs	r7, r2
    ab5c:	0b24      	lsrs	r4, r4, #12
    ab5e:	0d76      	lsrs	r6, r6, #21
    ab60:	401d      	ands	r5, r3
    ab62:	2100      	movs	r1, #0
    ab64:	0324      	lsls	r4, r4, #12
    ab66:	0b23      	lsrs	r3, r4, #12
    ab68:	0d0c      	lsrs	r4, r1, #20
    ab6a:	4a7e      	ldr	r2, [pc, #504]	; (ad64 <__aeabi_dsub+0x34c>)
    ab6c:	0524      	lsls	r4, r4, #20
    ab6e:	431c      	orrs	r4, r3
    ab70:	4014      	ands	r4, r2
    ab72:	0533      	lsls	r3, r6, #20
    ab74:	4323      	orrs	r3, r4
    ab76:	005b      	lsls	r3, r3, #1
    ab78:	07ed      	lsls	r5, r5, #31
    ab7a:	085b      	lsrs	r3, r3, #1
    ab7c:	432b      	orrs	r3, r5
    ab7e:	0038      	movs	r0, r7
    ab80:	0019      	movs	r1, r3
    ab82:	bc1c      	pop	{r2, r3, r4}
    ab84:	4690      	mov	r8, r2
    ab86:	4699      	mov	r9, r3
    ab88:	46a2      	mov	sl, r4
    ab8a:	bdf0      	pop	{r4, r5, r6, r7, pc}
    ab8c:	2501      	movs	r5, #1
    ab8e:	4643      	mov	r3, r8
    ab90:	0762      	lsls	r2, r4, #29
    ab92:	08ff      	lsrs	r7, r7, #3
    ab94:	4317      	orrs	r7, r2
    ab96:	08e4      	lsrs	r4, r4, #3
    ab98:	401d      	ands	r5, r3
    ab9a:	4b70      	ldr	r3, [pc, #448]	; (ad5c <__aeabi_dsub+0x344>)
    ab9c:	429e      	cmp	r6, r3
    ab9e:	d036      	beq.n	ac0e <__aeabi_dsub+0x1f6>
    aba0:	0324      	lsls	r4, r4, #12
    aba2:	0576      	lsls	r6, r6, #21
    aba4:	0b24      	lsrs	r4, r4, #12
    aba6:	0d76      	lsrs	r6, r6, #21
    aba8:	e7db      	b.n	ab62 <__aeabi_dsub+0x14a>
    abaa:	4663      	mov	r3, ip
    abac:	1af3      	subs	r3, r6, r3
    abae:	2b00      	cmp	r3, #0
    abb0:	dc00      	bgt.n	abb4 <__aeabi_dsub+0x19c>
    abb2:	e094      	b.n	acde <__aeabi_dsub+0x2c6>
    abb4:	4660      	mov	r0, ip
    abb6:	2800      	cmp	r0, #0
    abb8:	d035      	beq.n	ac26 <__aeabi_dsub+0x20e>
    abba:	4868      	ldr	r0, [pc, #416]	; (ad5c <__aeabi_dsub+0x344>)
    abbc:	4286      	cmp	r6, r0
    abbe:	d0b1      	beq.n	ab24 <__aeabi_dsub+0x10c>
    abc0:	2780      	movs	r7, #128	; 0x80
    abc2:	043f      	lsls	r7, r7, #16
    abc4:	4339      	orrs	r1, r7
    abc6:	2b38      	cmp	r3, #56	; 0x38
    abc8:	dc00      	bgt.n	abcc <__aeabi_dsub+0x1b4>
    abca:	e0fd      	b.n	adc8 <__aeabi_dsub+0x3b0>
    abcc:	430a      	orrs	r2, r1
    abce:	0017      	movs	r7, r2
    abd0:	2100      	movs	r1, #0
    abd2:	1e7a      	subs	r2, r7, #1
    abd4:	4197      	sbcs	r7, r2
    abd6:	4457      	add	r7, sl
    abd8:	4557      	cmp	r7, sl
    abda:	4180      	sbcs	r0, r0
    abdc:	1909      	adds	r1, r1, r4
    abde:	4244      	negs	r4, r0
    abe0:	190c      	adds	r4, r1, r4
    abe2:	0223      	lsls	r3, r4, #8
    abe4:	d53a      	bpl.n	ac5c <__aeabi_dsub+0x244>
    abe6:	4b5d      	ldr	r3, [pc, #372]	; (ad5c <__aeabi_dsub+0x344>)
    abe8:	3601      	adds	r6, #1
    abea:	429e      	cmp	r6, r3
    abec:	d100      	bne.n	abf0 <__aeabi_dsub+0x1d8>
    abee:	e14b      	b.n	ae88 <__aeabi_dsub+0x470>
    abf0:	2201      	movs	r2, #1
    abf2:	4b5b      	ldr	r3, [pc, #364]	; (ad60 <__aeabi_dsub+0x348>)
    abf4:	401c      	ands	r4, r3
    abf6:	087b      	lsrs	r3, r7, #1
    abf8:	4017      	ands	r7, r2
    abfa:	431f      	orrs	r7, r3
    abfc:	07e2      	lsls	r2, r4, #31
    abfe:	4317      	orrs	r7, r2
    ac00:	0864      	lsrs	r4, r4, #1
    ac02:	e78f      	b.n	ab24 <__aeabi_dsub+0x10c>
    ac04:	0008      	movs	r0, r1
    ac06:	4310      	orrs	r0, r2
    ac08:	d000      	beq.n	ac0c <__aeabi_dsub+0x1f4>
    ac0a:	e724      	b.n	aa56 <__aeabi_dsub+0x3e>
    ac0c:	e721      	b.n	aa52 <__aeabi_dsub+0x3a>
    ac0e:	0023      	movs	r3, r4
    ac10:	433b      	orrs	r3, r7
    ac12:	d100      	bne.n	ac16 <__aeabi_dsub+0x1fe>
    ac14:	e1b9      	b.n	af8a <__aeabi_dsub+0x572>
    ac16:	2280      	movs	r2, #128	; 0x80
    ac18:	0312      	lsls	r2, r2, #12
    ac1a:	4314      	orrs	r4, r2
    ac1c:	0324      	lsls	r4, r4, #12
    ac1e:	0b24      	lsrs	r4, r4, #12
    ac20:	e79f      	b.n	ab62 <__aeabi_dsub+0x14a>
    ac22:	002e      	movs	r6, r5
    ac24:	e77e      	b.n	ab24 <__aeabi_dsub+0x10c>
    ac26:	0008      	movs	r0, r1
    ac28:	4310      	orrs	r0, r2
    ac2a:	d100      	bne.n	ac2e <__aeabi_dsub+0x216>
    ac2c:	e0ca      	b.n	adc4 <__aeabi_dsub+0x3ac>
    ac2e:	1e58      	subs	r0, r3, #1
    ac30:	4684      	mov	ip, r0
    ac32:	2800      	cmp	r0, #0
    ac34:	d000      	beq.n	ac38 <__aeabi_dsub+0x220>
    ac36:	e0e7      	b.n	ae08 <__aeabi_dsub+0x3f0>
    ac38:	4452      	add	r2, sl
    ac3a:	4552      	cmp	r2, sl
    ac3c:	4180      	sbcs	r0, r0
    ac3e:	1864      	adds	r4, r4, r1
    ac40:	4240      	negs	r0, r0
    ac42:	1824      	adds	r4, r4, r0
    ac44:	0017      	movs	r7, r2
    ac46:	2601      	movs	r6, #1
    ac48:	0223      	lsls	r3, r4, #8
    ac4a:	d507      	bpl.n	ac5c <__aeabi_dsub+0x244>
    ac4c:	2602      	movs	r6, #2
    ac4e:	e7cf      	b.n	abf0 <__aeabi_dsub+0x1d8>
    ac50:	4664      	mov	r4, ip
    ac52:	432c      	orrs	r4, r5
    ac54:	d100      	bne.n	ac58 <__aeabi_dsub+0x240>
    ac56:	e1b3      	b.n	afc0 <__aeabi_dsub+0x5a8>
    ac58:	002c      	movs	r4, r5
    ac5a:	4667      	mov	r7, ip
    ac5c:	077b      	lsls	r3, r7, #29
    ac5e:	d000      	beq.n	ac62 <__aeabi_dsub+0x24a>
    ac60:	e762      	b.n	ab28 <__aeabi_dsub+0x110>
    ac62:	0763      	lsls	r3, r4, #29
    ac64:	08ff      	lsrs	r7, r7, #3
    ac66:	431f      	orrs	r7, r3
    ac68:	2501      	movs	r5, #1
    ac6a:	4643      	mov	r3, r8
    ac6c:	08e4      	lsrs	r4, r4, #3
    ac6e:	401d      	ands	r5, r3
    ac70:	e793      	b.n	ab9a <__aeabi_dsub+0x182>
    ac72:	2d00      	cmp	r5, #0
    ac74:	d178      	bne.n	ad68 <__aeabi_dsub+0x350>
    ac76:	1c75      	adds	r5, r6, #1
    ac78:	056d      	lsls	r5, r5, #21
    ac7a:	0d6d      	lsrs	r5, r5, #21
    ac7c:	2d01      	cmp	r5, #1
    ac7e:	dc00      	bgt.n	ac82 <__aeabi_dsub+0x26a>
    ac80:	e0f2      	b.n	ae68 <__aeabi_dsub+0x450>
    ac82:	4650      	mov	r0, sl
    ac84:	1a80      	subs	r0, r0, r2
    ac86:	4582      	cmp	sl, r0
    ac88:	41bf      	sbcs	r7, r7
    ac8a:	1a65      	subs	r5, r4, r1
    ac8c:	427f      	negs	r7, r7
    ac8e:	1bed      	subs	r5, r5, r7
    ac90:	4684      	mov	ip, r0
    ac92:	0228      	lsls	r0, r5, #8
    ac94:	d400      	bmi.n	ac98 <__aeabi_dsub+0x280>
    ac96:	e08c      	b.n	adb2 <__aeabi_dsub+0x39a>
    ac98:	4650      	mov	r0, sl
    ac9a:	1a17      	subs	r7, r2, r0
    ac9c:	42ba      	cmp	r2, r7
    ac9e:	4192      	sbcs	r2, r2
    aca0:	1b0c      	subs	r4, r1, r4
    aca2:	4255      	negs	r5, r2
    aca4:	1b65      	subs	r5, r4, r5
    aca6:	4698      	mov	r8, r3
    aca8:	e714      	b.n	aad4 <__aeabi_dsub+0xbc>
    acaa:	2501      	movs	r5, #1
    acac:	4643      	mov	r3, r8
    acae:	2400      	movs	r4, #0
    acb0:	401d      	ands	r5, r3
    acb2:	2700      	movs	r7, #0
    acb4:	e755      	b.n	ab62 <__aeabi_dsub+0x14a>
    acb6:	4c2a      	ldr	r4, [pc, #168]	; (ad60 <__aeabi_dsub+0x348>)
    acb8:	1af6      	subs	r6, r6, r3
    acba:	402c      	ands	r4, r5
    acbc:	e732      	b.n	ab24 <__aeabi_dsub+0x10c>
    acbe:	003d      	movs	r5, r7
    acc0:	3828      	subs	r0, #40	; 0x28
    acc2:	4085      	lsls	r5, r0
    acc4:	2700      	movs	r7, #0
    acc6:	e717      	b.n	aaf8 <__aeabi_dsub+0xe0>
    acc8:	0038      	movs	r0, r7
    acca:	f000 fa27 	bl	b11c <__clzsi2>
    acce:	3020      	adds	r0, #32
    acd0:	e706      	b.n	aae0 <__aeabi_dsub+0xc8>
    acd2:	430a      	orrs	r2, r1
    acd4:	0017      	movs	r7, r2
    acd6:	2100      	movs	r1, #0
    acd8:	1e7a      	subs	r2, r7, #1
    acda:	4197      	sbcs	r7, r2
    acdc:	e6ee      	b.n	aabc <__aeabi_dsub+0xa4>
    acde:	2b00      	cmp	r3, #0
    ace0:	d000      	beq.n	ace4 <__aeabi_dsub+0x2cc>
    ace2:	e0e5      	b.n	aeb0 <__aeabi_dsub+0x498>
    ace4:	1c73      	adds	r3, r6, #1
    ace6:	469c      	mov	ip, r3
    ace8:	055b      	lsls	r3, r3, #21
    acea:	0d5b      	lsrs	r3, r3, #21
    acec:	2b01      	cmp	r3, #1
    acee:	dc00      	bgt.n	acf2 <__aeabi_dsub+0x2da>
    acf0:	e09f      	b.n	ae32 <__aeabi_dsub+0x41a>
    acf2:	4b1a      	ldr	r3, [pc, #104]	; (ad5c <__aeabi_dsub+0x344>)
    acf4:	459c      	cmp	ip, r3
    acf6:	d100      	bne.n	acfa <__aeabi_dsub+0x2e2>
    acf8:	e0c5      	b.n	ae86 <__aeabi_dsub+0x46e>
    acfa:	4452      	add	r2, sl
    acfc:	4552      	cmp	r2, sl
    acfe:	4180      	sbcs	r0, r0
    ad00:	1864      	adds	r4, r4, r1
    ad02:	4240      	negs	r0, r0
    ad04:	1824      	adds	r4, r4, r0
    ad06:	07e7      	lsls	r7, r4, #31
    ad08:	0852      	lsrs	r2, r2, #1
    ad0a:	4317      	orrs	r7, r2
    ad0c:	0864      	lsrs	r4, r4, #1
    ad0e:	4666      	mov	r6, ip
    ad10:	e708      	b.n	ab24 <__aeabi_dsub+0x10c>
    ad12:	4812      	ldr	r0, [pc, #72]	; (ad5c <__aeabi_dsub+0x344>)
    ad14:	4285      	cmp	r5, r0
    ad16:	d100      	bne.n	ad1a <__aeabi_dsub+0x302>
    ad18:	e085      	b.n	ae26 <__aeabi_dsub+0x40e>
    ad1a:	001d      	movs	r5, r3
    ad1c:	e6bc      	b.n	aa98 <__aeabi_dsub+0x80>
    ad1e:	0029      	movs	r1, r5
    ad20:	3e1f      	subs	r6, #31
    ad22:	40f1      	lsrs	r1, r6
    ad24:	2b20      	cmp	r3, #32
    ad26:	d100      	bne.n	ad2a <__aeabi_dsub+0x312>
    ad28:	e07f      	b.n	ae2a <__aeabi_dsub+0x412>
    ad2a:	2240      	movs	r2, #64	; 0x40
    ad2c:	1ad3      	subs	r3, r2, r3
    ad2e:	409d      	lsls	r5, r3
    ad30:	432f      	orrs	r7, r5
    ad32:	1e7d      	subs	r5, r7, #1
    ad34:	41af      	sbcs	r7, r5
    ad36:	2400      	movs	r4, #0
    ad38:	430f      	orrs	r7, r1
    ad3a:	2600      	movs	r6, #0
    ad3c:	e78e      	b.n	ac5c <__aeabi_dsub+0x244>
    ad3e:	002b      	movs	r3, r5
    ad40:	000f      	movs	r7, r1
    ad42:	3b20      	subs	r3, #32
    ad44:	40df      	lsrs	r7, r3
    ad46:	2d20      	cmp	r5, #32
    ad48:	d071      	beq.n	ae2e <__aeabi_dsub+0x416>
    ad4a:	2340      	movs	r3, #64	; 0x40
    ad4c:	1b5d      	subs	r5, r3, r5
    ad4e:	40a9      	lsls	r1, r5
    ad50:	430a      	orrs	r2, r1
    ad52:	1e51      	subs	r1, r2, #1
    ad54:	418a      	sbcs	r2, r1
    ad56:	2100      	movs	r1, #0
    ad58:	4317      	orrs	r7, r2
    ad5a:	e6af      	b.n	aabc <__aeabi_dsub+0xa4>
    ad5c:	000007ff 	.word	0x000007ff
    ad60:	ff7fffff 	.word	0xff7fffff
    ad64:	800fffff 	.word	0x800fffff
    ad68:	2e00      	cmp	r6, #0
    ad6a:	d03e      	beq.n	adea <__aeabi_dsub+0x3d2>
    ad6c:	4eb3      	ldr	r6, [pc, #716]	; (b03c <__aeabi_dsub+0x624>)
    ad6e:	45b4      	cmp	ip, r6
    ad70:	d045      	beq.n	adfe <__aeabi_dsub+0x3e6>
    ad72:	2680      	movs	r6, #128	; 0x80
    ad74:	0436      	lsls	r6, r6, #16
    ad76:	426d      	negs	r5, r5
    ad78:	4334      	orrs	r4, r6
    ad7a:	2d38      	cmp	r5, #56	; 0x38
    ad7c:	dd00      	ble.n	ad80 <__aeabi_dsub+0x368>
    ad7e:	e0a8      	b.n	aed2 <__aeabi_dsub+0x4ba>
    ad80:	2d1f      	cmp	r5, #31
    ad82:	dd00      	ble.n	ad86 <__aeabi_dsub+0x36e>
    ad84:	e11f      	b.n	afc6 <__aeabi_dsub+0x5ae>
    ad86:	2620      	movs	r6, #32
    ad88:	0027      	movs	r7, r4
    ad8a:	4650      	mov	r0, sl
    ad8c:	1b76      	subs	r6, r6, r5
    ad8e:	40b7      	lsls	r7, r6
    ad90:	40e8      	lsrs	r0, r5
    ad92:	4307      	orrs	r7, r0
    ad94:	4650      	mov	r0, sl
    ad96:	40b0      	lsls	r0, r6
    ad98:	1e46      	subs	r6, r0, #1
    ad9a:	41b0      	sbcs	r0, r6
    ad9c:	40ec      	lsrs	r4, r5
    ad9e:	4338      	orrs	r0, r7
    ada0:	1a17      	subs	r7, r2, r0
    ada2:	42ba      	cmp	r2, r7
    ada4:	4192      	sbcs	r2, r2
    ada6:	1b0c      	subs	r4, r1, r4
    ada8:	4252      	negs	r2, r2
    adaa:	1aa4      	subs	r4, r4, r2
    adac:	4666      	mov	r6, ip
    adae:	4698      	mov	r8, r3
    adb0:	e68b      	b.n	aaca <__aeabi_dsub+0xb2>
    adb2:	4664      	mov	r4, ip
    adb4:	4667      	mov	r7, ip
    adb6:	432c      	orrs	r4, r5
    adb8:	d000      	beq.n	adbc <__aeabi_dsub+0x3a4>
    adba:	e68b      	b.n	aad4 <__aeabi_dsub+0xbc>
    adbc:	2500      	movs	r5, #0
    adbe:	2600      	movs	r6, #0
    adc0:	2700      	movs	r7, #0
    adc2:	e6ea      	b.n	ab9a <__aeabi_dsub+0x182>
    adc4:	001e      	movs	r6, r3
    adc6:	e6ad      	b.n	ab24 <__aeabi_dsub+0x10c>
    adc8:	2b1f      	cmp	r3, #31
    adca:	dc60      	bgt.n	ae8e <__aeabi_dsub+0x476>
    adcc:	2720      	movs	r7, #32
    adce:	1af8      	subs	r0, r7, r3
    add0:	000f      	movs	r7, r1
    add2:	4684      	mov	ip, r0
    add4:	4087      	lsls	r7, r0
    add6:	0010      	movs	r0, r2
    add8:	40d8      	lsrs	r0, r3
    adda:	4307      	orrs	r7, r0
    addc:	4660      	mov	r0, ip
    adde:	4082      	lsls	r2, r0
    ade0:	1e50      	subs	r0, r2, #1
    ade2:	4182      	sbcs	r2, r0
    ade4:	40d9      	lsrs	r1, r3
    ade6:	4317      	orrs	r7, r2
    ade8:	e6f5      	b.n	abd6 <__aeabi_dsub+0x1be>
    adea:	0026      	movs	r6, r4
    adec:	4650      	mov	r0, sl
    adee:	4306      	orrs	r6, r0
    adf0:	d005      	beq.n	adfe <__aeabi_dsub+0x3e6>
    adf2:	43ed      	mvns	r5, r5
    adf4:	2d00      	cmp	r5, #0
    adf6:	d0d3      	beq.n	ada0 <__aeabi_dsub+0x388>
    adf8:	4e90      	ldr	r6, [pc, #576]	; (b03c <__aeabi_dsub+0x624>)
    adfa:	45b4      	cmp	ip, r6
    adfc:	d1bd      	bne.n	ad7a <__aeabi_dsub+0x362>
    adfe:	000c      	movs	r4, r1
    ae00:	0017      	movs	r7, r2
    ae02:	4666      	mov	r6, ip
    ae04:	4698      	mov	r8, r3
    ae06:	e68d      	b.n	ab24 <__aeabi_dsub+0x10c>
    ae08:	488c      	ldr	r0, [pc, #560]	; (b03c <__aeabi_dsub+0x624>)
    ae0a:	4283      	cmp	r3, r0
    ae0c:	d00b      	beq.n	ae26 <__aeabi_dsub+0x40e>
    ae0e:	4663      	mov	r3, ip
    ae10:	e6d9      	b.n	abc6 <__aeabi_dsub+0x1ae>
    ae12:	2d00      	cmp	r5, #0
    ae14:	d000      	beq.n	ae18 <__aeabi_dsub+0x400>
    ae16:	e096      	b.n	af46 <__aeabi_dsub+0x52e>
    ae18:	0008      	movs	r0, r1
    ae1a:	4310      	orrs	r0, r2
    ae1c:	d100      	bne.n	ae20 <__aeabi_dsub+0x408>
    ae1e:	e0e2      	b.n	afe6 <__aeabi_dsub+0x5ce>
    ae20:	000c      	movs	r4, r1
    ae22:	0017      	movs	r7, r2
    ae24:	4698      	mov	r8, r3
    ae26:	4e85      	ldr	r6, [pc, #532]	; (b03c <__aeabi_dsub+0x624>)
    ae28:	e67c      	b.n	ab24 <__aeabi_dsub+0x10c>
    ae2a:	2500      	movs	r5, #0
    ae2c:	e780      	b.n	ad30 <__aeabi_dsub+0x318>
    ae2e:	2100      	movs	r1, #0
    ae30:	e78e      	b.n	ad50 <__aeabi_dsub+0x338>
    ae32:	0023      	movs	r3, r4
    ae34:	4650      	mov	r0, sl
    ae36:	4303      	orrs	r3, r0
    ae38:	2e00      	cmp	r6, #0
    ae3a:	d000      	beq.n	ae3e <__aeabi_dsub+0x426>
    ae3c:	e0a8      	b.n	af90 <__aeabi_dsub+0x578>
    ae3e:	2b00      	cmp	r3, #0
    ae40:	d100      	bne.n	ae44 <__aeabi_dsub+0x42c>
    ae42:	e0de      	b.n	b002 <__aeabi_dsub+0x5ea>
    ae44:	000b      	movs	r3, r1
    ae46:	4313      	orrs	r3, r2
    ae48:	d100      	bne.n	ae4c <__aeabi_dsub+0x434>
    ae4a:	e66b      	b.n	ab24 <__aeabi_dsub+0x10c>
    ae4c:	4452      	add	r2, sl
    ae4e:	4552      	cmp	r2, sl
    ae50:	4180      	sbcs	r0, r0
    ae52:	1864      	adds	r4, r4, r1
    ae54:	4240      	negs	r0, r0
    ae56:	1824      	adds	r4, r4, r0
    ae58:	0017      	movs	r7, r2
    ae5a:	0223      	lsls	r3, r4, #8
    ae5c:	d400      	bmi.n	ae60 <__aeabi_dsub+0x448>
    ae5e:	e6fd      	b.n	ac5c <__aeabi_dsub+0x244>
    ae60:	4b77      	ldr	r3, [pc, #476]	; (b040 <__aeabi_dsub+0x628>)
    ae62:	4666      	mov	r6, ip
    ae64:	401c      	ands	r4, r3
    ae66:	e65d      	b.n	ab24 <__aeabi_dsub+0x10c>
    ae68:	0025      	movs	r5, r4
    ae6a:	4650      	mov	r0, sl
    ae6c:	4305      	orrs	r5, r0
    ae6e:	2e00      	cmp	r6, #0
    ae70:	d1cf      	bne.n	ae12 <__aeabi_dsub+0x3fa>
    ae72:	2d00      	cmp	r5, #0
    ae74:	d14f      	bne.n	af16 <__aeabi_dsub+0x4fe>
    ae76:	000c      	movs	r4, r1
    ae78:	4314      	orrs	r4, r2
    ae7a:	d100      	bne.n	ae7e <__aeabi_dsub+0x466>
    ae7c:	e0a0      	b.n	afc0 <__aeabi_dsub+0x5a8>
    ae7e:	000c      	movs	r4, r1
    ae80:	0017      	movs	r7, r2
    ae82:	4698      	mov	r8, r3
    ae84:	e64e      	b.n	ab24 <__aeabi_dsub+0x10c>
    ae86:	4666      	mov	r6, ip
    ae88:	2400      	movs	r4, #0
    ae8a:	2700      	movs	r7, #0
    ae8c:	e685      	b.n	ab9a <__aeabi_dsub+0x182>
    ae8e:	001f      	movs	r7, r3
    ae90:	0008      	movs	r0, r1
    ae92:	3f20      	subs	r7, #32
    ae94:	40f8      	lsrs	r0, r7
    ae96:	0007      	movs	r7, r0
    ae98:	2b20      	cmp	r3, #32
    ae9a:	d100      	bne.n	ae9e <__aeabi_dsub+0x486>
    ae9c:	e08e      	b.n	afbc <__aeabi_dsub+0x5a4>
    ae9e:	2040      	movs	r0, #64	; 0x40
    aea0:	1ac3      	subs	r3, r0, r3
    aea2:	4099      	lsls	r1, r3
    aea4:	430a      	orrs	r2, r1
    aea6:	1e51      	subs	r1, r2, #1
    aea8:	418a      	sbcs	r2, r1
    aeaa:	2100      	movs	r1, #0
    aeac:	4317      	orrs	r7, r2
    aeae:	e692      	b.n	abd6 <__aeabi_dsub+0x1be>
    aeb0:	2e00      	cmp	r6, #0
    aeb2:	d114      	bne.n	aede <__aeabi_dsub+0x4c6>
    aeb4:	0026      	movs	r6, r4
    aeb6:	4650      	mov	r0, sl
    aeb8:	4306      	orrs	r6, r0
    aeba:	d062      	beq.n	af82 <__aeabi_dsub+0x56a>
    aebc:	43db      	mvns	r3, r3
    aebe:	2b00      	cmp	r3, #0
    aec0:	d15c      	bne.n	af7c <__aeabi_dsub+0x564>
    aec2:	1887      	adds	r7, r0, r2
    aec4:	4297      	cmp	r7, r2
    aec6:	4192      	sbcs	r2, r2
    aec8:	1864      	adds	r4, r4, r1
    aeca:	4252      	negs	r2, r2
    aecc:	18a4      	adds	r4, r4, r2
    aece:	4666      	mov	r6, ip
    aed0:	e687      	b.n	abe2 <__aeabi_dsub+0x1ca>
    aed2:	4650      	mov	r0, sl
    aed4:	4320      	orrs	r0, r4
    aed6:	1e44      	subs	r4, r0, #1
    aed8:	41a0      	sbcs	r0, r4
    aeda:	2400      	movs	r4, #0
    aedc:	e760      	b.n	ada0 <__aeabi_dsub+0x388>
    aede:	4e57      	ldr	r6, [pc, #348]	; (b03c <__aeabi_dsub+0x624>)
    aee0:	45b4      	cmp	ip, r6
    aee2:	d04e      	beq.n	af82 <__aeabi_dsub+0x56a>
    aee4:	2680      	movs	r6, #128	; 0x80
    aee6:	0436      	lsls	r6, r6, #16
    aee8:	425b      	negs	r3, r3
    aeea:	4334      	orrs	r4, r6
    aeec:	2b38      	cmp	r3, #56	; 0x38
    aeee:	dd00      	ble.n	aef2 <__aeabi_dsub+0x4da>
    aef0:	e07f      	b.n	aff2 <__aeabi_dsub+0x5da>
    aef2:	2b1f      	cmp	r3, #31
    aef4:	dd00      	ble.n	aef8 <__aeabi_dsub+0x4e0>
    aef6:	e08b      	b.n	b010 <__aeabi_dsub+0x5f8>
    aef8:	2620      	movs	r6, #32
    aefa:	0027      	movs	r7, r4
    aefc:	4650      	mov	r0, sl
    aefe:	1af6      	subs	r6, r6, r3
    af00:	40b7      	lsls	r7, r6
    af02:	40d8      	lsrs	r0, r3
    af04:	4307      	orrs	r7, r0
    af06:	4650      	mov	r0, sl
    af08:	40b0      	lsls	r0, r6
    af0a:	1e46      	subs	r6, r0, #1
    af0c:	41b0      	sbcs	r0, r6
    af0e:	4307      	orrs	r7, r0
    af10:	40dc      	lsrs	r4, r3
    af12:	18bf      	adds	r7, r7, r2
    af14:	e7d6      	b.n	aec4 <__aeabi_dsub+0x4ac>
    af16:	000d      	movs	r5, r1
    af18:	4315      	orrs	r5, r2
    af1a:	d100      	bne.n	af1e <__aeabi_dsub+0x506>
    af1c:	e602      	b.n	ab24 <__aeabi_dsub+0x10c>
    af1e:	4650      	mov	r0, sl
    af20:	1a80      	subs	r0, r0, r2
    af22:	4582      	cmp	sl, r0
    af24:	41bf      	sbcs	r7, r7
    af26:	1a65      	subs	r5, r4, r1
    af28:	427f      	negs	r7, r7
    af2a:	1bed      	subs	r5, r5, r7
    af2c:	4684      	mov	ip, r0
    af2e:	0228      	lsls	r0, r5, #8
    af30:	d400      	bmi.n	af34 <__aeabi_dsub+0x51c>
    af32:	e68d      	b.n	ac50 <__aeabi_dsub+0x238>
    af34:	4650      	mov	r0, sl
    af36:	1a17      	subs	r7, r2, r0
    af38:	42ba      	cmp	r2, r7
    af3a:	4192      	sbcs	r2, r2
    af3c:	1b0c      	subs	r4, r1, r4
    af3e:	4252      	negs	r2, r2
    af40:	1aa4      	subs	r4, r4, r2
    af42:	4698      	mov	r8, r3
    af44:	e5ee      	b.n	ab24 <__aeabi_dsub+0x10c>
    af46:	000d      	movs	r5, r1
    af48:	4315      	orrs	r5, r2
    af4a:	d100      	bne.n	af4e <__aeabi_dsub+0x536>
    af4c:	e76b      	b.n	ae26 <__aeabi_dsub+0x40e>
    af4e:	4650      	mov	r0, sl
    af50:	0767      	lsls	r7, r4, #29
    af52:	08c0      	lsrs	r0, r0, #3
    af54:	4307      	orrs	r7, r0
    af56:	2080      	movs	r0, #128	; 0x80
    af58:	08e4      	lsrs	r4, r4, #3
    af5a:	0300      	lsls	r0, r0, #12
    af5c:	4204      	tst	r4, r0
    af5e:	d007      	beq.n	af70 <__aeabi_dsub+0x558>
    af60:	08cd      	lsrs	r5, r1, #3
    af62:	4205      	tst	r5, r0
    af64:	d104      	bne.n	af70 <__aeabi_dsub+0x558>
    af66:	002c      	movs	r4, r5
    af68:	4698      	mov	r8, r3
    af6a:	08d7      	lsrs	r7, r2, #3
    af6c:	0749      	lsls	r1, r1, #29
    af6e:	430f      	orrs	r7, r1
    af70:	0f7b      	lsrs	r3, r7, #29
    af72:	00e4      	lsls	r4, r4, #3
    af74:	431c      	orrs	r4, r3
    af76:	00ff      	lsls	r7, r7, #3
    af78:	4e30      	ldr	r6, [pc, #192]	; (b03c <__aeabi_dsub+0x624>)
    af7a:	e5d3      	b.n	ab24 <__aeabi_dsub+0x10c>
    af7c:	4e2f      	ldr	r6, [pc, #188]	; (b03c <__aeabi_dsub+0x624>)
    af7e:	45b4      	cmp	ip, r6
    af80:	d1b4      	bne.n	aeec <__aeabi_dsub+0x4d4>
    af82:	000c      	movs	r4, r1
    af84:	0017      	movs	r7, r2
    af86:	4666      	mov	r6, ip
    af88:	e5cc      	b.n	ab24 <__aeabi_dsub+0x10c>
    af8a:	2700      	movs	r7, #0
    af8c:	2400      	movs	r4, #0
    af8e:	e5e8      	b.n	ab62 <__aeabi_dsub+0x14a>
    af90:	2b00      	cmp	r3, #0
    af92:	d039      	beq.n	b008 <__aeabi_dsub+0x5f0>
    af94:	000b      	movs	r3, r1
    af96:	4313      	orrs	r3, r2
    af98:	d100      	bne.n	af9c <__aeabi_dsub+0x584>
    af9a:	e744      	b.n	ae26 <__aeabi_dsub+0x40e>
    af9c:	08c0      	lsrs	r0, r0, #3
    af9e:	0767      	lsls	r7, r4, #29
    afa0:	4307      	orrs	r7, r0
    afa2:	2080      	movs	r0, #128	; 0x80
    afa4:	08e4      	lsrs	r4, r4, #3
    afa6:	0300      	lsls	r0, r0, #12
    afa8:	4204      	tst	r4, r0
    afaa:	d0e1      	beq.n	af70 <__aeabi_dsub+0x558>
    afac:	08cb      	lsrs	r3, r1, #3
    afae:	4203      	tst	r3, r0
    afb0:	d1de      	bne.n	af70 <__aeabi_dsub+0x558>
    afb2:	08d7      	lsrs	r7, r2, #3
    afb4:	0749      	lsls	r1, r1, #29
    afb6:	430f      	orrs	r7, r1
    afb8:	001c      	movs	r4, r3
    afba:	e7d9      	b.n	af70 <__aeabi_dsub+0x558>
    afbc:	2100      	movs	r1, #0
    afbe:	e771      	b.n	aea4 <__aeabi_dsub+0x48c>
    afc0:	2500      	movs	r5, #0
    afc2:	2700      	movs	r7, #0
    afc4:	e5e9      	b.n	ab9a <__aeabi_dsub+0x182>
    afc6:	002e      	movs	r6, r5
    afc8:	0027      	movs	r7, r4
    afca:	3e20      	subs	r6, #32
    afcc:	40f7      	lsrs	r7, r6
    afce:	2d20      	cmp	r5, #32
    afd0:	d02f      	beq.n	b032 <__aeabi_dsub+0x61a>
    afd2:	2640      	movs	r6, #64	; 0x40
    afd4:	1b75      	subs	r5, r6, r5
    afd6:	40ac      	lsls	r4, r5
    afd8:	4650      	mov	r0, sl
    afda:	4320      	orrs	r0, r4
    afdc:	1e44      	subs	r4, r0, #1
    afde:	41a0      	sbcs	r0, r4
    afe0:	2400      	movs	r4, #0
    afe2:	4338      	orrs	r0, r7
    afe4:	e6dc      	b.n	ada0 <__aeabi_dsub+0x388>
    afe6:	2480      	movs	r4, #128	; 0x80
    afe8:	2500      	movs	r5, #0
    afea:	0324      	lsls	r4, r4, #12
    afec:	4e13      	ldr	r6, [pc, #76]	; (b03c <__aeabi_dsub+0x624>)
    afee:	2700      	movs	r7, #0
    aff0:	e5d3      	b.n	ab9a <__aeabi_dsub+0x182>
    aff2:	4650      	mov	r0, sl
    aff4:	4320      	orrs	r0, r4
    aff6:	0007      	movs	r7, r0
    aff8:	1e78      	subs	r0, r7, #1
    affa:	4187      	sbcs	r7, r0
    affc:	2400      	movs	r4, #0
    affe:	18bf      	adds	r7, r7, r2
    b000:	e760      	b.n	aec4 <__aeabi_dsub+0x4ac>
    b002:	000c      	movs	r4, r1
    b004:	0017      	movs	r7, r2
    b006:	e58d      	b.n	ab24 <__aeabi_dsub+0x10c>
    b008:	000c      	movs	r4, r1
    b00a:	0017      	movs	r7, r2
    b00c:	4e0b      	ldr	r6, [pc, #44]	; (b03c <__aeabi_dsub+0x624>)
    b00e:	e589      	b.n	ab24 <__aeabi_dsub+0x10c>
    b010:	001e      	movs	r6, r3
    b012:	0027      	movs	r7, r4
    b014:	3e20      	subs	r6, #32
    b016:	40f7      	lsrs	r7, r6
    b018:	2b20      	cmp	r3, #32
    b01a:	d00c      	beq.n	b036 <__aeabi_dsub+0x61e>
    b01c:	2640      	movs	r6, #64	; 0x40
    b01e:	1af3      	subs	r3, r6, r3
    b020:	409c      	lsls	r4, r3
    b022:	4650      	mov	r0, sl
    b024:	4320      	orrs	r0, r4
    b026:	1e44      	subs	r4, r0, #1
    b028:	41a0      	sbcs	r0, r4
    b02a:	4307      	orrs	r7, r0
    b02c:	2400      	movs	r4, #0
    b02e:	18bf      	adds	r7, r7, r2
    b030:	e748      	b.n	aec4 <__aeabi_dsub+0x4ac>
    b032:	2400      	movs	r4, #0
    b034:	e7d0      	b.n	afd8 <__aeabi_dsub+0x5c0>
    b036:	2400      	movs	r4, #0
    b038:	e7f3      	b.n	b022 <__aeabi_dsub+0x60a>
    b03a:	46c0      	nop			; (mov r8, r8)
    b03c:	000007ff 	.word	0x000007ff
    b040:	ff7fffff 	.word	0xff7fffff

0000b044 <__aeabi_d2iz>:
    b044:	b530      	push	{r4, r5, lr}
    b046:	4d13      	ldr	r5, [pc, #76]	; (b094 <__aeabi_d2iz+0x50>)
    b048:	030a      	lsls	r2, r1, #12
    b04a:	004b      	lsls	r3, r1, #1
    b04c:	0b12      	lsrs	r2, r2, #12
    b04e:	0d5b      	lsrs	r3, r3, #21
    b050:	0fc9      	lsrs	r1, r1, #31
    b052:	2400      	movs	r4, #0
    b054:	42ab      	cmp	r3, r5
    b056:	dd10      	ble.n	b07a <__aeabi_d2iz+0x36>
    b058:	4c0f      	ldr	r4, [pc, #60]	; (b098 <__aeabi_d2iz+0x54>)
    b05a:	42a3      	cmp	r3, r4
    b05c:	dc0f      	bgt.n	b07e <__aeabi_d2iz+0x3a>
    b05e:	2480      	movs	r4, #128	; 0x80
    b060:	4d0e      	ldr	r5, [pc, #56]	; (b09c <__aeabi_d2iz+0x58>)
    b062:	0364      	lsls	r4, r4, #13
    b064:	4322      	orrs	r2, r4
    b066:	1aed      	subs	r5, r5, r3
    b068:	2d1f      	cmp	r5, #31
    b06a:	dd0b      	ble.n	b084 <__aeabi_d2iz+0x40>
    b06c:	480c      	ldr	r0, [pc, #48]	; (b0a0 <__aeabi_d2iz+0x5c>)
    b06e:	1ac3      	subs	r3, r0, r3
    b070:	40da      	lsrs	r2, r3
    b072:	4254      	negs	r4, r2
    b074:	2900      	cmp	r1, #0
    b076:	d100      	bne.n	b07a <__aeabi_d2iz+0x36>
    b078:	0014      	movs	r4, r2
    b07a:	0020      	movs	r0, r4
    b07c:	bd30      	pop	{r4, r5, pc}
    b07e:	4b09      	ldr	r3, [pc, #36]	; (b0a4 <__aeabi_d2iz+0x60>)
    b080:	18cc      	adds	r4, r1, r3
    b082:	e7fa      	b.n	b07a <__aeabi_d2iz+0x36>
    b084:	4c08      	ldr	r4, [pc, #32]	; (b0a8 <__aeabi_d2iz+0x64>)
    b086:	40e8      	lsrs	r0, r5
    b088:	46a4      	mov	ip, r4
    b08a:	4463      	add	r3, ip
    b08c:	409a      	lsls	r2, r3
    b08e:	4302      	orrs	r2, r0
    b090:	e7ef      	b.n	b072 <__aeabi_d2iz+0x2e>
    b092:	46c0      	nop			; (mov r8, r8)
    b094:	000003fe 	.word	0x000003fe
    b098:	0000041d 	.word	0x0000041d
    b09c:	00000433 	.word	0x00000433
    b0a0:	00000413 	.word	0x00000413
    b0a4:	7fffffff 	.word	0x7fffffff
    b0a8:	fffffbed 	.word	0xfffffbed

0000b0ac <__aeabi_ui2d>:
    b0ac:	b510      	push	{r4, lr}
    b0ae:	1e04      	subs	r4, r0, #0
    b0b0:	d028      	beq.n	b104 <__aeabi_ui2d+0x58>
    b0b2:	f000 f833 	bl	b11c <__clzsi2>
    b0b6:	4b15      	ldr	r3, [pc, #84]	; (b10c <__aeabi_ui2d+0x60>)
    b0b8:	4a15      	ldr	r2, [pc, #84]	; (b110 <__aeabi_ui2d+0x64>)
    b0ba:	1a1b      	subs	r3, r3, r0
    b0bc:	1ad2      	subs	r2, r2, r3
    b0be:	2a1f      	cmp	r2, #31
    b0c0:	dd15      	ble.n	b0ee <__aeabi_ui2d+0x42>
    b0c2:	4a14      	ldr	r2, [pc, #80]	; (b114 <__aeabi_ui2d+0x68>)
    b0c4:	1ad2      	subs	r2, r2, r3
    b0c6:	4094      	lsls	r4, r2
    b0c8:	2200      	movs	r2, #0
    b0ca:	0324      	lsls	r4, r4, #12
    b0cc:	055b      	lsls	r3, r3, #21
    b0ce:	0b24      	lsrs	r4, r4, #12
    b0d0:	0d5b      	lsrs	r3, r3, #21
    b0d2:	2100      	movs	r1, #0
    b0d4:	0010      	movs	r0, r2
    b0d6:	0324      	lsls	r4, r4, #12
    b0d8:	0d0a      	lsrs	r2, r1, #20
    b0da:	0b24      	lsrs	r4, r4, #12
    b0dc:	0512      	lsls	r2, r2, #20
    b0de:	4322      	orrs	r2, r4
    b0e0:	4c0d      	ldr	r4, [pc, #52]	; (b118 <__aeabi_ui2d+0x6c>)
    b0e2:	051b      	lsls	r3, r3, #20
    b0e4:	4022      	ands	r2, r4
    b0e6:	4313      	orrs	r3, r2
    b0e8:	005b      	lsls	r3, r3, #1
    b0ea:	0859      	lsrs	r1, r3, #1
    b0ec:	bd10      	pop	{r4, pc}
    b0ee:	0021      	movs	r1, r4
    b0f0:	4091      	lsls	r1, r2
    b0f2:	000a      	movs	r2, r1
    b0f4:	210b      	movs	r1, #11
    b0f6:	1a08      	subs	r0, r1, r0
    b0f8:	40c4      	lsrs	r4, r0
    b0fa:	055b      	lsls	r3, r3, #21
    b0fc:	0324      	lsls	r4, r4, #12
    b0fe:	0b24      	lsrs	r4, r4, #12
    b100:	0d5b      	lsrs	r3, r3, #21
    b102:	e7e6      	b.n	b0d2 <__aeabi_ui2d+0x26>
    b104:	2300      	movs	r3, #0
    b106:	2400      	movs	r4, #0
    b108:	2200      	movs	r2, #0
    b10a:	e7e2      	b.n	b0d2 <__aeabi_ui2d+0x26>
    b10c:	0000041e 	.word	0x0000041e
    b110:	00000433 	.word	0x00000433
    b114:	00000413 	.word	0x00000413
    b118:	800fffff 	.word	0x800fffff

0000b11c <__clzsi2>:
    b11c:	211c      	movs	r1, #28
    b11e:	2301      	movs	r3, #1
    b120:	041b      	lsls	r3, r3, #16
    b122:	4298      	cmp	r0, r3
    b124:	d301      	bcc.n	b12a <__clzsi2+0xe>
    b126:	0c00      	lsrs	r0, r0, #16
    b128:	3910      	subs	r1, #16
    b12a:	0a1b      	lsrs	r3, r3, #8
    b12c:	4298      	cmp	r0, r3
    b12e:	d301      	bcc.n	b134 <__clzsi2+0x18>
    b130:	0a00      	lsrs	r0, r0, #8
    b132:	3908      	subs	r1, #8
    b134:	091b      	lsrs	r3, r3, #4
    b136:	4298      	cmp	r0, r3
    b138:	d301      	bcc.n	b13e <__clzsi2+0x22>
    b13a:	0900      	lsrs	r0, r0, #4
    b13c:	3904      	subs	r1, #4
    b13e:	a202      	add	r2, pc, #8	; (adr r2, b148 <__clzsi2+0x2c>)
    b140:	5c10      	ldrb	r0, [r2, r0]
    b142:	1840      	adds	r0, r0, r1
    b144:	4770      	bx	lr
    b146:	46c0      	nop			; (mov r8, r8)
    b148:	02020304 	.word	0x02020304
    b14c:	01010101 	.word	0x01010101
	...

0000b158 <atoi>:
    b158:	b510      	push	{r4, lr}
    b15a:	220a      	movs	r2, #10
    b15c:	2100      	movs	r1, #0
    b15e:	f000 fb6d 	bl	b83c <strtol>
    b162:	bd10      	pop	{r4, pc}

0000b164 <__libc_init_array>:
    b164:	b570      	push	{r4, r5, r6, lr}
    b166:	2600      	movs	r6, #0
    b168:	4d0c      	ldr	r5, [pc, #48]	; (b19c <__libc_init_array+0x38>)
    b16a:	4c0d      	ldr	r4, [pc, #52]	; (b1a0 <__libc_init_array+0x3c>)
    b16c:	1b64      	subs	r4, r4, r5
    b16e:	10a4      	asrs	r4, r4, #2
    b170:	42a6      	cmp	r6, r4
    b172:	d109      	bne.n	b188 <__libc_init_array+0x24>
    b174:	2600      	movs	r6, #0
    b176:	f002 fe7f 	bl	de78 <_init>
    b17a:	4d0a      	ldr	r5, [pc, #40]	; (b1a4 <__libc_init_array+0x40>)
    b17c:	4c0a      	ldr	r4, [pc, #40]	; (b1a8 <__libc_init_array+0x44>)
    b17e:	1b64      	subs	r4, r4, r5
    b180:	10a4      	asrs	r4, r4, #2
    b182:	42a6      	cmp	r6, r4
    b184:	d105      	bne.n	b192 <__libc_init_array+0x2e>
    b186:	bd70      	pop	{r4, r5, r6, pc}
    b188:	00b3      	lsls	r3, r6, #2
    b18a:	58eb      	ldr	r3, [r5, r3]
    b18c:	4798      	blx	r3
    b18e:	3601      	adds	r6, #1
    b190:	e7ee      	b.n	b170 <__libc_init_array+0xc>
    b192:	00b3      	lsls	r3, r6, #2
    b194:	58eb      	ldr	r3, [r5, r3]
    b196:	4798      	blx	r3
    b198:	3601      	adds	r6, #1
    b19a:	e7f2      	b.n	b182 <__libc_init_array+0x1e>
    b19c:	0000de84 	.word	0x0000de84
    b1a0:	0000de84 	.word	0x0000de84
    b1a4:	0000de84 	.word	0x0000de84
    b1a8:	0000de88 	.word	0x0000de88

0000b1ac <malloc>:
    b1ac:	b510      	push	{r4, lr}
    b1ae:	4b03      	ldr	r3, [pc, #12]	; (b1bc <malloc+0x10>)
    b1b0:	0001      	movs	r1, r0
    b1b2:	6818      	ldr	r0, [r3, #0]
    b1b4:	f000 f87c 	bl	b2b0 <_malloc_r>
    b1b8:	bd10      	pop	{r4, pc}
    b1ba:	46c0      	nop			; (mov r8, r8)
    b1bc:	2000002c 	.word	0x2000002c

0000b1c0 <free>:
    b1c0:	b510      	push	{r4, lr}
    b1c2:	4b03      	ldr	r3, [pc, #12]	; (b1d0 <free+0x10>)
    b1c4:	0001      	movs	r1, r0
    b1c6:	6818      	ldr	r0, [r3, #0]
    b1c8:	f000 f828 	bl	b21c <_free_r>
    b1cc:	bd10      	pop	{r4, pc}
    b1ce:	46c0      	nop			; (mov r8, r8)
    b1d0:	2000002c 	.word	0x2000002c

0000b1d4 <memcpy>:
    b1d4:	2300      	movs	r3, #0
    b1d6:	b510      	push	{r4, lr}
    b1d8:	429a      	cmp	r2, r3
    b1da:	d100      	bne.n	b1de <memcpy+0xa>
    b1dc:	bd10      	pop	{r4, pc}
    b1de:	5ccc      	ldrb	r4, [r1, r3]
    b1e0:	54c4      	strb	r4, [r0, r3]
    b1e2:	3301      	adds	r3, #1
    b1e4:	e7f8      	b.n	b1d8 <memcpy+0x4>

0000b1e6 <memmove>:
    b1e6:	b510      	push	{r4, lr}
    b1e8:	4288      	cmp	r0, r1
    b1ea:	d902      	bls.n	b1f2 <memmove+0xc>
    b1ec:	188b      	adds	r3, r1, r2
    b1ee:	4298      	cmp	r0, r3
    b1f0:	d308      	bcc.n	b204 <memmove+0x1e>
    b1f2:	2300      	movs	r3, #0
    b1f4:	429a      	cmp	r2, r3
    b1f6:	d007      	beq.n	b208 <memmove+0x22>
    b1f8:	5ccc      	ldrb	r4, [r1, r3]
    b1fa:	54c4      	strb	r4, [r0, r3]
    b1fc:	3301      	adds	r3, #1
    b1fe:	e7f9      	b.n	b1f4 <memmove+0xe>
    b200:	5c8b      	ldrb	r3, [r1, r2]
    b202:	5483      	strb	r3, [r0, r2]
    b204:	3a01      	subs	r2, #1
    b206:	d2fb      	bcs.n	b200 <memmove+0x1a>
    b208:	bd10      	pop	{r4, pc}

0000b20a <memset>:
    b20a:	0003      	movs	r3, r0
    b20c:	1882      	adds	r2, r0, r2
    b20e:	4293      	cmp	r3, r2
    b210:	d100      	bne.n	b214 <memset+0xa>
    b212:	4770      	bx	lr
    b214:	7019      	strb	r1, [r3, #0]
    b216:	3301      	adds	r3, #1
    b218:	e7f9      	b.n	b20e <memset+0x4>
	...

0000b21c <_free_r>:
    b21c:	b570      	push	{r4, r5, r6, lr}
    b21e:	0005      	movs	r5, r0
    b220:	2900      	cmp	r1, #0
    b222:	d010      	beq.n	b246 <_free_r+0x2a>
    b224:	1f0c      	subs	r4, r1, #4
    b226:	6823      	ldr	r3, [r4, #0]
    b228:	2b00      	cmp	r3, #0
    b22a:	da00      	bge.n	b22e <_free_r+0x12>
    b22c:	18e4      	adds	r4, r4, r3
    b22e:	0028      	movs	r0, r5
    b230:	f000 fdf2 	bl	be18 <__malloc_lock>
    b234:	4a1d      	ldr	r2, [pc, #116]	; (b2ac <_free_r+0x90>)
    b236:	6813      	ldr	r3, [r2, #0]
    b238:	2b00      	cmp	r3, #0
    b23a:	d105      	bne.n	b248 <_free_r+0x2c>
    b23c:	6063      	str	r3, [r4, #4]
    b23e:	6014      	str	r4, [r2, #0]
    b240:	0028      	movs	r0, r5
    b242:	f000 fdea 	bl	be1a <__malloc_unlock>
    b246:	bd70      	pop	{r4, r5, r6, pc}
    b248:	42a3      	cmp	r3, r4
    b24a:	d909      	bls.n	b260 <_free_r+0x44>
    b24c:	6821      	ldr	r1, [r4, #0]
    b24e:	1860      	adds	r0, r4, r1
    b250:	4283      	cmp	r3, r0
    b252:	d1f3      	bne.n	b23c <_free_r+0x20>
    b254:	6818      	ldr	r0, [r3, #0]
    b256:	685b      	ldr	r3, [r3, #4]
    b258:	1841      	adds	r1, r0, r1
    b25a:	6021      	str	r1, [r4, #0]
    b25c:	e7ee      	b.n	b23c <_free_r+0x20>
    b25e:	0013      	movs	r3, r2
    b260:	685a      	ldr	r2, [r3, #4]
    b262:	2a00      	cmp	r2, #0
    b264:	d001      	beq.n	b26a <_free_r+0x4e>
    b266:	42a2      	cmp	r2, r4
    b268:	d9f9      	bls.n	b25e <_free_r+0x42>
    b26a:	6819      	ldr	r1, [r3, #0]
    b26c:	1858      	adds	r0, r3, r1
    b26e:	42a0      	cmp	r0, r4
    b270:	d10b      	bne.n	b28a <_free_r+0x6e>
    b272:	6820      	ldr	r0, [r4, #0]
    b274:	1809      	adds	r1, r1, r0
    b276:	1858      	adds	r0, r3, r1
    b278:	6019      	str	r1, [r3, #0]
    b27a:	4282      	cmp	r2, r0
    b27c:	d1e0      	bne.n	b240 <_free_r+0x24>
    b27e:	6810      	ldr	r0, [r2, #0]
    b280:	6852      	ldr	r2, [r2, #4]
    b282:	1841      	adds	r1, r0, r1
    b284:	6019      	str	r1, [r3, #0]
    b286:	605a      	str	r2, [r3, #4]
    b288:	e7da      	b.n	b240 <_free_r+0x24>
    b28a:	42a0      	cmp	r0, r4
    b28c:	d902      	bls.n	b294 <_free_r+0x78>
    b28e:	230c      	movs	r3, #12
    b290:	602b      	str	r3, [r5, #0]
    b292:	e7d5      	b.n	b240 <_free_r+0x24>
    b294:	6821      	ldr	r1, [r4, #0]
    b296:	1860      	adds	r0, r4, r1
    b298:	4282      	cmp	r2, r0
    b29a:	d103      	bne.n	b2a4 <_free_r+0x88>
    b29c:	6810      	ldr	r0, [r2, #0]
    b29e:	6852      	ldr	r2, [r2, #4]
    b2a0:	1841      	adds	r1, r0, r1
    b2a2:	6021      	str	r1, [r4, #0]
    b2a4:	6062      	str	r2, [r4, #4]
    b2a6:	605c      	str	r4, [r3, #4]
    b2a8:	e7ca      	b.n	b240 <_free_r+0x24>
    b2aa:	46c0      	nop			; (mov r8, r8)
    b2ac:	200016fc 	.word	0x200016fc

0000b2b0 <_malloc_r>:
    b2b0:	2303      	movs	r3, #3
    b2b2:	b570      	push	{r4, r5, r6, lr}
    b2b4:	1ccd      	adds	r5, r1, #3
    b2b6:	439d      	bics	r5, r3
    b2b8:	3508      	adds	r5, #8
    b2ba:	0006      	movs	r6, r0
    b2bc:	2d0c      	cmp	r5, #12
    b2be:	d21e      	bcs.n	b2fe <_malloc_r+0x4e>
    b2c0:	250c      	movs	r5, #12
    b2c2:	42a9      	cmp	r1, r5
    b2c4:	d81d      	bhi.n	b302 <_malloc_r+0x52>
    b2c6:	0030      	movs	r0, r6
    b2c8:	f000 fda6 	bl	be18 <__malloc_lock>
    b2cc:	4a25      	ldr	r2, [pc, #148]	; (b364 <_malloc_r+0xb4>)
    b2ce:	6814      	ldr	r4, [r2, #0]
    b2d0:	0021      	movs	r1, r4
    b2d2:	2900      	cmp	r1, #0
    b2d4:	d119      	bne.n	b30a <_malloc_r+0x5a>
    b2d6:	4c24      	ldr	r4, [pc, #144]	; (b368 <_malloc_r+0xb8>)
    b2d8:	6823      	ldr	r3, [r4, #0]
    b2da:	2b00      	cmp	r3, #0
    b2dc:	d103      	bne.n	b2e6 <_malloc_r+0x36>
    b2de:	0030      	movs	r0, r6
    b2e0:	f000 f8dc 	bl	b49c <_sbrk_r>
    b2e4:	6020      	str	r0, [r4, #0]
    b2e6:	0029      	movs	r1, r5
    b2e8:	0030      	movs	r0, r6
    b2ea:	f000 f8d7 	bl	b49c <_sbrk_r>
    b2ee:	1c43      	adds	r3, r0, #1
    b2f0:	d12c      	bne.n	b34c <_malloc_r+0x9c>
    b2f2:	230c      	movs	r3, #12
    b2f4:	0030      	movs	r0, r6
    b2f6:	6033      	str	r3, [r6, #0]
    b2f8:	f000 fd8f 	bl	be1a <__malloc_unlock>
    b2fc:	e003      	b.n	b306 <_malloc_r+0x56>
    b2fe:	2d00      	cmp	r5, #0
    b300:	dadf      	bge.n	b2c2 <_malloc_r+0x12>
    b302:	230c      	movs	r3, #12
    b304:	6033      	str	r3, [r6, #0]
    b306:	2000      	movs	r0, #0
    b308:	bd70      	pop	{r4, r5, r6, pc}
    b30a:	680b      	ldr	r3, [r1, #0]
    b30c:	1b5b      	subs	r3, r3, r5
    b30e:	d41a      	bmi.n	b346 <_malloc_r+0x96>
    b310:	2b0b      	cmp	r3, #11
    b312:	d903      	bls.n	b31c <_malloc_r+0x6c>
    b314:	600b      	str	r3, [r1, #0]
    b316:	18cc      	adds	r4, r1, r3
    b318:	6025      	str	r5, [r4, #0]
    b31a:	e003      	b.n	b324 <_malloc_r+0x74>
    b31c:	428c      	cmp	r4, r1
    b31e:	d10e      	bne.n	b33e <_malloc_r+0x8e>
    b320:	6863      	ldr	r3, [r4, #4]
    b322:	6013      	str	r3, [r2, #0]
    b324:	0030      	movs	r0, r6
    b326:	f000 fd78 	bl	be1a <__malloc_unlock>
    b32a:	0020      	movs	r0, r4
    b32c:	2207      	movs	r2, #7
    b32e:	300b      	adds	r0, #11
    b330:	1d23      	adds	r3, r4, #4
    b332:	4390      	bics	r0, r2
    b334:	1ac3      	subs	r3, r0, r3
    b336:	d0e7      	beq.n	b308 <_malloc_r+0x58>
    b338:	425a      	negs	r2, r3
    b33a:	50e2      	str	r2, [r4, r3]
    b33c:	e7e4      	b.n	b308 <_malloc_r+0x58>
    b33e:	684b      	ldr	r3, [r1, #4]
    b340:	6063      	str	r3, [r4, #4]
    b342:	000c      	movs	r4, r1
    b344:	e7ee      	b.n	b324 <_malloc_r+0x74>
    b346:	000c      	movs	r4, r1
    b348:	6849      	ldr	r1, [r1, #4]
    b34a:	e7c2      	b.n	b2d2 <_malloc_r+0x22>
    b34c:	2303      	movs	r3, #3
    b34e:	1cc4      	adds	r4, r0, #3
    b350:	439c      	bics	r4, r3
    b352:	42a0      	cmp	r0, r4
    b354:	d0e0      	beq.n	b318 <_malloc_r+0x68>
    b356:	1a21      	subs	r1, r4, r0
    b358:	0030      	movs	r0, r6
    b35a:	f000 f89f 	bl	b49c <_sbrk_r>
    b35e:	1c43      	adds	r3, r0, #1
    b360:	d1da      	bne.n	b318 <_malloc_r+0x68>
    b362:	e7c6      	b.n	b2f2 <_malloc_r+0x42>
    b364:	200016fc 	.word	0x200016fc
    b368:	20001700 	.word	0x20001700

0000b36c <iprintf>:
    b36c:	b40f      	push	{r0, r1, r2, r3}
    b36e:	4b0b      	ldr	r3, [pc, #44]	; (b39c <iprintf+0x30>)
    b370:	b513      	push	{r0, r1, r4, lr}
    b372:	681c      	ldr	r4, [r3, #0]
    b374:	2c00      	cmp	r4, #0
    b376:	d005      	beq.n	b384 <iprintf+0x18>
    b378:	69a3      	ldr	r3, [r4, #24]
    b37a:	2b00      	cmp	r3, #0
    b37c:	d102      	bne.n	b384 <iprintf+0x18>
    b37e:	0020      	movs	r0, r4
    b380:	f000 fc34 	bl	bbec <__sinit>
    b384:	ab05      	add	r3, sp, #20
    b386:	9a04      	ldr	r2, [sp, #16]
    b388:	68a1      	ldr	r1, [r4, #8]
    b38a:	0020      	movs	r0, r4
    b38c:	9301      	str	r3, [sp, #4]
    b38e:	f000 fed3 	bl	c138 <_vfiprintf_r>
    b392:	bc16      	pop	{r1, r2, r4}
    b394:	bc08      	pop	{r3}
    b396:	b004      	add	sp, #16
    b398:	4718      	bx	r3
    b39a:	46c0      	nop			; (mov r8, r8)
    b39c:	2000002c 	.word	0x2000002c

0000b3a0 <putchar>:
    b3a0:	4b08      	ldr	r3, [pc, #32]	; (b3c4 <putchar+0x24>)
    b3a2:	b570      	push	{r4, r5, r6, lr}
    b3a4:	681c      	ldr	r4, [r3, #0]
    b3a6:	0005      	movs	r5, r0
    b3a8:	2c00      	cmp	r4, #0
    b3aa:	d005      	beq.n	b3b8 <putchar+0x18>
    b3ac:	69a3      	ldr	r3, [r4, #24]
    b3ae:	2b00      	cmp	r3, #0
    b3b0:	d102      	bne.n	b3b8 <putchar+0x18>
    b3b2:	0020      	movs	r0, r4
    b3b4:	f000 fc1a 	bl	bbec <__sinit>
    b3b8:	0029      	movs	r1, r5
    b3ba:	68a2      	ldr	r2, [r4, #8]
    b3bc:	0020      	movs	r0, r4
    b3be:	f001 f95f 	bl	c680 <_putc_r>
    b3c2:	bd70      	pop	{r4, r5, r6, pc}
    b3c4:	2000002c 	.word	0x2000002c

0000b3c8 <_puts_r>:
    b3c8:	b570      	push	{r4, r5, r6, lr}
    b3ca:	0005      	movs	r5, r0
    b3cc:	000e      	movs	r6, r1
    b3ce:	2800      	cmp	r0, #0
    b3d0:	d004      	beq.n	b3dc <_puts_r+0x14>
    b3d2:	6983      	ldr	r3, [r0, #24]
    b3d4:	2b00      	cmp	r3, #0
    b3d6:	d101      	bne.n	b3dc <_puts_r+0x14>
    b3d8:	f000 fc08 	bl	bbec <__sinit>
    b3dc:	69ab      	ldr	r3, [r5, #24]
    b3de:	68ac      	ldr	r4, [r5, #8]
    b3e0:	2b00      	cmp	r3, #0
    b3e2:	d102      	bne.n	b3ea <_puts_r+0x22>
    b3e4:	0028      	movs	r0, r5
    b3e6:	f000 fc01 	bl	bbec <__sinit>
    b3ea:	4b24      	ldr	r3, [pc, #144]	; (b47c <_puts_r+0xb4>)
    b3ec:	429c      	cmp	r4, r3
    b3ee:	d10f      	bne.n	b410 <_puts_r+0x48>
    b3f0:	686c      	ldr	r4, [r5, #4]
    b3f2:	89a3      	ldrh	r3, [r4, #12]
    b3f4:	071b      	lsls	r3, r3, #28
    b3f6:	d502      	bpl.n	b3fe <_puts_r+0x36>
    b3f8:	6923      	ldr	r3, [r4, #16]
    b3fa:	2b00      	cmp	r3, #0
    b3fc:	d120      	bne.n	b440 <_puts_r+0x78>
    b3fe:	0021      	movs	r1, r4
    b400:	0028      	movs	r0, r5
    b402:	f000 fa85 	bl	b910 <__swsetup_r>
    b406:	2800      	cmp	r0, #0
    b408:	d01a      	beq.n	b440 <_puts_r+0x78>
    b40a:	2001      	movs	r0, #1
    b40c:	4240      	negs	r0, r0
    b40e:	bd70      	pop	{r4, r5, r6, pc}
    b410:	4b1b      	ldr	r3, [pc, #108]	; (b480 <_puts_r+0xb8>)
    b412:	429c      	cmp	r4, r3
    b414:	d101      	bne.n	b41a <_puts_r+0x52>
    b416:	68ac      	ldr	r4, [r5, #8]
    b418:	e7eb      	b.n	b3f2 <_puts_r+0x2a>
    b41a:	4b1a      	ldr	r3, [pc, #104]	; (b484 <_puts_r+0xbc>)
    b41c:	429c      	cmp	r4, r3
    b41e:	d1e8      	bne.n	b3f2 <_puts_r+0x2a>
    b420:	68ec      	ldr	r4, [r5, #12]
    b422:	e7e6      	b.n	b3f2 <_puts_r+0x2a>
    b424:	3b01      	subs	r3, #1
    b426:	3601      	adds	r6, #1
    b428:	60a3      	str	r3, [r4, #8]
    b42a:	2b00      	cmp	r3, #0
    b42c:	da04      	bge.n	b438 <_puts_r+0x70>
    b42e:	69a2      	ldr	r2, [r4, #24]
    b430:	4293      	cmp	r3, r2
    b432:	db16      	blt.n	b462 <_puts_r+0x9a>
    b434:	290a      	cmp	r1, #10
    b436:	d014      	beq.n	b462 <_puts_r+0x9a>
    b438:	6823      	ldr	r3, [r4, #0]
    b43a:	1c5a      	adds	r2, r3, #1
    b43c:	6022      	str	r2, [r4, #0]
    b43e:	7019      	strb	r1, [r3, #0]
    b440:	7831      	ldrb	r1, [r6, #0]
    b442:	68a3      	ldr	r3, [r4, #8]
    b444:	2900      	cmp	r1, #0
    b446:	d1ed      	bne.n	b424 <_puts_r+0x5c>
    b448:	3b01      	subs	r3, #1
    b44a:	60a3      	str	r3, [r4, #8]
    b44c:	2b00      	cmp	r3, #0
    b44e:	da0f      	bge.n	b470 <_puts_r+0xa8>
    b450:	0022      	movs	r2, r4
    b452:	310a      	adds	r1, #10
    b454:	0028      	movs	r0, r5
    b456:	f000 fa05 	bl	b864 <__swbuf_r>
    b45a:	1c43      	adds	r3, r0, #1
    b45c:	d0d5      	beq.n	b40a <_puts_r+0x42>
    b45e:	200a      	movs	r0, #10
    b460:	e7d5      	b.n	b40e <_puts_r+0x46>
    b462:	0022      	movs	r2, r4
    b464:	0028      	movs	r0, r5
    b466:	f000 f9fd 	bl	b864 <__swbuf_r>
    b46a:	1c43      	adds	r3, r0, #1
    b46c:	d1e8      	bne.n	b440 <_puts_r+0x78>
    b46e:	e7cc      	b.n	b40a <_puts_r+0x42>
    b470:	200a      	movs	r0, #10
    b472:	6823      	ldr	r3, [r4, #0]
    b474:	1c5a      	adds	r2, r3, #1
    b476:	6022      	str	r2, [r4, #0]
    b478:	7018      	strb	r0, [r3, #0]
    b47a:	e7c8      	b.n	b40e <_puts_r+0x46>
    b47c:	0000dcfc 	.word	0x0000dcfc
    b480:	0000dd1c 	.word	0x0000dd1c
    b484:	0000dcdc 	.word	0x0000dcdc

0000b488 <puts>:
    b488:	b510      	push	{r4, lr}
    b48a:	4b03      	ldr	r3, [pc, #12]	; (b498 <puts+0x10>)
    b48c:	0001      	movs	r1, r0
    b48e:	6818      	ldr	r0, [r3, #0]
    b490:	f7ff ff9a 	bl	b3c8 <_puts_r>
    b494:	bd10      	pop	{r4, pc}
    b496:	46c0      	nop			; (mov r8, r8)
    b498:	2000002c 	.word	0x2000002c

0000b49c <_sbrk_r>:
    b49c:	2300      	movs	r3, #0
    b49e:	b570      	push	{r4, r5, r6, lr}
    b4a0:	4c06      	ldr	r4, [pc, #24]	; (b4bc <_sbrk_r+0x20>)
    b4a2:	0005      	movs	r5, r0
    b4a4:	0008      	movs	r0, r1
    b4a6:	6023      	str	r3, [r4, #0]
    b4a8:	f7fc fa7e 	bl	79a8 <_sbrk>
    b4ac:	1c43      	adds	r3, r0, #1
    b4ae:	d103      	bne.n	b4b8 <_sbrk_r+0x1c>
    b4b0:	6823      	ldr	r3, [r4, #0]
    b4b2:	2b00      	cmp	r3, #0
    b4b4:	d000      	beq.n	b4b8 <_sbrk_r+0x1c>
    b4b6:	602b      	str	r3, [r5, #0]
    b4b8:	bd70      	pop	{r4, r5, r6, pc}
    b4ba:	46c0      	nop			; (mov r8, r8)
    b4bc:	20001a58 	.word	0x20001a58

0000b4c0 <setbuf>:
    b4c0:	424a      	negs	r2, r1
    b4c2:	414a      	adcs	r2, r1
    b4c4:	2380      	movs	r3, #128	; 0x80
    b4c6:	b510      	push	{r4, lr}
    b4c8:	0052      	lsls	r2, r2, #1
    b4ca:	00db      	lsls	r3, r3, #3
    b4cc:	f000 f802 	bl	b4d4 <setvbuf>
    b4d0:	bd10      	pop	{r4, pc}
	...

0000b4d4 <setvbuf>:
    b4d4:	b5f0      	push	{r4, r5, r6, r7, lr}
    b4d6:	001d      	movs	r5, r3
    b4d8:	4b4f      	ldr	r3, [pc, #316]	; (b618 <setvbuf+0x144>)
    b4da:	b085      	sub	sp, #20
    b4dc:	681e      	ldr	r6, [r3, #0]
    b4de:	0004      	movs	r4, r0
    b4e0:	000f      	movs	r7, r1
    b4e2:	9200      	str	r2, [sp, #0]
    b4e4:	2e00      	cmp	r6, #0
    b4e6:	d005      	beq.n	b4f4 <setvbuf+0x20>
    b4e8:	69b3      	ldr	r3, [r6, #24]
    b4ea:	2b00      	cmp	r3, #0
    b4ec:	d102      	bne.n	b4f4 <setvbuf+0x20>
    b4ee:	0030      	movs	r0, r6
    b4f0:	f000 fb7c 	bl	bbec <__sinit>
    b4f4:	4b49      	ldr	r3, [pc, #292]	; (b61c <setvbuf+0x148>)
    b4f6:	429c      	cmp	r4, r3
    b4f8:	d150      	bne.n	b59c <setvbuf+0xc8>
    b4fa:	6874      	ldr	r4, [r6, #4]
    b4fc:	9b00      	ldr	r3, [sp, #0]
    b4fe:	2b02      	cmp	r3, #2
    b500:	d005      	beq.n	b50e <setvbuf+0x3a>
    b502:	2b01      	cmp	r3, #1
    b504:	d900      	bls.n	b508 <setvbuf+0x34>
    b506:	e084      	b.n	b612 <setvbuf+0x13e>
    b508:	2d00      	cmp	r5, #0
    b50a:	da00      	bge.n	b50e <setvbuf+0x3a>
    b50c:	e081      	b.n	b612 <setvbuf+0x13e>
    b50e:	0021      	movs	r1, r4
    b510:	0030      	movs	r0, r6
    b512:	f000 fafd 	bl	bb10 <_fflush_r>
    b516:	6b61      	ldr	r1, [r4, #52]	; 0x34
    b518:	2900      	cmp	r1, #0
    b51a:	d008      	beq.n	b52e <setvbuf+0x5a>
    b51c:	0023      	movs	r3, r4
    b51e:	3344      	adds	r3, #68	; 0x44
    b520:	4299      	cmp	r1, r3
    b522:	d002      	beq.n	b52a <setvbuf+0x56>
    b524:	0030      	movs	r0, r6
    b526:	f7ff fe79 	bl	b21c <_free_r>
    b52a:	2300      	movs	r3, #0
    b52c:	6363      	str	r3, [r4, #52]	; 0x34
    b52e:	2300      	movs	r3, #0
    b530:	61a3      	str	r3, [r4, #24]
    b532:	6063      	str	r3, [r4, #4]
    b534:	89a3      	ldrh	r3, [r4, #12]
    b536:	061b      	lsls	r3, r3, #24
    b538:	d503      	bpl.n	b542 <setvbuf+0x6e>
    b53a:	6921      	ldr	r1, [r4, #16]
    b53c:	0030      	movs	r0, r6
    b53e:	f7ff fe6d 	bl	b21c <_free_r>
    b542:	89a3      	ldrh	r3, [r4, #12]
    b544:	4a36      	ldr	r2, [pc, #216]	; (b620 <setvbuf+0x14c>)
    b546:	4013      	ands	r3, r2
    b548:	81a3      	strh	r3, [r4, #12]
    b54a:	9b00      	ldr	r3, [sp, #0]
    b54c:	2b02      	cmp	r3, #2
    b54e:	d05a      	beq.n	b606 <setvbuf+0x132>
    b550:	ab03      	add	r3, sp, #12
    b552:	aa02      	add	r2, sp, #8
    b554:	0021      	movs	r1, r4
    b556:	0030      	movs	r0, r6
    b558:	f000 fbe0 	bl	bd1c <__swhatbuf_r>
    b55c:	89a3      	ldrh	r3, [r4, #12]
    b55e:	4318      	orrs	r0, r3
    b560:	81a0      	strh	r0, [r4, #12]
    b562:	2d00      	cmp	r5, #0
    b564:	d124      	bne.n	b5b0 <setvbuf+0xdc>
    b566:	9d02      	ldr	r5, [sp, #8]
    b568:	0028      	movs	r0, r5
    b56a:	f7ff fe1f 	bl	b1ac <malloc>
    b56e:	9501      	str	r5, [sp, #4]
    b570:	1e07      	subs	r7, r0, #0
    b572:	d142      	bne.n	b5fa <setvbuf+0x126>
    b574:	9b02      	ldr	r3, [sp, #8]
    b576:	9301      	str	r3, [sp, #4]
    b578:	42ab      	cmp	r3, r5
    b57a:	d139      	bne.n	b5f0 <setvbuf+0x11c>
    b57c:	2001      	movs	r0, #1
    b57e:	4240      	negs	r0, r0
    b580:	2302      	movs	r3, #2
    b582:	89a2      	ldrh	r2, [r4, #12]
    b584:	4313      	orrs	r3, r2
    b586:	81a3      	strh	r3, [r4, #12]
    b588:	2300      	movs	r3, #0
    b58a:	60a3      	str	r3, [r4, #8]
    b58c:	0023      	movs	r3, r4
    b58e:	3347      	adds	r3, #71	; 0x47
    b590:	6023      	str	r3, [r4, #0]
    b592:	6123      	str	r3, [r4, #16]
    b594:	2301      	movs	r3, #1
    b596:	6163      	str	r3, [r4, #20]
    b598:	b005      	add	sp, #20
    b59a:	bdf0      	pop	{r4, r5, r6, r7, pc}
    b59c:	4b21      	ldr	r3, [pc, #132]	; (b624 <setvbuf+0x150>)
    b59e:	429c      	cmp	r4, r3
    b5a0:	d101      	bne.n	b5a6 <setvbuf+0xd2>
    b5a2:	68b4      	ldr	r4, [r6, #8]
    b5a4:	e7aa      	b.n	b4fc <setvbuf+0x28>
    b5a6:	4b20      	ldr	r3, [pc, #128]	; (b628 <setvbuf+0x154>)
    b5a8:	429c      	cmp	r4, r3
    b5aa:	d1a7      	bne.n	b4fc <setvbuf+0x28>
    b5ac:	68f4      	ldr	r4, [r6, #12]
    b5ae:	e7a5      	b.n	b4fc <setvbuf+0x28>
    b5b0:	2f00      	cmp	r7, #0
    b5b2:	d0d9      	beq.n	b568 <setvbuf+0x94>
    b5b4:	69b3      	ldr	r3, [r6, #24]
    b5b6:	2b00      	cmp	r3, #0
    b5b8:	d102      	bne.n	b5c0 <setvbuf+0xec>
    b5ba:	0030      	movs	r0, r6
    b5bc:	f000 fb16 	bl	bbec <__sinit>
    b5c0:	9b00      	ldr	r3, [sp, #0]
    b5c2:	2b01      	cmp	r3, #1
    b5c4:	d103      	bne.n	b5ce <setvbuf+0xfa>
    b5c6:	89a3      	ldrh	r3, [r4, #12]
    b5c8:	9a00      	ldr	r2, [sp, #0]
    b5ca:	431a      	orrs	r2, r3
    b5cc:	81a2      	strh	r2, [r4, #12]
    b5ce:	2008      	movs	r0, #8
    b5d0:	89a3      	ldrh	r3, [r4, #12]
    b5d2:	6027      	str	r7, [r4, #0]
    b5d4:	6127      	str	r7, [r4, #16]
    b5d6:	6165      	str	r5, [r4, #20]
    b5d8:	4018      	ands	r0, r3
    b5da:	d018      	beq.n	b60e <setvbuf+0x13a>
    b5dc:	2001      	movs	r0, #1
    b5de:	4018      	ands	r0, r3
    b5e0:	2300      	movs	r3, #0
    b5e2:	4298      	cmp	r0, r3
    b5e4:	d011      	beq.n	b60a <setvbuf+0x136>
    b5e6:	426d      	negs	r5, r5
    b5e8:	60a3      	str	r3, [r4, #8]
    b5ea:	61a5      	str	r5, [r4, #24]
    b5ec:	0018      	movs	r0, r3
    b5ee:	e7d3      	b.n	b598 <setvbuf+0xc4>
    b5f0:	9801      	ldr	r0, [sp, #4]
    b5f2:	f7ff fddb 	bl	b1ac <malloc>
    b5f6:	1e07      	subs	r7, r0, #0
    b5f8:	d0c0      	beq.n	b57c <setvbuf+0xa8>
    b5fa:	2380      	movs	r3, #128	; 0x80
    b5fc:	89a2      	ldrh	r2, [r4, #12]
    b5fe:	9d01      	ldr	r5, [sp, #4]
    b600:	4313      	orrs	r3, r2
    b602:	81a3      	strh	r3, [r4, #12]
    b604:	e7d6      	b.n	b5b4 <setvbuf+0xe0>
    b606:	2000      	movs	r0, #0
    b608:	e7ba      	b.n	b580 <setvbuf+0xac>
    b60a:	60a5      	str	r5, [r4, #8]
    b60c:	e7c4      	b.n	b598 <setvbuf+0xc4>
    b60e:	60a0      	str	r0, [r4, #8]
    b610:	e7c2      	b.n	b598 <setvbuf+0xc4>
    b612:	2001      	movs	r0, #1
    b614:	4240      	negs	r0, r0
    b616:	e7bf      	b.n	b598 <setvbuf+0xc4>
    b618:	2000002c 	.word	0x2000002c
    b61c:	0000dcfc 	.word	0x0000dcfc
    b620:	fffff35c 	.word	0xfffff35c
    b624:	0000dd1c 	.word	0x0000dd1c
    b628:	0000dcdc 	.word	0x0000dcdc

0000b62c <siprintf>:
    b62c:	b40e      	push	{r1, r2, r3}
    b62e:	b510      	push	{r4, lr}
    b630:	b09d      	sub	sp, #116	; 0x74
    b632:	a902      	add	r1, sp, #8
    b634:	9002      	str	r0, [sp, #8]
    b636:	6108      	str	r0, [r1, #16]
    b638:	480b      	ldr	r0, [pc, #44]	; (b668 <siprintf+0x3c>)
    b63a:	2482      	movs	r4, #130	; 0x82
    b63c:	6088      	str	r0, [r1, #8]
    b63e:	6148      	str	r0, [r1, #20]
    b640:	2001      	movs	r0, #1
    b642:	4240      	negs	r0, r0
    b644:	ab1f      	add	r3, sp, #124	; 0x7c
    b646:	81c8      	strh	r0, [r1, #14]
    b648:	4808      	ldr	r0, [pc, #32]	; (b66c <siprintf+0x40>)
    b64a:	cb04      	ldmia	r3!, {r2}
    b64c:	00a4      	lsls	r4, r4, #2
    b64e:	6800      	ldr	r0, [r0, #0]
    b650:	9301      	str	r3, [sp, #4]
    b652:	818c      	strh	r4, [r1, #12]
    b654:	f000 fc44 	bl	bee0 <_svfiprintf_r>
    b658:	2300      	movs	r3, #0
    b65a:	9a02      	ldr	r2, [sp, #8]
    b65c:	7013      	strb	r3, [r2, #0]
    b65e:	b01d      	add	sp, #116	; 0x74
    b660:	bc10      	pop	{r4}
    b662:	bc08      	pop	{r3}
    b664:	b003      	add	sp, #12
    b666:	4718      	bx	r3
    b668:	7fffffff 	.word	0x7fffffff
    b66c:	2000002c 	.word	0x2000002c

0000b670 <strcmp>:
    b670:	7802      	ldrb	r2, [r0, #0]
    b672:	780b      	ldrb	r3, [r1, #0]
    b674:	2a00      	cmp	r2, #0
    b676:	d003      	beq.n	b680 <strcmp+0x10>
    b678:	3001      	adds	r0, #1
    b67a:	3101      	adds	r1, #1
    b67c:	429a      	cmp	r2, r3
    b67e:	d0f7      	beq.n	b670 <strcmp>
    b680:	1ad0      	subs	r0, r2, r3
    b682:	4770      	bx	lr

0000b684 <strcpy>:
    b684:	1c03      	adds	r3, r0, #0
    b686:	780a      	ldrb	r2, [r1, #0]
    b688:	3101      	adds	r1, #1
    b68a:	701a      	strb	r2, [r3, #0]
    b68c:	3301      	adds	r3, #1
    b68e:	2a00      	cmp	r2, #0
    b690:	d1f9      	bne.n	b686 <strcpy+0x2>
    b692:	4770      	bx	lr

0000b694 <strdup>:
    b694:	b510      	push	{r4, lr}
    b696:	4b03      	ldr	r3, [pc, #12]	; (b6a4 <strdup+0x10>)
    b698:	0001      	movs	r1, r0
    b69a:	6818      	ldr	r0, [r3, #0]
    b69c:	f000 f804 	bl	b6a8 <_strdup_r>
    b6a0:	bd10      	pop	{r4, pc}
    b6a2:	46c0      	nop			; (mov r8, r8)
    b6a4:	2000002c 	.word	0x2000002c

0000b6a8 <_strdup_r>:
    b6a8:	b570      	push	{r4, r5, r6, lr}
    b6aa:	0005      	movs	r5, r0
    b6ac:	0008      	movs	r0, r1
    b6ae:	000e      	movs	r6, r1
    b6b0:	f000 f80d 	bl	b6ce <strlen>
    b6b4:	1c44      	adds	r4, r0, #1
    b6b6:	0021      	movs	r1, r4
    b6b8:	0028      	movs	r0, r5
    b6ba:	f7ff fdf9 	bl	b2b0 <_malloc_r>
    b6be:	1e05      	subs	r5, r0, #0
    b6c0:	d003      	beq.n	b6ca <_strdup_r+0x22>
    b6c2:	0022      	movs	r2, r4
    b6c4:	0031      	movs	r1, r6
    b6c6:	f7ff fd85 	bl	b1d4 <memcpy>
    b6ca:	0028      	movs	r0, r5
    b6cc:	bd70      	pop	{r4, r5, r6, pc}

0000b6ce <strlen>:
    b6ce:	2300      	movs	r3, #0
    b6d0:	5cc2      	ldrb	r2, [r0, r3]
    b6d2:	3301      	adds	r3, #1
    b6d4:	2a00      	cmp	r2, #0
    b6d6:	d1fb      	bne.n	b6d0 <strlen+0x2>
    b6d8:	1e58      	subs	r0, r3, #1
    b6da:	4770      	bx	lr

0000b6dc <strncmp>:
    b6dc:	2300      	movs	r3, #0
    b6de:	b530      	push	{r4, r5, lr}
    b6e0:	429a      	cmp	r2, r3
    b6e2:	d00a      	beq.n	b6fa <strncmp+0x1e>
    b6e4:	3a01      	subs	r2, #1
    b6e6:	5cc4      	ldrb	r4, [r0, r3]
    b6e8:	5ccd      	ldrb	r5, [r1, r3]
    b6ea:	42ac      	cmp	r4, r5
    b6ec:	d104      	bne.n	b6f8 <strncmp+0x1c>
    b6ee:	429a      	cmp	r2, r3
    b6f0:	d002      	beq.n	b6f8 <strncmp+0x1c>
    b6f2:	3301      	adds	r3, #1
    b6f4:	2c00      	cmp	r4, #0
    b6f6:	d1f6      	bne.n	b6e6 <strncmp+0xa>
    b6f8:	1b63      	subs	r3, r4, r5
    b6fa:	0018      	movs	r0, r3
    b6fc:	bd30      	pop	{r4, r5, pc}

0000b6fe <strstr>:
    b6fe:	b510      	push	{r4, lr}
    b700:	0002      	movs	r2, r0
    b702:	7800      	ldrb	r0, [r0, #0]
    b704:	2800      	cmp	r0, #0
    b706:	d104      	bne.n	b712 <strstr+0x14>
    b708:	7809      	ldrb	r1, [r1, #0]
    b70a:	2900      	cmp	r1, #0
    b70c:	d00d      	beq.n	b72a <strstr+0x2c>
    b70e:	bd10      	pop	{r4, pc}
    b710:	3201      	adds	r2, #1
    b712:	7810      	ldrb	r0, [r2, #0]
    b714:	2800      	cmp	r0, #0
    b716:	d0fa      	beq.n	b70e <strstr+0x10>
    b718:	2300      	movs	r3, #0
    b71a:	5cc8      	ldrb	r0, [r1, r3]
    b71c:	2800      	cmp	r0, #0
    b71e:	d004      	beq.n	b72a <strstr+0x2c>
    b720:	5cd4      	ldrb	r4, [r2, r3]
    b722:	4284      	cmp	r4, r0
    b724:	d1f4      	bne.n	b710 <strstr+0x12>
    b726:	3301      	adds	r3, #1
    b728:	e7f7      	b.n	b71a <strstr+0x1c>
    b72a:	0010      	movs	r0, r2
    b72c:	e7ef      	b.n	b70e <strstr+0x10>
	...

0000b730 <_strtol_l.isra.0>:
    b730:	b5f0      	push	{r4, r5, r6, r7, lr}
    b732:	001f      	movs	r7, r3
    b734:	000e      	movs	r6, r1
    b736:	b087      	sub	sp, #28
    b738:	9005      	str	r0, [sp, #20]
    b73a:	9103      	str	r1, [sp, #12]
    b73c:	9202      	str	r2, [sp, #8]
    b73e:	980c      	ldr	r0, [sp, #48]	; 0x30
    b740:	7834      	ldrb	r4, [r6, #0]
    b742:	f000 fae8 	bl	bd16 <__locale_ctype_ptr_l>
    b746:	2208      	movs	r2, #8
    b748:	1900      	adds	r0, r0, r4
    b74a:	7843      	ldrb	r3, [r0, #1]
    b74c:	1c75      	adds	r5, r6, #1
    b74e:	4013      	ands	r3, r2
    b750:	d10c      	bne.n	b76c <_strtol_l.isra.0+0x3c>
    b752:	2c2d      	cmp	r4, #45	; 0x2d
    b754:	d10c      	bne.n	b770 <_strtol_l.isra.0+0x40>
    b756:	3301      	adds	r3, #1
    b758:	782c      	ldrb	r4, [r5, #0]
    b75a:	9301      	str	r3, [sp, #4]
    b75c:	1cb5      	adds	r5, r6, #2
    b75e:	2f00      	cmp	r7, #0
    b760:	d00c      	beq.n	b77c <_strtol_l.isra.0+0x4c>
    b762:	2f10      	cmp	r7, #16
    b764:	d114      	bne.n	b790 <_strtol_l.isra.0+0x60>
    b766:	2c30      	cmp	r4, #48	; 0x30
    b768:	d00a      	beq.n	b780 <_strtol_l.isra.0+0x50>
    b76a:	e011      	b.n	b790 <_strtol_l.isra.0+0x60>
    b76c:	002e      	movs	r6, r5
    b76e:	e7e6      	b.n	b73e <_strtol_l.isra.0+0xe>
    b770:	9301      	str	r3, [sp, #4]
    b772:	2c2b      	cmp	r4, #43	; 0x2b
    b774:	d1f3      	bne.n	b75e <_strtol_l.isra.0+0x2e>
    b776:	782c      	ldrb	r4, [r5, #0]
    b778:	1cb5      	adds	r5, r6, #2
    b77a:	e7f0      	b.n	b75e <_strtol_l.isra.0+0x2e>
    b77c:	2c30      	cmp	r4, #48	; 0x30
    b77e:	d12f      	bne.n	b7e0 <_strtol_l.isra.0+0xb0>
    b780:	2220      	movs	r2, #32
    b782:	782b      	ldrb	r3, [r5, #0]
    b784:	4393      	bics	r3, r2
    b786:	2b58      	cmp	r3, #88	; 0x58
    b788:	d151      	bne.n	b82e <_strtol_l.isra.0+0xfe>
    b78a:	2710      	movs	r7, #16
    b78c:	786c      	ldrb	r4, [r5, #1]
    b78e:	3502      	adds	r5, #2
    b790:	9b01      	ldr	r3, [sp, #4]
    b792:	4a29      	ldr	r2, [pc, #164]	; (b838 <_strtol_l.isra.0+0x108>)
    b794:	0039      	movs	r1, r7
    b796:	189e      	adds	r6, r3, r2
    b798:	0030      	movs	r0, r6
    b79a:	f7fd ff53 	bl	9644 <__aeabi_uidivmod>
    b79e:	0030      	movs	r0, r6
    b7a0:	9104      	str	r1, [sp, #16]
    b7a2:	0039      	movs	r1, r7
    b7a4:	f7fd fec8 	bl	9538 <__udivsi3>
    b7a8:	2101      	movs	r1, #1
    b7aa:	2300      	movs	r3, #0
    b7ac:	4249      	negs	r1, r1
    b7ae:	0002      	movs	r2, r0
    b7b0:	468c      	mov	ip, r1
    b7b2:	0018      	movs	r0, r3
    b7b4:	0021      	movs	r1, r4
    b7b6:	3930      	subs	r1, #48	; 0x30
    b7b8:	2909      	cmp	r1, #9
    b7ba:	d813      	bhi.n	b7e4 <_strtol_l.isra.0+0xb4>
    b7bc:	000c      	movs	r4, r1
    b7be:	42a7      	cmp	r7, r4
    b7c0:	dd1c      	ble.n	b7fc <_strtol_l.isra.0+0xcc>
    b7c2:	1c59      	adds	r1, r3, #1
    b7c4:	d009      	beq.n	b7da <_strtol_l.isra.0+0xaa>
    b7c6:	4663      	mov	r3, ip
    b7c8:	4282      	cmp	r2, r0
    b7ca:	d306      	bcc.n	b7da <_strtol_l.isra.0+0xaa>
    b7cc:	d102      	bne.n	b7d4 <_strtol_l.isra.0+0xa4>
    b7ce:	9904      	ldr	r1, [sp, #16]
    b7d0:	42a1      	cmp	r1, r4
    b7d2:	db02      	blt.n	b7da <_strtol_l.isra.0+0xaa>
    b7d4:	2301      	movs	r3, #1
    b7d6:	4378      	muls	r0, r7
    b7d8:	1820      	adds	r0, r4, r0
    b7da:	782c      	ldrb	r4, [r5, #0]
    b7dc:	3501      	adds	r5, #1
    b7de:	e7e9      	b.n	b7b4 <_strtol_l.isra.0+0x84>
    b7e0:	270a      	movs	r7, #10
    b7e2:	e7d5      	b.n	b790 <_strtol_l.isra.0+0x60>
    b7e4:	0021      	movs	r1, r4
    b7e6:	3941      	subs	r1, #65	; 0x41
    b7e8:	2919      	cmp	r1, #25
    b7ea:	d801      	bhi.n	b7f0 <_strtol_l.isra.0+0xc0>
    b7ec:	3c37      	subs	r4, #55	; 0x37
    b7ee:	e7e6      	b.n	b7be <_strtol_l.isra.0+0x8e>
    b7f0:	0021      	movs	r1, r4
    b7f2:	3961      	subs	r1, #97	; 0x61
    b7f4:	2919      	cmp	r1, #25
    b7f6:	d801      	bhi.n	b7fc <_strtol_l.isra.0+0xcc>
    b7f8:	3c57      	subs	r4, #87	; 0x57
    b7fa:	e7e0      	b.n	b7be <_strtol_l.isra.0+0x8e>
    b7fc:	1c5a      	adds	r2, r3, #1
    b7fe:	d108      	bne.n	b812 <_strtol_l.isra.0+0xe2>
    b800:	9a05      	ldr	r2, [sp, #20]
    b802:	3323      	adds	r3, #35	; 0x23
    b804:	6013      	str	r3, [r2, #0]
    b806:	9b02      	ldr	r3, [sp, #8]
    b808:	0030      	movs	r0, r6
    b80a:	2b00      	cmp	r3, #0
    b80c:	d10b      	bne.n	b826 <_strtol_l.isra.0+0xf6>
    b80e:	b007      	add	sp, #28
    b810:	bdf0      	pop	{r4, r5, r6, r7, pc}
    b812:	9a01      	ldr	r2, [sp, #4]
    b814:	2a00      	cmp	r2, #0
    b816:	d000      	beq.n	b81a <_strtol_l.isra.0+0xea>
    b818:	4240      	negs	r0, r0
    b81a:	9a02      	ldr	r2, [sp, #8]
    b81c:	2a00      	cmp	r2, #0
    b81e:	d0f6      	beq.n	b80e <_strtol_l.isra.0+0xde>
    b820:	9a03      	ldr	r2, [sp, #12]
    b822:	2b00      	cmp	r3, #0
    b824:	d000      	beq.n	b828 <_strtol_l.isra.0+0xf8>
    b826:	1e6a      	subs	r2, r5, #1
    b828:	9b02      	ldr	r3, [sp, #8]
    b82a:	601a      	str	r2, [r3, #0]
    b82c:	e7ef      	b.n	b80e <_strtol_l.isra.0+0xde>
    b82e:	2430      	movs	r4, #48	; 0x30
    b830:	2f00      	cmp	r7, #0
    b832:	d1ad      	bne.n	b790 <_strtol_l.isra.0+0x60>
    b834:	3708      	adds	r7, #8
    b836:	e7ab      	b.n	b790 <_strtol_l.isra.0+0x60>
    b838:	7fffffff 	.word	0x7fffffff

0000b83c <strtol>:
    b83c:	b537      	push	{r0, r1, r2, r4, r5, lr}
    b83e:	0013      	movs	r3, r2
    b840:	4a06      	ldr	r2, [pc, #24]	; (b85c <strtol+0x20>)
    b842:	0005      	movs	r5, r0
    b844:	6810      	ldr	r0, [r2, #0]
    b846:	6a04      	ldr	r4, [r0, #32]
    b848:	2c00      	cmp	r4, #0
    b84a:	d100      	bne.n	b84e <strtol+0x12>
    b84c:	4c04      	ldr	r4, [pc, #16]	; (b860 <strtol+0x24>)
    b84e:	000a      	movs	r2, r1
    b850:	9400      	str	r4, [sp, #0]
    b852:	0029      	movs	r1, r5
    b854:	f7ff ff6c 	bl	b730 <_strtol_l.isra.0>
    b858:	bd3e      	pop	{r1, r2, r3, r4, r5, pc}
    b85a:	46c0      	nop			; (mov r8, r8)
    b85c:	2000002c 	.word	0x2000002c
    b860:	20000090 	.word	0x20000090

0000b864 <__swbuf_r>:
    b864:	b5f8      	push	{r3, r4, r5, r6, r7, lr}
    b866:	0005      	movs	r5, r0
    b868:	000e      	movs	r6, r1
    b86a:	0014      	movs	r4, r2
    b86c:	2800      	cmp	r0, #0
    b86e:	d004      	beq.n	b87a <__swbuf_r+0x16>
    b870:	6983      	ldr	r3, [r0, #24]
    b872:	2b00      	cmp	r3, #0
    b874:	d101      	bne.n	b87a <__swbuf_r+0x16>
    b876:	f000 f9b9 	bl	bbec <__sinit>
    b87a:	4b22      	ldr	r3, [pc, #136]	; (b904 <__swbuf_r+0xa0>)
    b87c:	429c      	cmp	r4, r3
    b87e:	d12d      	bne.n	b8dc <__swbuf_r+0x78>
    b880:	686c      	ldr	r4, [r5, #4]
    b882:	69a3      	ldr	r3, [r4, #24]
    b884:	60a3      	str	r3, [r4, #8]
    b886:	89a3      	ldrh	r3, [r4, #12]
    b888:	071b      	lsls	r3, r3, #28
    b88a:	d531      	bpl.n	b8f0 <__swbuf_r+0x8c>
    b88c:	6923      	ldr	r3, [r4, #16]
    b88e:	2b00      	cmp	r3, #0
    b890:	d02e      	beq.n	b8f0 <__swbuf_r+0x8c>
    b892:	6823      	ldr	r3, [r4, #0]
    b894:	6922      	ldr	r2, [r4, #16]
    b896:	b2f7      	uxtb	r7, r6
    b898:	1a98      	subs	r0, r3, r2
    b89a:	6963      	ldr	r3, [r4, #20]
    b89c:	b2f6      	uxtb	r6, r6
    b89e:	4298      	cmp	r0, r3
    b8a0:	db05      	blt.n	b8ae <__swbuf_r+0x4a>
    b8a2:	0021      	movs	r1, r4
    b8a4:	0028      	movs	r0, r5
    b8a6:	f000 f933 	bl	bb10 <_fflush_r>
    b8aa:	2800      	cmp	r0, #0
    b8ac:	d126      	bne.n	b8fc <__swbuf_r+0x98>
    b8ae:	68a3      	ldr	r3, [r4, #8]
    b8b0:	3001      	adds	r0, #1
    b8b2:	3b01      	subs	r3, #1
    b8b4:	60a3      	str	r3, [r4, #8]
    b8b6:	6823      	ldr	r3, [r4, #0]
    b8b8:	1c5a      	adds	r2, r3, #1
    b8ba:	6022      	str	r2, [r4, #0]
    b8bc:	701f      	strb	r7, [r3, #0]
    b8be:	6963      	ldr	r3, [r4, #20]
    b8c0:	4298      	cmp	r0, r3
    b8c2:	d004      	beq.n	b8ce <__swbuf_r+0x6a>
    b8c4:	89a3      	ldrh	r3, [r4, #12]
    b8c6:	07db      	lsls	r3, r3, #31
    b8c8:	d51a      	bpl.n	b900 <__swbuf_r+0x9c>
    b8ca:	2e0a      	cmp	r6, #10
    b8cc:	d118      	bne.n	b900 <__swbuf_r+0x9c>
    b8ce:	0021      	movs	r1, r4
    b8d0:	0028      	movs	r0, r5
    b8d2:	f000 f91d 	bl	bb10 <_fflush_r>
    b8d6:	2800      	cmp	r0, #0
    b8d8:	d012      	beq.n	b900 <__swbuf_r+0x9c>
    b8da:	e00f      	b.n	b8fc <__swbuf_r+0x98>
    b8dc:	4b0a      	ldr	r3, [pc, #40]	; (b908 <__swbuf_r+0xa4>)
    b8de:	429c      	cmp	r4, r3
    b8e0:	d101      	bne.n	b8e6 <__swbuf_r+0x82>
    b8e2:	68ac      	ldr	r4, [r5, #8]
    b8e4:	e7cd      	b.n	b882 <__swbuf_r+0x1e>
    b8e6:	4b09      	ldr	r3, [pc, #36]	; (b90c <__swbuf_r+0xa8>)
    b8e8:	429c      	cmp	r4, r3
    b8ea:	d1ca      	bne.n	b882 <__swbuf_r+0x1e>
    b8ec:	68ec      	ldr	r4, [r5, #12]
    b8ee:	e7c8      	b.n	b882 <__swbuf_r+0x1e>
    b8f0:	0021      	movs	r1, r4
    b8f2:	0028      	movs	r0, r5
    b8f4:	f000 f80c 	bl	b910 <__swsetup_r>
    b8f8:	2800      	cmp	r0, #0
    b8fa:	d0ca      	beq.n	b892 <__swbuf_r+0x2e>
    b8fc:	2601      	movs	r6, #1
    b8fe:	4276      	negs	r6, r6
    b900:	0030      	movs	r0, r6
    b902:	bdf8      	pop	{r3, r4, r5, r6, r7, pc}
    b904:	0000dcfc 	.word	0x0000dcfc
    b908:	0000dd1c 	.word	0x0000dd1c
    b90c:	0000dcdc 	.word	0x0000dcdc

0000b910 <__swsetup_r>:
    b910:	4b36      	ldr	r3, [pc, #216]	; (b9ec <__swsetup_r+0xdc>)
    b912:	b570      	push	{r4, r5, r6, lr}
    b914:	681d      	ldr	r5, [r3, #0]
    b916:	0006      	movs	r6, r0
    b918:	000c      	movs	r4, r1
    b91a:	2d00      	cmp	r5, #0
    b91c:	d005      	beq.n	b92a <__swsetup_r+0x1a>
    b91e:	69ab      	ldr	r3, [r5, #24]
    b920:	2b00      	cmp	r3, #0
    b922:	d102      	bne.n	b92a <__swsetup_r+0x1a>
    b924:	0028      	movs	r0, r5
    b926:	f000 f961 	bl	bbec <__sinit>
    b92a:	4b31      	ldr	r3, [pc, #196]	; (b9f0 <__swsetup_r+0xe0>)
    b92c:	429c      	cmp	r4, r3
    b92e:	d10f      	bne.n	b950 <__swsetup_r+0x40>
    b930:	686c      	ldr	r4, [r5, #4]
    b932:	230c      	movs	r3, #12
    b934:	5ee2      	ldrsh	r2, [r4, r3]
    b936:	b293      	uxth	r3, r2
    b938:	0719      	lsls	r1, r3, #28
    b93a:	d42d      	bmi.n	b998 <__swsetup_r+0x88>
    b93c:	06d9      	lsls	r1, r3, #27
    b93e:	d411      	bmi.n	b964 <__swsetup_r+0x54>
    b940:	2309      	movs	r3, #9
    b942:	2001      	movs	r0, #1
    b944:	6033      	str	r3, [r6, #0]
    b946:	3337      	adds	r3, #55	; 0x37
    b948:	4313      	orrs	r3, r2
    b94a:	81a3      	strh	r3, [r4, #12]
    b94c:	4240      	negs	r0, r0
    b94e:	bd70      	pop	{r4, r5, r6, pc}
    b950:	4b28      	ldr	r3, [pc, #160]	; (b9f4 <__swsetup_r+0xe4>)
    b952:	429c      	cmp	r4, r3
    b954:	d101      	bne.n	b95a <__swsetup_r+0x4a>
    b956:	68ac      	ldr	r4, [r5, #8]
    b958:	e7eb      	b.n	b932 <__swsetup_r+0x22>
    b95a:	4b27      	ldr	r3, [pc, #156]	; (b9f8 <__swsetup_r+0xe8>)
    b95c:	429c      	cmp	r4, r3
    b95e:	d1e8      	bne.n	b932 <__swsetup_r+0x22>
    b960:	68ec      	ldr	r4, [r5, #12]
    b962:	e7e6      	b.n	b932 <__swsetup_r+0x22>
    b964:	075b      	lsls	r3, r3, #29
    b966:	d513      	bpl.n	b990 <__swsetup_r+0x80>
    b968:	6b61      	ldr	r1, [r4, #52]	; 0x34
    b96a:	2900      	cmp	r1, #0
    b96c:	d008      	beq.n	b980 <__swsetup_r+0x70>
    b96e:	0023      	movs	r3, r4
    b970:	3344      	adds	r3, #68	; 0x44
    b972:	4299      	cmp	r1, r3
    b974:	d002      	beq.n	b97c <__swsetup_r+0x6c>
    b976:	0030      	movs	r0, r6
    b978:	f7ff fc50 	bl	b21c <_free_r>
    b97c:	2300      	movs	r3, #0
    b97e:	6363      	str	r3, [r4, #52]	; 0x34
    b980:	2224      	movs	r2, #36	; 0x24
    b982:	89a3      	ldrh	r3, [r4, #12]
    b984:	4393      	bics	r3, r2
    b986:	81a3      	strh	r3, [r4, #12]
    b988:	2300      	movs	r3, #0
    b98a:	6063      	str	r3, [r4, #4]
    b98c:	6923      	ldr	r3, [r4, #16]
    b98e:	6023      	str	r3, [r4, #0]
    b990:	2308      	movs	r3, #8
    b992:	89a2      	ldrh	r2, [r4, #12]
    b994:	4313      	orrs	r3, r2
    b996:	81a3      	strh	r3, [r4, #12]
    b998:	6923      	ldr	r3, [r4, #16]
    b99a:	2b00      	cmp	r3, #0
    b99c:	d10b      	bne.n	b9b6 <__swsetup_r+0xa6>
    b99e:	21a0      	movs	r1, #160	; 0xa0
    b9a0:	2280      	movs	r2, #128	; 0x80
    b9a2:	89a3      	ldrh	r3, [r4, #12]
    b9a4:	0089      	lsls	r1, r1, #2
    b9a6:	0092      	lsls	r2, r2, #2
    b9a8:	400b      	ands	r3, r1
    b9aa:	4293      	cmp	r3, r2
    b9ac:	d003      	beq.n	b9b6 <__swsetup_r+0xa6>
    b9ae:	0021      	movs	r1, r4
    b9b0:	0030      	movs	r0, r6
    b9b2:	f000 f9db 	bl	bd6c <__smakebuf_r>
    b9b6:	2301      	movs	r3, #1
    b9b8:	89a2      	ldrh	r2, [r4, #12]
    b9ba:	4013      	ands	r3, r2
    b9bc:	d011      	beq.n	b9e2 <__swsetup_r+0xd2>
    b9be:	2300      	movs	r3, #0
    b9c0:	60a3      	str	r3, [r4, #8]
    b9c2:	6963      	ldr	r3, [r4, #20]
    b9c4:	425b      	negs	r3, r3
    b9c6:	61a3      	str	r3, [r4, #24]
    b9c8:	2000      	movs	r0, #0
    b9ca:	6923      	ldr	r3, [r4, #16]
    b9cc:	4283      	cmp	r3, r0
    b9ce:	d1be      	bne.n	b94e <__swsetup_r+0x3e>
    b9d0:	230c      	movs	r3, #12
    b9d2:	5ee2      	ldrsh	r2, [r4, r3]
    b9d4:	0613      	lsls	r3, r2, #24
    b9d6:	d5ba      	bpl.n	b94e <__swsetup_r+0x3e>
    b9d8:	2340      	movs	r3, #64	; 0x40
    b9da:	4313      	orrs	r3, r2
    b9dc:	81a3      	strh	r3, [r4, #12]
    b9de:	3801      	subs	r0, #1
    b9e0:	e7b5      	b.n	b94e <__swsetup_r+0x3e>
    b9e2:	0792      	lsls	r2, r2, #30
    b9e4:	d400      	bmi.n	b9e8 <__swsetup_r+0xd8>
    b9e6:	6963      	ldr	r3, [r4, #20]
    b9e8:	60a3      	str	r3, [r4, #8]
    b9ea:	e7ed      	b.n	b9c8 <__swsetup_r+0xb8>
    b9ec:	2000002c 	.word	0x2000002c
    b9f0:	0000dcfc 	.word	0x0000dcfc
    b9f4:	0000dd1c 	.word	0x0000dd1c
    b9f8:	0000dcdc 	.word	0x0000dcdc

0000b9fc <__sflush_r>:
    b9fc:	b5f7      	push	{r0, r1, r2, r4, r5, r6, r7, lr}
    b9fe:	898a      	ldrh	r2, [r1, #12]
    ba00:	0005      	movs	r5, r0
    ba02:	000c      	movs	r4, r1
    ba04:	0713      	lsls	r3, r2, #28
    ba06:	d460      	bmi.n	baca <__sflush_r+0xce>
    ba08:	684b      	ldr	r3, [r1, #4]
    ba0a:	2b00      	cmp	r3, #0
    ba0c:	dc04      	bgt.n	ba18 <__sflush_r+0x1c>
    ba0e:	6c0b      	ldr	r3, [r1, #64]	; 0x40
    ba10:	2b00      	cmp	r3, #0
    ba12:	dc01      	bgt.n	ba18 <__sflush_r+0x1c>
    ba14:	2000      	movs	r0, #0
    ba16:	bdfe      	pop	{r1, r2, r3, r4, r5, r6, r7, pc}
    ba18:	6ae7      	ldr	r7, [r4, #44]	; 0x2c
    ba1a:	2f00      	cmp	r7, #0
    ba1c:	d0fa      	beq.n	ba14 <__sflush_r+0x18>
    ba1e:	2300      	movs	r3, #0
    ba20:	682e      	ldr	r6, [r5, #0]
    ba22:	602b      	str	r3, [r5, #0]
    ba24:	2380      	movs	r3, #128	; 0x80
    ba26:	015b      	lsls	r3, r3, #5
    ba28:	401a      	ands	r2, r3
    ba2a:	d034      	beq.n	ba96 <__sflush_r+0x9a>
    ba2c:	6d60      	ldr	r0, [r4, #84]	; 0x54
    ba2e:	89a3      	ldrh	r3, [r4, #12]
    ba30:	075b      	lsls	r3, r3, #29
    ba32:	d506      	bpl.n	ba42 <__sflush_r+0x46>
    ba34:	6863      	ldr	r3, [r4, #4]
    ba36:	1ac0      	subs	r0, r0, r3
    ba38:	6b63      	ldr	r3, [r4, #52]	; 0x34
    ba3a:	2b00      	cmp	r3, #0
    ba3c:	d001      	beq.n	ba42 <__sflush_r+0x46>
    ba3e:	6c23      	ldr	r3, [r4, #64]	; 0x40
    ba40:	1ac0      	subs	r0, r0, r3
    ba42:	0002      	movs	r2, r0
    ba44:	6a21      	ldr	r1, [r4, #32]
    ba46:	2300      	movs	r3, #0
    ba48:	0028      	movs	r0, r5
    ba4a:	6ae7      	ldr	r7, [r4, #44]	; 0x2c
    ba4c:	47b8      	blx	r7
    ba4e:	89a1      	ldrh	r1, [r4, #12]
    ba50:	1c43      	adds	r3, r0, #1
    ba52:	d106      	bne.n	ba62 <__sflush_r+0x66>
    ba54:	682b      	ldr	r3, [r5, #0]
    ba56:	2b1d      	cmp	r3, #29
    ba58:	d831      	bhi.n	babe <__sflush_r+0xc2>
    ba5a:	4a2c      	ldr	r2, [pc, #176]	; (bb0c <__sflush_r+0x110>)
    ba5c:	40da      	lsrs	r2, r3
    ba5e:	07d3      	lsls	r3, r2, #31
    ba60:	d52d      	bpl.n	babe <__sflush_r+0xc2>
    ba62:	2300      	movs	r3, #0
    ba64:	6063      	str	r3, [r4, #4]
    ba66:	6923      	ldr	r3, [r4, #16]
    ba68:	6023      	str	r3, [r4, #0]
    ba6a:	04cb      	lsls	r3, r1, #19
    ba6c:	d505      	bpl.n	ba7a <__sflush_r+0x7e>
    ba6e:	1c43      	adds	r3, r0, #1
    ba70:	d102      	bne.n	ba78 <__sflush_r+0x7c>
    ba72:	682b      	ldr	r3, [r5, #0]
    ba74:	2b00      	cmp	r3, #0
    ba76:	d100      	bne.n	ba7a <__sflush_r+0x7e>
    ba78:	6560      	str	r0, [r4, #84]	; 0x54
    ba7a:	6b61      	ldr	r1, [r4, #52]	; 0x34
    ba7c:	602e      	str	r6, [r5, #0]
    ba7e:	2900      	cmp	r1, #0
    ba80:	d0c8      	beq.n	ba14 <__sflush_r+0x18>
    ba82:	0023      	movs	r3, r4
    ba84:	3344      	adds	r3, #68	; 0x44
    ba86:	4299      	cmp	r1, r3
    ba88:	d002      	beq.n	ba90 <__sflush_r+0x94>
    ba8a:	0028      	movs	r0, r5
    ba8c:	f7ff fbc6 	bl	b21c <_free_r>
    ba90:	2000      	movs	r0, #0
    ba92:	6360      	str	r0, [r4, #52]	; 0x34
    ba94:	e7bf      	b.n	ba16 <__sflush_r+0x1a>
    ba96:	2301      	movs	r3, #1
    ba98:	6a21      	ldr	r1, [r4, #32]
    ba9a:	0028      	movs	r0, r5
    ba9c:	47b8      	blx	r7
    ba9e:	1c43      	adds	r3, r0, #1
    baa0:	d1c5      	bne.n	ba2e <__sflush_r+0x32>
    baa2:	682b      	ldr	r3, [r5, #0]
    baa4:	2b00      	cmp	r3, #0
    baa6:	d0c2      	beq.n	ba2e <__sflush_r+0x32>
    baa8:	2b1d      	cmp	r3, #29
    baaa:	d001      	beq.n	bab0 <__sflush_r+0xb4>
    baac:	2b16      	cmp	r3, #22
    baae:	d101      	bne.n	bab4 <__sflush_r+0xb8>
    bab0:	602e      	str	r6, [r5, #0]
    bab2:	e7af      	b.n	ba14 <__sflush_r+0x18>
    bab4:	2340      	movs	r3, #64	; 0x40
    bab6:	89a2      	ldrh	r2, [r4, #12]
    bab8:	4313      	orrs	r3, r2
    baba:	81a3      	strh	r3, [r4, #12]
    babc:	e7ab      	b.n	ba16 <__sflush_r+0x1a>
    babe:	2340      	movs	r3, #64	; 0x40
    bac0:	430b      	orrs	r3, r1
    bac2:	2001      	movs	r0, #1
    bac4:	81a3      	strh	r3, [r4, #12]
    bac6:	4240      	negs	r0, r0
    bac8:	e7a5      	b.n	ba16 <__sflush_r+0x1a>
    baca:	690f      	ldr	r7, [r1, #16]
    bacc:	2f00      	cmp	r7, #0
    bace:	d0a1      	beq.n	ba14 <__sflush_r+0x18>
    bad0:	680b      	ldr	r3, [r1, #0]
    bad2:	600f      	str	r7, [r1, #0]
    bad4:	1bdb      	subs	r3, r3, r7
    bad6:	9301      	str	r3, [sp, #4]
    bad8:	2300      	movs	r3, #0
    bada:	0792      	lsls	r2, r2, #30
    badc:	d100      	bne.n	bae0 <__sflush_r+0xe4>
    bade:	694b      	ldr	r3, [r1, #20]
    bae0:	60a3      	str	r3, [r4, #8]
    bae2:	9b01      	ldr	r3, [sp, #4]
    bae4:	2b00      	cmp	r3, #0
    bae6:	dc00      	bgt.n	baea <__sflush_r+0xee>
    bae8:	e794      	b.n	ba14 <__sflush_r+0x18>
    baea:	9b01      	ldr	r3, [sp, #4]
    baec:	003a      	movs	r2, r7
    baee:	6a21      	ldr	r1, [r4, #32]
    baf0:	0028      	movs	r0, r5
    baf2:	6aa6      	ldr	r6, [r4, #40]	; 0x28
    baf4:	47b0      	blx	r6
    baf6:	2800      	cmp	r0, #0
    baf8:	dc03      	bgt.n	bb02 <__sflush_r+0x106>
    bafa:	2340      	movs	r3, #64	; 0x40
    bafc:	89a2      	ldrh	r2, [r4, #12]
    bafe:	4313      	orrs	r3, r2
    bb00:	e7df      	b.n	bac2 <__sflush_r+0xc6>
    bb02:	9b01      	ldr	r3, [sp, #4]
    bb04:	183f      	adds	r7, r7, r0
    bb06:	1a1b      	subs	r3, r3, r0
    bb08:	9301      	str	r3, [sp, #4]
    bb0a:	e7ea      	b.n	bae2 <__sflush_r+0xe6>
    bb0c:	20400001 	.word	0x20400001

0000bb10 <_fflush_r>:
    bb10:	690b      	ldr	r3, [r1, #16]
    bb12:	b570      	push	{r4, r5, r6, lr}
    bb14:	0005      	movs	r5, r0
    bb16:	000c      	movs	r4, r1
    bb18:	2b00      	cmp	r3, #0
    bb1a:	d101      	bne.n	bb20 <_fflush_r+0x10>
    bb1c:	2000      	movs	r0, #0
    bb1e:	bd70      	pop	{r4, r5, r6, pc}
    bb20:	2800      	cmp	r0, #0
    bb22:	d004      	beq.n	bb2e <_fflush_r+0x1e>
    bb24:	6983      	ldr	r3, [r0, #24]
    bb26:	2b00      	cmp	r3, #0
    bb28:	d101      	bne.n	bb2e <_fflush_r+0x1e>
    bb2a:	f000 f85f 	bl	bbec <__sinit>
    bb2e:	4b0b      	ldr	r3, [pc, #44]	; (bb5c <_fflush_r+0x4c>)
    bb30:	429c      	cmp	r4, r3
    bb32:	d109      	bne.n	bb48 <_fflush_r+0x38>
    bb34:	686c      	ldr	r4, [r5, #4]
    bb36:	220c      	movs	r2, #12
    bb38:	5ea3      	ldrsh	r3, [r4, r2]
    bb3a:	2b00      	cmp	r3, #0
    bb3c:	d0ee      	beq.n	bb1c <_fflush_r+0xc>
    bb3e:	0021      	movs	r1, r4
    bb40:	0028      	movs	r0, r5
    bb42:	f7ff ff5b 	bl	b9fc <__sflush_r>
    bb46:	e7ea      	b.n	bb1e <_fflush_r+0xe>
    bb48:	4b05      	ldr	r3, [pc, #20]	; (bb60 <_fflush_r+0x50>)
    bb4a:	429c      	cmp	r4, r3
    bb4c:	d101      	bne.n	bb52 <_fflush_r+0x42>
    bb4e:	68ac      	ldr	r4, [r5, #8]
    bb50:	e7f1      	b.n	bb36 <_fflush_r+0x26>
    bb52:	4b04      	ldr	r3, [pc, #16]	; (bb64 <_fflush_r+0x54>)
    bb54:	429c      	cmp	r4, r3
    bb56:	d1ee      	bne.n	bb36 <_fflush_r+0x26>
    bb58:	68ec      	ldr	r4, [r5, #12]
    bb5a:	e7ec      	b.n	bb36 <_fflush_r+0x26>
    bb5c:	0000dcfc 	.word	0x0000dcfc
    bb60:	0000dd1c 	.word	0x0000dd1c
    bb64:	0000dcdc 	.word	0x0000dcdc

0000bb68 <_cleanup_r>:
    bb68:	b510      	push	{r4, lr}
    bb6a:	4902      	ldr	r1, [pc, #8]	; (bb74 <_cleanup_r+0xc>)
    bb6c:	f000 f8b2 	bl	bcd4 <_fwalk_reent>
    bb70:	bd10      	pop	{r4, pc}
    bb72:	46c0      	nop			; (mov r8, r8)
    bb74:	0000bb11 	.word	0x0000bb11

0000bb78 <std.isra.0>:
    bb78:	2300      	movs	r3, #0
    bb7a:	b510      	push	{r4, lr}
    bb7c:	0004      	movs	r4, r0
    bb7e:	6003      	str	r3, [r0, #0]
    bb80:	6043      	str	r3, [r0, #4]
    bb82:	6083      	str	r3, [r0, #8]
    bb84:	8181      	strh	r1, [r0, #12]
    bb86:	6643      	str	r3, [r0, #100]	; 0x64
    bb88:	81c2      	strh	r2, [r0, #14]
    bb8a:	6103      	str	r3, [r0, #16]
    bb8c:	6143      	str	r3, [r0, #20]
    bb8e:	6183      	str	r3, [r0, #24]
    bb90:	0019      	movs	r1, r3
    bb92:	2208      	movs	r2, #8
    bb94:	305c      	adds	r0, #92	; 0x5c
    bb96:	f7ff fb38 	bl	b20a <memset>
    bb9a:	4b05      	ldr	r3, [pc, #20]	; (bbb0 <std.isra.0+0x38>)
    bb9c:	6224      	str	r4, [r4, #32]
    bb9e:	6263      	str	r3, [r4, #36]	; 0x24
    bba0:	4b04      	ldr	r3, [pc, #16]	; (bbb4 <std.isra.0+0x3c>)
    bba2:	62a3      	str	r3, [r4, #40]	; 0x28
    bba4:	4b04      	ldr	r3, [pc, #16]	; (bbb8 <std.isra.0+0x40>)
    bba6:	62e3      	str	r3, [r4, #44]	; 0x2c
    bba8:	4b04      	ldr	r3, [pc, #16]	; (bbbc <std.isra.0+0x44>)
    bbaa:	6323      	str	r3, [r4, #48]	; 0x30
    bbac:	bd10      	pop	{r4, pc}
    bbae:	46c0      	nop			; (mov r8, r8)
    bbb0:	0000c6ed 	.word	0x0000c6ed
    bbb4:	0000c715 	.word	0x0000c715
    bbb8:	0000c74d 	.word	0x0000c74d
    bbbc:	0000c779 	.word	0x0000c779

0000bbc0 <__sfmoreglue>:
    bbc0:	b570      	push	{r4, r5, r6, lr}
    bbc2:	2568      	movs	r5, #104	; 0x68
    bbc4:	1e4a      	subs	r2, r1, #1
    bbc6:	4355      	muls	r5, r2
    bbc8:	000e      	movs	r6, r1
    bbca:	0029      	movs	r1, r5
    bbcc:	3174      	adds	r1, #116	; 0x74
    bbce:	f7ff fb6f 	bl	b2b0 <_malloc_r>
    bbd2:	1e04      	subs	r4, r0, #0
    bbd4:	d008      	beq.n	bbe8 <__sfmoreglue+0x28>
    bbd6:	2100      	movs	r1, #0
    bbd8:	002a      	movs	r2, r5
    bbda:	6001      	str	r1, [r0, #0]
    bbdc:	6046      	str	r6, [r0, #4]
    bbde:	300c      	adds	r0, #12
    bbe0:	60a0      	str	r0, [r4, #8]
    bbe2:	3268      	adds	r2, #104	; 0x68
    bbe4:	f7ff fb11 	bl	b20a <memset>
    bbe8:	0020      	movs	r0, r4
    bbea:	bd70      	pop	{r4, r5, r6, pc}

0000bbec <__sinit>:
    bbec:	6983      	ldr	r3, [r0, #24]
    bbee:	b513      	push	{r0, r1, r4, lr}
    bbf0:	0004      	movs	r4, r0
    bbf2:	2b00      	cmp	r3, #0
    bbf4:	d128      	bne.n	bc48 <__sinit+0x5c>
    bbf6:	6483      	str	r3, [r0, #72]	; 0x48
    bbf8:	64c3      	str	r3, [r0, #76]	; 0x4c
    bbfa:	6503      	str	r3, [r0, #80]	; 0x50
    bbfc:	4b13      	ldr	r3, [pc, #76]	; (bc4c <__sinit+0x60>)
    bbfe:	4a14      	ldr	r2, [pc, #80]	; (bc50 <__sinit+0x64>)
    bc00:	681b      	ldr	r3, [r3, #0]
    bc02:	6282      	str	r2, [r0, #40]	; 0x28
    bc04:	9301      	str	r3, [sp, #4]
    bc06:	4298      	cmp	r0, r3
    bc08:	d101      	bne.n	bc0e <__sinit+0x22>
    bc0a:	2301      	movs	r3, #1
    bc0c:	6183      	str	r3, [r0, #24]
    bc0e:	0020      	movs	r0, r4
    bc10:	f000 f820 	bl	bc54 <__sfp>
    bc14:	6060      	str	r0, [r4, #4]
    bc16:	0020      	movs	r0, r4
    bc18:	f000 f81c 	bl	bc54 <__sfp>
    bc1c:	60a0      	str	r0, [r4, #8]
    bc1e:	0020      	movs	r0, r4
    bc20:	f000 f818 	bl	bc54 <__sfp>
    bc24:	2200      	movs	r2, #0
    bc26:	60e0      	str	r0, [r4, #12]
    bc28:	2104      	movs	r1, #4
    bc2a:	6860      	ldr	r0, [r4, #4]
    bc2c:	f7ff ffa4 	bl	bb78 <std.isra.0>
    bc30:	2201      	movs	r2, #1
    bc32:	2109      	movs	r1, #9
    bc34:	68a0      	ldr	r0, [r4, #8]
    bc36:	f7ff ff9f 	bl	bb78 <std.isra.0>
    bc3a:	2202      	movs	r2, #2
    bc3c:	2112      	movs	r1, #18
    bc3e:	68e0      	ldr	r0, [r4, #12]
    bc40:	f7ff ff9a 	bl	bb78 <std.isra.0>
    bc44:	2301      	movs	r3, #1
    bc46:	61a3      	str	r3, [r4, #24]
    bc48:	bd13      	pop	{r0, r1, r4, pc}
    bc4a:	46c0      	nop			; (mov r8, r8)
    bc4c:	0000dcd8 	.word	0x0000dcd8
    bc50:	0000bb69 	.word	0x0000bb69

0000bc54 <__sfp>:
    bc54:	b5f8      	push	{r3, r4, r5, r6, r7, lr}
    bc56:	4b1e      	ldr	r3, [pc, #120]	; (bcd0 <__sfp+0x7c>)
    bc58:	0007      	movs	r7, r0
    bc5a:	681e      	ldr	r6, [r3, #0]
    bc5c:	69b3      	ldr	r3, [r6, #24]
    bc5e:	2b00      	cmp	r3, #0
    bc60:	d102      	bne.n	bc68 <__sfp+0x14>
    bc62:	0030      	movs	r0, r6
    bc64:	f7ff ffc2 	bl	bbec <__sinit>
    bc68:	3648      	adds	r6, #72	; 0x48
    bc6a:	68b4      	ldr	r4, [r6, #8]
    bc6c:	6873      	ldr	r3, [r6, #4]
    bc6e:	3b01      	subs	r3, #1
    bc70:	d504      	bpl.n	bc7c <__sfp+0x28>
    bc72:	6833      	ldr	r3, [r6, #0]
    bc74:	2b00      	cmp	r3, #0
    bc76:	d007      	beq.n	bc88 <__sfp+0x34>
    bc78:	6836      	ldr	r6, [r6, #0]
    bc7a:	e7f6      	b.n	bc6a <__sfp+0x16>
    bc7c:	220c      	movs	r2, #12
    bc7e:	5ea5      	ldrsh	r5, [r4, r2]
    bc80:	2d00      	cmp	r5, #0
    bc82:	d00d      	beq.n	bca0 <__sfp+0x4c>
    bc84:	3468      	adds	r4, #104	; 0x68
    bc86:	e7f2      	b.n	bc6e <__sfp+0x1a>
    bc88:	2104      	movs	r1, #4
    bc8a:	0038      	movs	r0, r7
    bc8c:	f7ff ff98 	bl	bbc0 <__sfmoreglue>
    bc90:	6030      	str	r0, [r6, #0]
    bc92:	2800      	cmp	r0, #0
    bc94:	d1f0      	bne.n	bc78 <__sfp+0x24>
    bc96:	230c      	movs	r3, #12
    bc98:	0004      	movs	r4, r0
    bc9a:	603b      	str	r3, [r7, #0]
    bc9c:	0020      	movs	r0, r4
    bc9e:	bdf8      	pop	{r3, r4, r5, r6, r7, pc}
    bca0:	2301      	movs	r3, #1
    bca2:	0020      	movs	r0, r4
    bca4:	425b      	negs	r3, r3
    bca6:	81e3      	strh	r3, [r4, #14]
    bca8:	3302      	adds	r3, #2
    bcaa:	81a3      	strh	r3, [r4, #12]
    bcac:	6665      	str	r5, [r4, #100]	; 0x64
    bcae:	6025      	str	r5, [r4, #0]
    bcb0:	60a5      	str	r5, [r4, #8]
    bcb2:	6065      	str	r5, [r4, #4]
    bcb4:	6125      	str	r5, [r4, #16]
    bcb6:	6165      	str	r5, [r4, #20]
    bcb8:	61a5      	str	r5, [r4, #24]
    bcba:	2208      	movs	r2, #8
    bcbc:	0029      	movs	r1, r5
    bcbe:	305c      	adds	r0, #92	; 0x5c
    bcc0:	f7ff faa3 	bl	b20a <memset>
    bcc4:	6365      	str	r5, [r4, #52]	; 0x34
    bcc6:	63a5      	str	r5, [r4, #56]	; 0x38
    bcc8:	64a5      	str	r5, [r4, #72]	; 0x48
    bcca:	64e5      	str	r5, [r4, #76]	; 0x4c
    bccc:	e7e6      	b.n	bc9c <__sfp+0x48>
    bcce:	46c0      	nop			; (mov r8, r8)
    bcd0:	0000dcd8 	.word	0x0000dcd8

0000bcd4 <_fwalk_reent>:
    bcd4:	b5f7      	push	{r0, r1, r2, r4, r5, r6, r7, lr}
    bcd6:	0004      	movs	r4, r0
    bcd8:	0007      	movs	r7, r0
    bcda:	2600      	movs	r6, #0
    bcdc:	9101      	str	r1, [sp, #4]
    bcde:	3448      	adds	r4, #72	; 0x48
    bce0:	2c00      	cmp	r4, #0
    bce2:	d101      	bne.n	bce8 <_fwalk_reent+0x14>
    bce4:	0030      	movs	r0, r6
    bce6:	bdfe      	pop	{r1, r2, r3, r4, r5, r6, r7, pc}
    bce8:	6863      	ldr	r3, [r4, #4]
    bcea:	68a5      	ldr	r5, [r4, #8]
    bcec:	9300      	str	r3, [sp, #0]
    bcee:	9b00      	ldr	r3, [sp, #0]
    bcf0:	3b01      	subs	r3, #1
    bcf2:	9300      	str	r3, [sp, #0]
    bcf4:	d501      	bpl.n	bcfa <_fwalk_reent+0x26>
    bcf6:	6824      	ldr	r4, [r4, #0]
    bcf8:	e7f2      	b.n	bce0 <_fwalk_reent+0xc>
    bcfa:	89ab      	ldrh	r3, [r5, #12]
    bcfc:	2b01      	cmp	r3, #1
    bcfe:	d908      	bls.n	bd12 <_fwalk_reent+0x3e>
    bd00:	220e      	movs	r2, #14
    bd02:	5eab      	ldrsh	r3, [r5, r2]
    bd04:	3301      	adds	r3, #1
    bd06:	d004      	beq.n	bd12 <_fwalk_reent+0x3e>
    bd08:	0029      	movs	r1, r5
    bd0a:	0038      	movs	r0, r7
    bd0c:	9b01      	ldr	r3, [sp, #4]
    bd0e:	4798      	blx	r3
    bd10:	4306      	orrs	r6, r0
    bd12:	3568      	adds	r5, #104	; 0x68
    bd14:	e7eb      	b.n	bcee <_fwalk_reent+0x1a>

0000bd16 <__locale_ctype_ptr_l>:
    bd16:	30ec      	adds	r0, #236	; 0xec
    bd18:	6800      	ldr	r0, [r0, #0]
    bd1a:	4770      	bx	lr

0000bd1c <__swhatbuf_r>:
    bd1c:	b570      	push	{r4, r5, r6, lr}
    bd1e:	000e      	movs	r6, r1
    bd20:	001d      	movs	r5, r3
    bd22:	230e      	movs	r3, #14
    bd24:	5ec9      	ldrsh	r1, [r1, r3]
    bd26:	b090      	sub	sp, #64	; 0x40
    bd28:	0014      	movs	r4, r2
    bd2a:	2900      	cmp	r1, #0
    bd2c:	da07      	bge.n	bd3e <__swhatbuf_r+0x22>
    bd2e:	2300      	movs	r3, #0
    bd30:	602b      	str	r3, [r5, #0]
    bd32:	89b3      	ldrh	r3, [r6, #12]
    bd34:	061b      	lsls	r3, r3, #24
    bd36:	d411      	bmi.n	bd5c <__swhatbuf_r+0x40>
    bd38:	2380      	movs	r3, #128	; 0x80
    bd3a:	00db      	lsls	r3, r3, #3
    bd3c:	e00f      	b.n	bd5e <__swhatbuf_r+0x42>
    bd3e:	aa01      	add	r2, sp, #4
    bd40:	f000 fd52 	bl	c7e8 <_fstat_r>
    bd44:	2800      	cmp	r0, #0
    bd46:	dbf2      	blt.n	bd2e <__swhatbuf_r+0x12>
    bd48:	22f0      	movs	r2, #240	; 0xf0
    bd4a:	9b02      	ldr	r3, [sp, #8]
    bd4c:	0212      	lsls	r2, r2, #8
    bd4e:	4013      	ands	r3, r2
    bd50:	4a05      	ldr	r2, [pc, #20]	; (bd68 <__swhatbuf_r+0x4c>)
    bd52:	189b      	adds	r3, r3, r2
    bd54:	425a      	negs	r2, r3
    bd56:	4153      	adcs	r3, r2
    bd58:	602b      	str	r3, [r5, #0]
    bd5a:	e7ed      	b.n	bd38 <__swhatbuf_r+0x1c>
    bd5c:	2340      	movs	r3, #64	; 0x40
    bd5e:	2000      	movs	r0, #0
    bd60:	6023      	str	r3, [r4, #0]
    bd62:	b010      	add	sp, #64	; 0x40
    bd64:	bd70      	pop	{r4, r5, r6, pc}
    bd66:	46c0      	nop			; (mov r8, r8)
    bd68:	ffffe000 	.word	0xffffe000

0000bd6c <__smakebuf_r>:
    bd6c:	b5f7      	push	{r0, r1, r2, r4, r5, r6, r7, lr}
    bd6e:	2602      	movs	r6, #2
    bd70:	898b      	ldrh	r3, [r1, #12]
    bd72:	0005      	movs	r5, r0
    bd74:	000c      	movs	r4, r1
    bd76:	4233      	tst	r3, r6
    bd78:	d006      	beq.n	bd88 <__smakebuf_r+0x1c>
    bd7a:	0023      	movs	r3, r4
    bd7c:	3347      	adds	r3, #71	; 0x47
    bd7e:	6023      	str	r3, [r4, #0]
    bd80:	6123      	str	r3, [r4, #16]
    bd82:	2301      	movs	r3, #1
    bd84:	6163      	str	r3, [r4, #20]
    bd86:	bdf7      	pop	{r0, r1, r2, r4, r5, r6, r7, pc}
    bd88:	ab01      	add	r3, sp, #4
    bd8a:	466a      	mov	r2, sp
    bd8c:	f7ff ffc6 	bl	bd1c <__swhatbuf_r>
    bd90:	9900      	ldr	r1, [sp, #0]
    bd92:	0007      	movs	r7, r0
    bd94:	0028      	movs	r0, r5
    bd96:	f7ff fa8b 	bl	b2b0 <_malloc_r>
    bd9a:	2800      	cmp	r0, #0
    bd9c:	d108      	bne.n	bdb0 <__smakebuf_r+0x44>
    bd9e:	220c      	movs	r2, #12
    bda0:	5ea3      	ldrsh	r3, [r4, r2]
    bda2:	059a      	lsls	r2, r3, #22
    bda4:	d4ef      	bmi.n	bd86 <__smakebuf_r+0x1a>
    bda6:	2203      	movs	r2, #3
    bda8:	4393      	bics	r3, r2
    bdaa:	431e      	orrs	r6, r3
    bdac:	81a6      	strh	r6, [r4, #12]
    bdae:	e7e4      	b.n	bd7a <__smakebuf_r+0xe>
    bdb0:	4b0f      	ldr	r3, [pc, #60]	; (bdf0 <__smakebuf_r+0x84>)
    bdb2:	62ab      	str	r3, [r5, #40]	; 0x28
    bdb4:	2380      	movs	r3, #128	; 0x80
    bdb6:	89a2      	ldrh	r2, [r4, #12]
    bdb8:	6020      	str	r0, [r4, #0]
    bdba:	4313      	orrs	r3, r2
    bdbc:	81a3      	strh	r3, [r4, #12]
    bdbe:	9b00      	ldr	r3, [sp, #0]
    bdc0:	6120      	str	r0, [r4, #16]
    bdc2:	6163      	str	r3, [r4, #20]
    bdc4:	9b01      	ldr	r3, [sp, #4]
    bdc6:	2b00      	cmp	r3, #0
    bdc8:	d00d      	beq.n	bde6 <__smakebuf_r+0x7a>
    bdca:	230e      	movs	r3, #14
    bdcc:	5ee1      	ldrsh	r1, [r4, r3]
    bdce:	0028      	movs	r0, r5
    bdd0:	f000 fd1c 	bl	c80c <_isatty_r>
    bdd4:	2800      	cmp	r0, #0
    bdd6:	d006      	beq.n	bde6 <__smakebuf_r+0x7a>
    bdd8:	2203      	movs	r2, #3
    bdda:	89a3      	ldrh	r3, [r4, #12]
    bddc:	4393      	bics	r3, r2
    bdde:	001a      	movs	r2, r3
    bde0:	2301      	movs	r3, #1
    bde2:	4313      	orrs	r3, r2
    bde4:	81a3      	strh	r3, [r4, #12]
    bde6:	89a0      	ldrh	r0, [r4, #12]
    bde8:	4338      	orrs	r0, r7
    bdea:	81a0      	strh	r0, [r4, #12]
    bdec:	e7cb      	b.n	bd86 <__smakebuf_r+0x1a>
    bdee:	46c0      	nop			; (mov r8, r8)
    bdf0:	0000bb69 	.word	0x0000bb69

0000bdf4 <__ascii_mbtowc>:
    bdf4:	b082      	sub	sp, #8
    bdf6:	2900      	cmp	r1, #0
    bdf8:	d100      	bne.n	bdfc <__ascii_mbtowc+0x8>
    bdfa:	a901      	add	r1, sp, #4
    bdfc:	1e10      	subs	r0, r2, #0
    bdfe:	d006      	beq.n	be0e <__ascii_mbtowc+0x1a>
    be00:	2b00      	cmp	r3, #0
    be02:	d006      	beq.n	be12 <__ascii_mbtowc+0x1e>
    be04:	7813      	ldrb	r3, [r2, #0]
    be06:	600b      	str	r3, [r1, #0]
    be08:	7810      	ldrb	r0, [r2, #0]
    be0a:	1e43      	subs	r3, r0, #1
    be0c:	4198      	sbcs	r0, r3
    be0e:	b002      	add	sp, #8
    be10:	4770      	bx	lr
    be12:	2002      	movs	r0, #2
    be14:	4240      	negs	r0, r0
    be16:	e7fa      	b.n	be0e <__ascii_mbtowc+0x1a>

0000be18 <__malloc_lock>:
    be18:	4770      	bx	lr

0000be1a <__malloc_unlock>:
    be1a:	4770      	bx	lr

0000be1c <__ssputs_r>:
    be1c:	b5f0      	push	{r4, r5, r6, r7, lr}
    be1e:	688e      	ldr	r6, [r1, #8]
    be20:	b085      	sub	sp, #20
    be22:	0007      	movs	r7, r0
    be24:	000c      	movs	r4, r1
    be26:	9203      	str	r2, [sp, #12]
    be28:	9301      	str	r3, [sp, #4]
    be2a:	429e      	cmp	r6, r3
    be2c:	d839      	bhi.n	bea2 <__ssputs_r+0x86>
    be2e:	2390      	movs	r3, #144	; 0x90
    be30:	898a      	ldrh	r2, [r1, #12]
    be32:	00db      	lsls	r3, r3, #3
    be34:	421a      	tst	r2, r3
    be36:	d034      	beq.n	bea2 <__ssputs_r+0x86>
    be38:	2503      	movs	r5, #3
    be3a:	6909      	ldr	r1, [r1, #16]
    be3c:	6823      	ldr	r3, [r4, #0]
    be3e:	1a5b      	subs	r3, r3, r1
    be40:	9302      	str	r3, [sp, #8]
    be42:	6963      	ldr	r3, [r4, #20]
    be44:	9802      	ldr	r0, [sp, #8]
    be46:	435d      	muls	r5, r3
    be48:	0feb      	lsrs	r3, r5, #31
    be4a:	195d      	adds	r5, r3, r5
    be4c:	9b01      	ldr	r3, [sp, #4]
    be4e:	106d      	asrs	r5, r5, #1
    be50:	3301      	adds	r3, #1
    be52:	181b      	adds	r3, r3, r0
    be54:	42ab      	cmp	r3, r5
    be56:	d900      	bls.n	be5a <__ssputs_r+0x3e>
    be58:	001d      	movs	r5, r3
    be5a:	0553      	lsls	r3, r2, #21
    be5c:	d532      	bpl.n	bec4 <__ssputs_r+0xa8>
    be5e:	0029      	movs	r1, r5
    be60:	0038      	movs	r0, r7
    be62:	f7ff fa25 	bl	b2b0 <_malloc_r>
    be66:	1e06      	subs	r6, r0, #0
    be68:	d109      	bne.n	be7e <__ssputs_r+0x62>
    be6a:	230c      	movs	r3, #12
    be6c:	603b      	str	r3, [r7, #0]
    be6e:	2340      	movs	r3, #64	; 0x40
    be70:	2001      	movs	r0, #1
    be72:	89a2      	ldrh	r2, [r4, #12]
    be74:	4240      	negs	r0, r0
    be76:	4313      	orrs	r3, r2
    be78:	81a3      	strh	r3, [r4, #12]
    be7a:	b005      	add	sp, #20
    be7c:	bdf0      	pop	{r4, r5, r6, r7, pc}
    be7e:	9a02      	ldr	r2, [sp, #8]
    be80:	6921      	ldr	r1, [r4, #16]
    be82:	f7ff f9a7 	bl	b1d4 <memcpy>
    be86:	89a3      	ldrh	r3, [r4, #12]
    be88:	4a14      	ldr	r2, [pc, #80]	; (bedc <__ssputs_r+0xc0>)
    be8a:	401a      	ands	r2, r3
    be8c:	2380      	movs	r3, #128	; 0x80
    be8e:	4313      	orrs	r3, r2
    be90:	81a3      	strh	r3, [r4, #12]
    be92:	9b02      	ldr	r3, [sp, #8]
    be94:	6126      	str	r6, [r4, #16]
    be96:	18f6      	adds	r6, r6, r3
    be98:	6026      	str	r6, [r4, #0]
    be9a:	6165      	str	r5, [r4, #20]
    be9c:	9e01      	ldr	r6, [sp, #4]
    be9e:	1aed      	subs	r5, r5, r3
    bea0:	60a5      	str	r5, [r4, #8]
    bea2:	9b01      	ldr	r3, [sp, #4]
    bea4:	42b3      	cmp	r3, r6
    bea6:	d200      	bcs.n	beaa <__ssputs_r+0x8e>
    bea8:	001e      	movs	r6, r3
    beaa:	0032      	movs	r2, r6
    beac:	9903      	ldr	r1, [sp, #12]
    beae:	6820      	ldr	r0, [r4, #0]
    beb0:	f7ff f999 	bl	b1e6 <memmove>
    beb4:	68a3      	ldr	r3, [r4, #8]
    beb6:	2000      	movs	r0, #0
    beb8:	1b9b      	subs	r3, r3, r6
    beba:	60a3      	str	r3, [r4, #8]
    bebc:	6823      	ldr	r3, [r4, #0]
    bebe:	199e      	adds	r6, r3, r6
    bec0:	6026      	str	r6, [r4, #0]
    bec2:	e7da      	b.n	be7a <__ssputs_r+0x5e>
    bec4:	002a      	movs	r2, r5
    bec6:	0038      	movs	r0, r7
    bec8:	f000 fcd1 	bl	c86e <_realloc_r>
    becc:	1e06      	subs	r6, r0, #0
    bece:	d1e0      	bne.n	be92 <__ssputs_r+0x76>
    bed0:	6921      	ldr	r1, [r4, #16]
    bed2:	0038      	movs	r0, r7
    bed4:	f7ff f9a2 	bl	b21c <_free_r>
    bed8:	e7c7      	b.n	be6a <__ssputs_r+0x4e>
    beda:	46c0      	nop			; (mov r8, r8)
    bedc:	fffffb7f 	.word	0xfffffb7f

0000bee0 <_svfiprintf_r>:
    bee0:	b5f0      	push	{r4, r5, r6, r7, lr}
    bee2:	b09f      	sub	sp, #124	; 0x7c
    bee4:	9002      	str	r0, [sp, #8]
    bee6:	9305      	str	r3, [sp, #20]
    bee8:	898b      	ldrh	r3, [r1, #12]
    beea:	000f      	movs	r7, r1
    beec:	0016      	movs	r6, r2
    beee:	061b      	lsls	r3, r3, #24
    bef0:	d511      	bpl.n	bf16 <_svfiprintf_r+0x36>
    bef2:	690b      	ldr	r3, [r1, #16]
    bef4:	2b00      	cmp	r3, #0
    bef6:	d10e      	bne.n	bf16 <_svfiprintf_r+0x36>
    bef8:	2140      	movs	r1, #64	; 0x40
    befa:	f7ff f9d9 	bl	b2b0 <_malloc_r>
    befe:	6038      	str	r0, [r7, #0]
    bf00:	6138      	str	r0, [r7, #16]
    bf02:	2800      	cmp	r0, #0
    bf04:	d105      	bne.n	bf12 <_svfiprintf_r+0x32>
    bf06:	230c      	movs	r3, #12
    bf08:	9a02      	ldr	r2, [sp, #8]
    bf0a:	3801      	subs	r0, #1
    bf0c:	6013      	str	r3, [r2, #0]
    bf0e:	b01f      	add	sp, #124	; 0x7c
    bf10:	bdf0      	pop	{r4, r5, r6, r7, pc}
    bf12:	2340      	movs	r3, #64	; 0x40
    bf14:	617b      	str	r3, [r7, #20]
    bf16:	2300      	movs	r3, #0
    bf18:	ad06      	add	r5, sp, #24
    bf1a:	616b      	str	r3, [r5, #20]
    bf1c:	3320      	adds	r3, #32
    bf1e:	766b      	strb	r3, [r5, #25]
    bf20:	3310      	adds	r3, #16
    bf22:	76ab      	strb	r3, [r5, #26]
    bf24:	0034      	movs	r4, r6
    bf26:	7823      	ldrb	r3, [r4, #0]
    bf28:	2b00      	cmp	r3, #0
    bf2a:	d147      	bne.n	bfbc <_svfiprintf_r+0xdc>
    bf2c:	1ba3      	subs	r3, r4, r6
    bf2e:	9304      	str	r3, [sp, #16]
    bf30:	d00d      	beq.n	bf4e <_svfiprintf_r+0x6e>
    bf32:	1ba3      	subs	r3, r4, r6
    bf34:	0032      	movs	r2, r6
    bf36:	0039      	movs	r1, r7
    bf38:	9802      	ldr	r0, [sp, #8]
    bf3a:	f7ff ff6f 	bl	be1c <__ssputs_r>
    bf3e:	1c43      	adds	r3, r0, #1
    bf40:	d100      	bne.n	bf44 <_svfiprintf_r+0x64>
    bf42:	e0b5      	b.n	c0b0 <_svfiprintf_r+0x1d0>
    bf44:	696a      	ldr	r2, [r5, #20]
    bf46:	9b04      	ldr	r3, [sp, #16]
    bf48:	4694      	mov	ip, r2
    bf4a:	4463      	add	r3, ip
    bf4c:	616b      	str	r3, [r5, #20]
    bf4e:	7823      	ldrb	r3, [r4, #0]
    bf50:	2b00      	cmp	r3, #0
    bf52:	d100      	bne.n	bf56 <_svfiprintf_r+0x76>
    bf54:	e0ac      	b.n	c0b0 <_svfiprintf_r+0x1d0>
    bf56:	2201      	movs	r2, #1
    bf58:	2300      	movs	r3, #0
    bf5a:	4252      	negs	r2, r2
    bf5c:	606a      	str	r2, [r5, #4]
    bf5e:	a902      	add	r1, sp, #8
    bf60:	3254      	adds	r2, #84	; 0x54
    bf62:	1852      	adds	r2, r2, r1
    bf64:	3401      	adds	r4, #1
    bf66:	602b      	str	r3, [r5, #0]
    bf68:	60eb      	str	r3, [r5, #12]
    bf6a:	60ab      	str	r3, [r5, #8]
    bf6c:	7013      	strb	r3, [r2, #0]
    bf6e:	65ab      	str	r3, [r5, #88]	; 0x58
    bf70:	4e58      	ldr	r6, [pc, #352]	; (c0d4 <_svfiprintf_r+0x1f4>)
    bf72:	2205      	movs	r2, #5
    bf74:	7821      	ldrb	r1, [r4, #0]
    bf76:	0030      	movs	r0, r6
    bf78:	f000 fc6e 	bl	c858 <memchr>
    bf7c:	1c62      	adds	r2, r4, #1
    bf7e:	2800      	cmp	r0, #0
    bf80:	d120      	bne.n	bfc4 <_svfiprintf_r+0xe4>
    bf82:	6829      	ldr	r1, [r5, #0]
    bf84:	06cb      	lsls	r3, r1, #27
    bf86:	d504      	bpl.n	bf92 <_svfiprintf_r+0xb2>
    bf88:	2353      	movs	r3, #83	; 0x53
    bf8a:	ae02      	add	r6, sp, #8
    bf8c:	3020      	adds	r0, #32
    bf8e:	199b      	adds	r3, r3, r6
    bf90:	7018      	strb	r0, [r3, #0]
    bf92:	070b      	lsls	r3, r1, #28
    bf94:	d504      	bpl.n	bfa0 <_svfiprintf_r+0xc0>
    bf96:	2353      	movs	r3, #83	; 0x53
    bf98:	202b      	movs	r0, #43	; 0x2b
    bf9a:	ae02      	add	r6, sp, #8
    bf9c:	199b      	adds	r3, r3, r6
    bf9e:	7018      	strb	r0, [r3, #0]
    bfa0:	7823      	ldrb	r3, [r4, #0]
    bfa2:	2b2a      	cmp	r3, #42	; 0x2a
    bfa4:	d016      	beq.n	bfd4 <_svfiprintf_r+0xf4>
    bfa6:	2000      	movs	r0, #0
    bfa8:	210a      	movs	r1, #10
    bfaa:	9b09      	ldr	r3, [sp, #36]	; 0x24
    bfac:	7822      	ldrb	r2, [r4, #0]
    bfae:	3a30      	subs	r2, #48	; 0x30
    bfb0:	2a09      	cmp	r2, #9
    bfb2:	d955      	bls.n	c060 <_svfiprintf_r+0x180>
    bfb4:	2800      	cmp	r0, #0
    bfb6:	d015      	beq.n	bfe4 <_svfiprintf_r+0x104>
    bfb8:	9309      	str	r3, [sp, #36]	; 0x24
    bfba:	e013      	b.n	bfe4 <_svfiprintf_r+0x104>
    bfbc:	2b25      	cmp	r3, #37	; 0x25
    bfbe:	d0b5      	beq.n	bf2c <_svfiprintf_r+0x4c>
    bfc0:	3401      	adds	r4, #1
    bfc2:	e7b0      	b.n	bf26 <_svfiprintf_r+0x46>
    bfc4:	2301      	movs	r3, #1
    bfc6:	1b80      	subs	r0, r0, r6
    bfc8:	4083      	lsls	r3, r0
    bfca:	6829      	ldr	r1, [r5, #0]
    bfcc:	0014      	movs	r4, r2
    bfce:	430b      	orrs	r3, r1
    bfd0:	602b      	str	r3, [r5, #0]
    bfd2:	e7cd      	b.n	bf70 <_svfiprintf_r+0x90>
    bfd4:	9b05      	ldr	r3, [sp, #20]
    bfd6:	1d18      	adds	r0, r3, #4
    bfd8:	681b      	ldr	r3, [r3, #0]
    bfda:	9005      	str	r0, [sp, #20]
    bfdc:	2b00      	cmp	r3, #0
    bfde:	db39      	blt.n	c054 <_svfiprintf_r+0x174>
    bfe0:	9309      	str	r3, [sp, #36]	; 0x24
    bfe2:	0014      	movs	r4, r2
    bfe4:	7823      	ldrb	r3, [r4, #0]
    bfe6:	2b2e      	cmp	r3, #46	; 0x2e
    bfe8:	d10b      	bne.n	c002 <_svfiprintf_r+0x122>
    bfea:	7863      	ldrb	r3, [r4, #1]
    bfec:	1c62      	adds	r2, r4, #1
    bfee:	2b2a      	cmp	r3, #42	; 0x2a
    bff0:	d13e      	bne.n	c070 <_svfiprintf_r+0x190>
    bff2:	9b05      	ldr	r3, [sp, #20]
    bff4:	3402      	adds	r4, #2
    bff6:	1d1a      	adds	r2, r3, #4
    bff8:	681b      	ldr	r3, [r3, #0]
    bffa:	9205      	str	r2, [sp, #20]
    bffc:	2b00      	cmp	r3, #0
    bffe:	db34      	blt.n	c06a <_svfiprintf_r+0x18a>
    c000:	9307      	str	r3, [sp, #28]
    c002:	4e35      	ldr	r6, [pc, #212]	; (c0d8 <_svfiprintf_r+0x1f8>)
    c004:	7821      	ldrb	r1, [r4, #0]
    c006:	2203      	movs	r2, #3
    c008:	0030      	movs	r0, r6
    c00a:	f000 fc25 	bl	c858 <memchr>
    c00e:	2800      	cmp	r0, #0
    c010:	d006      	beq.n	c020 <_svfiprintf_r+0x140>
    c012:	2340      	movs	r3, #64	; 0x40
    c014:	1b80      	subs	r0, r0, r6
    c016:	4083      	lsls	r3, r0
    c018:	682a      	ldr	r2, [r5, #0]
    c01a:	3401      	adds	r4, #1
    c01c:	4313      	orrs	r3, r2
    c01e:	602b      	str	r3, [r5, #0]
    c020:	7821      	ldrb	r1, [r4, #0]
    c022:	2206      	movs	r2, #6
    c024:	482d      	ldr	r0, [pc, #180]	; (c0dc <_svfiprintf_r+0x1fc>)
    c026:	1c66      	adds	r6, r4, #1
    c028:	7629      	strb	r1, [r5, #24]
    c02a:	f000 fc15 	bl	c858 <memchr>
    c02e:	2800      	cmp	r0, #0
    c030:	d046      	beq.n	c0c0 <_svfiprintf_r+0x1e0>
    c032:	4b2b      	ldr	r3, [pc, #172]	; (c0e0 <_svfiprintf_r+0x200>)
    c034:	2b00      	cmp	r3, #0
    c036:	d12f      	bne.n	c098 <_svfiprintf_r+0x1b8>
    c038:	6829      	ldr	r1, [r5, #0]
    c03a:	9b05      	ldr	r3, [sp, #20]
    c03c:	2207      	movs	r2, #7
    c03e:	05c9      	lsls	r1, r1, #23
    c040:	d528      	bpl.n	c094 <_svfiprintf_r+0x1b4>
    c042:	189b      	adds	r3, r3, r2
    c044:	4393      	bics	r3, r2
    c046:	3308      	adds	r3, #8
    c048:	9305      	str	r3, [sp, #20]
    c04a:	696b      	ldr	r3, [r5, #20]
    c04c:	9a03      	ldr	r2, [sp, #12]
    c04e:	189b      	adds	r3, r3, r2
    c050:	616b      	str	r3, [r5, #20]
    c052:	e767      	b.n	bf24 <_svfiprintf_r+0x44>
    c054:	425b      	negs	r3, r3
    c056:	60eb      	str	r3, [r5, #12]
    c058:	2302      	movs	r3, #2
    c05a:	430b      	orrs	r3, r1
    c05c:	602b      	str	r3, [r5, #0]
    c05e:	e7c0      	b.n	bfe2 <_svfiprintf_r+0x102>
    c060:	434b      	muls	r3, r1
    c062:	3401      	adds	r4, #1
    c064:	189b      	adds	r3, r3, r2
    c066:	2001      	movs	r0, #1
    c068:	e7a0      	b.n	bfac <_svfiprintf_r+0xcc>
    c06a:	2301      	movs	r3, #1
    c06c:	425b      	negs	r3, r3
    c06e:	e7c7      	b.n	c000 <_svfiprintf_r+0x120>
    c070:	2300      	movs	r3, #0
    c072:	0014      	movs	r4, r2
    c074:	200a      	movs	r0, #10
    c076:	001a      	movs	r2, r3
    c078:	606b      	str	r3, [r5, #4]
    c07a:	7821      	ldrb	r1, [r4, #0]
    c07c:	3930      	subs	r1, #48	; 0x30
    c07e:	2909      	cmp	r1, #9
    c080:	d903      	bls.n	c08a <_svfiprintf_r+0x1aa>
    c082:	2b00      	cmp	r3, #0
    c084:	d0bd      	beq.n	c002 <_svfiprintf_r+0x122>
    c086:	9207      	str	r2, [sp, #28]
    c088:	e7bb      	b.n	c002 <_svfiprintf_r+0x122>
    c08a:	4342      	muls	r2, r0
    c08c:	3401      	adds	r4, #1
    c08e:	1852      	adds	r2, r2, r1
    c090:	2301      	movs	r3, #1
    c092:	e7f2      	b.n	c07a <_svfiprintf_r+0x19a>
    c094:	3307      	adds	r3, #7
    c096:	e7d5      	b.n	c044 <_svfiprintf_r+0x164>
    c098:	ab05      	add	r3, sp, #20
    c09a:	9300      	str	r3, [sp, #0]
    c09c:	003a      	movs	r2, r7
    c09e:	4b11      	ldr	r3, [pc, #68]	; (c0e4 <_svfiprintf_r+0x204>)
    c0a0:	0029      	movs	r1, r5
    c0a2:	9802      	ldr	r0, [sp, #8]
    c0a4:	e000      	b.n	c0a8 <_svfiprintf_r+0x1c8>
    c0a6:	bf00      	nop
    c0a8:	9003      	str	r0, [sp, #12]
    c0aa:	9b03      	ldr	r3, [sp, #12]
    c0ac:	3301      	adds	r3, #1
    c0ae:	d1cc      	bne.n	c04a <_svfiprintf_r+0x16a>
    c0b0:	89bb      	ldrh	r3, [r7, #12]
    c0b2:	980b      	ldr	r0, [sp, #44]	; 0x2c
    c0b4:	065b      	lsls	r3, r3, #25
    c0b6:	d400      	bmi.n	c0ba <_svfiprintf_r+0x1da>
    c0b8:	e729      	b.n	bf0e <_svfiprintf_r+0x2e>
    c0ba:	2001      	movs	r0, #1
    c0bc:	4240      	negs	r0, r0
    c0be:	e726      	b.n	bf0e <_svfiprintf_r+0x2e>
    c0c0:	ab05      	add	r3, sp, #20
    c0c2:	9300      	str	r3, [sp, #0]
    c0c4:	003a      	movs	r2, r7
    c0c6:	4b07      	ldr	r3, [pc, #28]	; (c0e4 <_svfiprintf_r+0x204>)
    c0c8:	0029      	movs	r1, r5
    c0ca:	9802      	ldr	r0, [sp, #8]
    c0cc:	f000 f9be 	bl	c44c <_printf_i>
    c0d0:	e7ea      	b.n	c0a8 <_svfiprintf_r+0x1c8>
    c0d2:	46c0      	nop			; (mov r8, r8)
    c0d4:	0000dd44 	.word	0x0000dd44
    c0d8:	0000dd4a 	.word	0x0000dd4a
    c0dc:	0000dd4e 	.word	0x0000dd4e
    c0e0:	00000000 	.word	0x00000000
    c0e4:	0000be1d 	.word	0x0000be1d

0000c0e8 <__sfputc_r>:
    c0e8:	6893      	ldr	r3, [r2, #8]
    c0ea:	b510      	push	{r4, lr}
    c0ec:	3b01      	subs	r3, #1
    c0ee:	6093      	str	r3, [r2, #8]
    c0f0:	2b00      	cmp	r3, #0
    c0f2:	da05      	bge.n	c100 <__sfputc_r+0x18>
    c0f4:	6994      	ldr	r4, [r2, #24]
    c0f6:	42a3      	cmp	r3, r4
    c0f8:	db08      	blt.n	c10c <__sfputc_r+0x24>
    c0fa:	b2cb      	uxtb	r3, r1
    c0fc:	2b0a      	cmp	r3, #10
    c0fe:	d005      	beq.n	c10c <__sfputc_r+0x24>
    c100:	6813      	ldr	r3, [r2, #0]
    c102:	1c58      	adds	r0, r3, #1
    c104:	6010      	str	r0, [r2, #0]
    c106:	7019      	strb	r1, [r3, #0]
    c108:	b2c8      	uxtb	r0, r1
    c10a:	bd10      	pop	{r4, pc}
    c10c:	f7ff fbaa 	bl	b864 <__swbuf_r>
    c110:	e7fb      	b.n	c10a <__sfputc_r+0x22>

0000c112 <__sfputs_r>:
    c112:	b5f8      	push	{r3, r4, r5, r6, r7, lr}
    c114:	0006      	movs	r6, r0
    c116:	000f      	movs	r7, r1
    c118:	0014      	movs	r4, r2
    c11a:	18d5      	adds	r5, r2, r3
    c11c:	42ac      	cmp	r4, r5
    c11e:	d101      	bne.n	c124 <__sfputs_r+0x12>
    c120:	2000      	movs	r0, #0
    c122:	e007      	b.n	c134 <__sfputs_r+0x22>
    c124:	7821      	ldrb	r1, [r4, #0]
    c126:	003a      	movs	r2, r7
    c128:	0030      	movs	r0, r6
    c12a:	f7ff ffdd 	bl	c0e8 <__sfputc_r>
    c12e:	3401      	adds	r4, #1
    c130:	1c43      	adds	r3, r0, #1
    c132:	d1f3      	bne.n	c11c <__sfputs_r+0xa>
    c134:	bdf8      	pop	{r3, r4, r5, r6, r7, pc}
	...

0000c138 <_vfiprintf_r>:
    c138:	b5f0      	push	{r4, r5, r6, r7, lr}
    c13a:	b09f      	sub	sp, #124	; 0x7c
    c13c:	0006      	movs	r6, r0
    c13e:	000f      	movs	r7, r1
    c140:	0014      	movs	r4, r2
    c142:	9305      	str	r3, [sp, #20]
    c144:	2800      	cmp	r0, #0
    c146:	d004      	beq.n	c152 <_vfiprintf_r+0x1a>
    c148:	6983      	ldr	r3, [r0, #24]
    c14a:	2b00      	cmp	r3, #0
    c14c:	d101      	bne.n	c152 <_vfiprintf_r+0x1a>
    c14e:	f7ff fd4d 	bl	bbec <__sinit>
    c152:	4b7f      	ldr	r3, [pc, #508]	; (c350 <_vfiprintf_r+0x218>)
    c154:	429f      	cmp	r7, r3
    c156:	d15c      	bne.n	c212 <_vfiprintf_r+0xda>
    c158:	6877      	ldr	r7, [r6, #4]
    c15a:	89bb      	ldrh	r3, [r7, #12]
    c15c:	071b      	lsls	r3, r3, #28
    c15e:	d562      	bpl.n	c226 <_vfiprintf_r+0xee>
    c160:	693b      	ldr	r3, [r7, #16]
    c162:	2b00      	cmp	r3, #0
    c164:	d05f      	beq.n	c226 <_vfiprintf_r+0xee>
    c166:	2300      	movs	r3, #0
    c168:	ad06      	add	r5, sp, #24
    c16a:	616b      	str	r3, [r5, #20]
    c16c:	3320      	adds	r3, #32
    c16e:	766b      	strb	r3, [r5, #25]
    c170:	3310      	adds	r3, #16
    c172:	76ab      	strb	r3, [r5, #26]
    c174:	9402      	str	r4, [sp, #8]
    c176:	9c02      	ldr	r4, [sp, #8]
    c178:	7823      	ldrb	r3, [r4, #0]
    c17a:	2b00      	cmp	r3, #0
    c17c:	d15d      	bne.n	c23a <_vfiprintf_r+0x102>
    c17e:	9b02      	ldr	r3, [sp, #8]
    c180:	1ae3      	subs	r3, r4, r3
    c182:	9304      	str	r3, [sp, #16]
    c184:	d00d      	beq.n	c1a2 <_vfiprintf_r+0x6a>
    c186:	9b04      	ldr	r3, [sp, #16]
    c188:	9a02      	ldr	r2, [sp, #8]
    c18a:	0039      	movs	r1, r7
    c18c:	0030      	movs	r0, r6
    c18e:	f7ff ffc0 	bl	c112 <__sfputs_r>
    c192:	1c43      	adds	r3, r0, #1
    c194:	d100      	bne.n	c198 <_vfiprintf_r+0x60>
    c196:	e0cc      	b.n	c332 <_vfiprintf_r+0x1fa>
    c198:	696a      	ldr	r2, [r5, #20]
    c19a:	9b04      	ldr	r3, [sp, #16]
    c19c:	4694      	mov	ip, r2
    c19e:	4463      	add	r3, ip
    c1a0:	616b      	str	r3, [r5, #20]
    c1a2:	7823      	ldrb	r3, [r4, #0]
    c1a4:	2b00      	cmp	r3, #0
    c1a6:	d100      	bne.n	c1aa <_vfiprintf_r+0x72>
    c1a8:	e0c3      	b.n	c332 <_vfiprintf_r+0x1fa>
    c1aa:	2201      	movs	r2, #1
    c1ac:	2300      	movs	r3, #0
    c1ae:	4252      	negs	r2, r2
    c1b0:	606a      	str	r2, [r5, #4]
    c1b2:	a902      	add	r1, sp, #8
    c1b4:	3254      	adds	r2, #84	; 0x54
    c1b6:	1852      	adds	r2, r2, r1
    c1b8:	3401      	adds	r4, #1
    c1ba:	602b      	str	r3, [r5, #0]
    c1bc:	60eb      	str	r3, [r5, #12]
    c1be:	60ab      	str	r3, [r5, #8]
    c1c0:	7013      	strb	r3, [r2, #0]
    c1c2:	65ab      	str	r3, [r5, #88]	; 0x58
    c1c4:	7821      	ldrb	r1, [r4, #0]
    c1c6:	2205      	movs	r2, #5
    c1c8:	4862      	ldr	r0, [pc, #392]	; (c354 <_vfiprintf_r+0x21c>)
    c1ca:	f000 fb45 	bl	c858 <memchr>
    c1ce:	1c63      	adds	r3, r4, #1
    c1d0:	469c      	mov	ip, r3
    c1d2:	2800      	cmp	r0, #0
    c1d4:	d135      	bne.n	c242 <_vfiprintf_r+0x10a>
    c1d6:	6829      	ldr	r1, [r5, #0]
    c1d8:	06cb      	lsls	r3, r1, #27
    c1da:	d504      	bpl.n	c1e6 <_vfiprintf_r+0xae>
    c1dc:	2353      	movs	r3, #83	; 0x53
    c1de:	aa02      	add	r2, sp, #8
    c1e0:	3020      	adds	r0, #32
    c1e2:	189b      	adds	r3, r3, r2
    c1e4:	7018      	strb	r0, [r3, #0]
    c1e6:	070b      	lsls	r3, r1, #28
    c1e8:	d504      	bpl.n	c1f4 <_vfiprintf_r+0xbc>
    c1ea:	2353      	movs	r3, #83	; 0x53
    c1ec:	202b      	movs	r0, #43	; 0x2b
    c1ee:	aa02      	add	r2, sp, #8
    c1f0:	189b      	adds	r3, r3, r2
    c1f2:	7018      	strb	r0, [r3, #0]
    c1f4:	7823      	ldrb	r3, [r4, #0]
    c1f6:	2b2a      	cmp	r3, #42	; 0x2a
    c1f8:	d02c      	beq.n	c254 <_vfiprintf_r+0x11c>
    c1fa:	2000      	movs	r0, #0
    c1fc:	210a      	movs	r1, #10
    c1fe:	9b09      	ldr	r3, [sp, #36]	; 0x24
    c200:	7822      	ldrb	r2, [r4, #0]
    c202:	3a30      	subs	r2, #48	; 0x30
    c204:	2a09      	cmp	r2, #9
    c206:	d800      	bhi.n	c20a <_vfiprintf_r+0xd2>
    c208:	e06b      	b.n	c2e2 <_vfiprintf_r+0x1aa>
    c20a:	2800      	cmp	r0, #0
    c20c:	d02a      	beq.n	c264 <_vfiprintf_r+0x12c>
    c20e:	9309      	str	r3, [sp, #36]	; 0x24
    c210:	e028      	b.n	c264 <_vfiprintf_r+0x12c>
    c212:	4b51      	ldr	r3, [pc, #324]	; (c358 <_vfiprintf_r+0x220>)
    c214:	429f      	cmp	r7, r3
    c216:	d101      	bne.n	c21c <_vfiprintf_r+0xe4>
    c218:	68b7      	ldr	r7, [r6, #8]
    c21a:	e79e      	b.n	c15a <_vfiprintf_r+0x22>
    c21c:	4b4f      	ldr	r3, [pc, #316]	; (c35c <_vfiprintf_r+0x224>)
    c21e:	429f      	cmp	r7, r3
    c220:	d19b      	bne.n	c15a <_vfiprintf_r+0x22>
    c222:	68f7      	ldr	r7, [r6, #12]
    c224:	e799      	b.n	c15a <_vfiprintf_r+0x22>
    c226:	0039      	movs	r1, r7
    c228:	0030      	movs	r0, r6
    c22a:	f7ff fb71 	bl	b910 <__swsetup_r>
    c22e:	2800      	cmp	r0, #0
    c230:	d099      	beq.n	c166 <_vfiprintf_r+0x2e>
    c232:	2001      	movs	r0, #1
    c234:	4240      	negs	r0, r0
    c236:	b01f      	add	sp, #124	; 0x7c
    c238:	bdf0      	pop	{r4, r5, r6, r7, pc}
    c23a:	2b25      	cmp	r3, #37	; 0x25
    c23c:	d09f      	beq.n	c17e <_vfiprintf_r+0x46>
    c23e:	3401      	adds	r4, #1
    c240:	e79a      	b.n	c178 <_vfiprintf_r+0x40>
    c242:	4b44      	ldr	r3, [pc, #272]	; (c354 <_vfiprintf_r+0x21c>)
    c244:	6829      	ldr	r1, [r5, #0]
    c246:	1ac0      	subs	r0, r0, r3
    c248:	2301      	movs	r3, #1
    c24a:	4083      	lsls	r3, r0
    c24c:	430b      	orrs	r3, r1
    c24e:	602b      	str	r3, [r5, #0]
    c250:	4664      	mov	r4, ip
    c252:	e7b7      	b.n	c1c4 <_vfiprintf_r+0x8c>
    c254:	9b05      	ldr	r3, [sp, #20]
    c256:	1d18      	adds	r0, r3, #4
    c258:	681b      	ldr	r3, [r3, #0]
    c25a:	9005      	str	r0, [sp, #20]
    c25c:	2b00      	cmp	r3, #0
    c25e:	db3a      	blt.n	c2d6 <_vfiprintf_r+0x19e>
    c260:	9309      	str	r3, [sp, #36]	; 0x24
    c262:	4664      	mov	r4, ip
    c264:	7823      	ldrb	r3, [r4, #0]
    c266:	2b2e      	cmp	r3, #46	; 0x2e
    c268:	d10b      	bne.n	c282 <_vfiprintf_r+0x14a>
    c26a:	7863      	ldrb	r3, [r4, #1]
    c26c:	1c62      	adds	r2, r4, #1
    c26e:	2b2a      	cmp	r3, #42	; 0x2a
    c270:	d13f      	bne.n	c2f2 <_vfiprintf_r+0x1ba>
    c272:	9b05      	ldr	r3, [sp, #20]
    c274:	3402      	adds	r4, #2
    c276:	1d1a      	adds	r2, r3, #4
    c278:	681b      	ldr	r3, [r3, #0]
    c27a:	9205      	str	r2, [sp, #20]
    c27c:	2b00      	cmp	r3, #0
    c27e:	db35      	blt.n	c2ec <_vfiprintf_r+0x1b4>
    c280:	9307      	str	r3, [sp, #28]
    c282:	7821      	ldrb	r1, [r4, #0]
    c284:	2203      	movs	r2, #3
    c286:	4836      	ldr	r0, [pc, #216]	; (c360 <_vfiprintf_r+0x228>)
    c288:	f000 fae6 	bl	c858 <memchr>
    c28c:	2800      	cmp	r0, #0
    c28e:	d007      	beq.n	c2a0 <_vfiprintf_r+0x168>
    c290:	4b33      	ldr	r3, [pc, #204]	; (c360 <_vfiprintf_r+0x228>)
    c292:	682a      	ldr	r2, [r5, #0]
    c294:	1ac0      	subs	r0, r0, r3
    c296:	2340      	movs	r3, #64	; 0x40
    c298:	4083      	lsls	r3, r0
    c29a:	4313      	orrs	r3, r2
    c29c:	602b      	str	r3, [r5, #0]
    c29e:	3401      	adds	r4, #1
    c2a0:	7821      	ldrb	r1, [r4, #0]
    c2a2:	1c63      	adds	r3, r4, #1
    c2a4:	2206      	movs	r2, #6
    c2a6:	482f      	ldr	r0, [pc, #188]	; (c364 <_vfiprintf_r+0x22c>)
    c2a8:	9302      	str	r3, [sp, #8]
    c2aa:	7629      	strb	r1, [r5, #24]
    c2ac:	f000 fad4 	bl	c858 <memchr>
    c2b0:	2800      	cmp	r0, #0
    c2b2:	d044      	beq.n	c33e <_vfiprintf_r+0x206>
    c2b4:	4b2c      	ldr	r3, [pc, #176]	; (c368 <_vfiprintf_r+0x230>)
    c2b6:	2b00      	cmp	r3, #0
    c2b8:	d12f      	bne.n	c31a <_vfiprintf_r+0x1e2>
    c2ba:	6829      	ldr	r1, [r5, #0]
    c2bc:	9b05      	ldr	r3, [sp, #20]
    c2be:	2207      	movs	r2, #7
    c2c0:	05c9      	lsls	r1, r1, #23
    c2c2:	d528      	bpl.n	c316 <_vfiprintf_r+0x1de>
    c2c4:	189b      	adds	r3, r3, r2
    c2c6:	4393      	bics	r3, r2
    c2c8:	3308      	adds	r3, #8
    c2ca:	9305      	str	r3, [sp, #20]
    c2cc:	696b      	ldr	r3, [r5, #20]
    c2ce:	9a03      	ldr	r2, [sp, #12]
    c2d0:	189b      	adds	r3, r3, r2
    c2d2:	616b      	str	r3, [r5, #20]
    c2d4:	e74f      	b.n	c176 <_vfiprintf_r+0x3e>
    c2d6:	425b      	negs	r3, r3
    c2d8:	60eb      	str	r3, [r5, #12]
    c2da:	2302      	movs	r3, #2
    c2dc:	430b      	orrs	r3, r1
    c2de:	602b      	str	r3, [r5, #0]
    c2e0:	e7bf      	b.n	c262 <_vfiprintf_r+0x12a>
    c2e2:	434b      	muls	r3, r1
    c2e4:	3401      	adds	r4, #1
    c2e6:	189b      	adds	r3, r3, r2
    c2e8:	2001      	movs	r0, #1
    c2ea:	e789      	b.n	c200 <_vfiprintf_r+0xc8>
    c2ec:	2301      	movs	r3, #1
    c2ee:	425b      	negs	r3, r3
    c2f0:	e7c6      	b.n	c280 <_vfiprintf_r+0x148>
    c2f2:	2300      	movs	r3, #0
    c2f4:	0014      	movs	r4, r2
    c2f6:	200a      	movs	r0, #10
    c2f8:	001a      	movs	r2, r3
    c2fa:	606b      	str	r3, [r5, #4]
    c2fc:	7821      	ldrb	r1, [r4, #0]
    c2fe:	3930      	subs	r1, #48	; 0x30
    c300:	2909      	cmp	r1, #9
    c302:	d903      	bls.n	c30c <_vfiprintf_r+0x1d4>
    c304:	2b00      	cmp	r3, #0
    c306:	d0bc      	beq.n	c282 <_vfiprintf_r+0x14a>
    c308:	9207      	str	r2, [sp, #28]
    c30a:	e7ba      	b.n	c282 <_vfiprintf_r+0x14a>
    c30c:	4342      	muls	r2, r0
    c30e:	3401      	adds	r4, #1
    c310:	1852      	adds	r2, r2, r1
    c312:	2301      	movs	r3, #1
    c314:	e7f2      	b.n	c2fc <_vfiprintf_r+0x1c4>
    c316:	3307      	adds	r3, #7
    c318:	e7d5      	b.n	c2c6 <_vfiprintf_r+0x18e>
    c31a:	ab05      	add	r3, sp, #20
    c31c:	9300      	str	r3, [sp, #0]
    c31e:	003a      	movs	r2, r7
    c320:	4b12      	ldr	r3, [pc, #72]	; (c36c <_vfiprintf_r+0x234>)
    c322:	0029      	movs	r1, r5
    c324:	0030      	movs	r0, r6
    c326:	e000      	b.n	c32a <_vfiprintf_r+0x1f2>
    c328:	bf00      	nop
    c32a:	9003      	str	r0, [sp, #12]
    c32c:	9b03      	ldr	r3, [sp, #12]
    c32e:	3301      	adds	r3, #1
    c330:	d1cc      	bne.n	c2cc <_vfiprintf_r+0x194>
    c332:	89bb      	ldrh	r3, [r7, #12]
    c334:	065b      	lsls	r3, r3, #25
    c336:	d500      	bpl.n	c33a <_vfiprintf_r+0x202>
    c338:	e77b      	b.n	c232 <_vfiprintf_r+0xfa>
    c33a:	980b      	ldr	r0, [sp, #44]	; 0x2c
    c33c:	e77b      	b.n	c236 <_vfiprintf_r+0xfe>
    c33e:	ab05      	add	r3, sp, #20
    c340:	9300      	str	r3, [sp, #0]
    c342:	003a      	movs	r2, r7
    c344:	4b09      	ldr	r3, [pc, #36]	; (c36c <_vfiprintf_r+0x234>)
    c346:	0029      	movs	r1, r5
    c348:	0030      	movs	r0, r6
    c34a:	f000 f87f 	bl	c44c <_printf_i>
    c34e:	e7ec      	b.n	c32a <_vfiprintf_r+0x1f2>
    c350:	0000dcfc 	.word	0x0000dcfc
    c354:	0000dd44 	.word	0x0000dd44
    c358:	0000dd1c 	.word	0x0000dd1c
    c35c:	0000dcdc 	.word	0x0000dcdc
    c360:	0000dd4a 	.word	0x0000dd4a
    c364:	0000dd4e 	.word	0x0000dd4e
    c368:	00000000 	.word	0x00000000
    c36c:	0000c113 	.word	0x0000c113

0000c370 <_printf_common>:
    c370:	b5f7      	push	{r0, r1, r2, r4, r5, r6, r7, lr}
    c372:	0015      	movs	r5, r2
    c374:	9301      	str	r3, [sp, #4]
    c376:	688a      	ldr	r2, [r1, #8]
    c378:	690b      	ldr	r3, [r1, #16]
    c37a:	9000      	str	r0, [sp, #0]
    c37c:	000c      	movs	r4, r1
    c37e:	4293      	cmp	r3, r2
    c380:	da00      	bge.n	c384 <_printf_common+0x14>
    c382:	0013      	movs	r3, r2
    c384:	0022      	movs	r2, r4
    c386:	602b      	str	r3, [r5, #0]
    c388:	3243      	adds	r2, #67	; 0x43
    c38a:	7812      	ldrb	r2, [r2, #0]
    c38c:	2a00      	cmp	r2, #0
    c38e:	d001      	beq.n	c394 <_printf_common+0x24>
    c390:	3301      	adds	r3, #1
    c392:	602b      	str	r3, [r5, #0]
    c394:	6823      	ldr	r3, [r4, #0]
    c396:	069b      	lsls	r3, r3, #26
    c398:	d502      	bpl.n	c3a0 <_printf_common+0x30>
    c39a:	682b      	ldr	r3, [r5, #0]
    c39c:	3302      	adds	r3, #2
    c39e:	602b      	str	r3, [r5, #0]
    c3a0:	2706      	movs	r7, #6
    c3a2:	6823      	ldr	r3, [r4, #0]
    c3a4:	401f      	ands	r7, r3
    c3a6:	d027      	beq.n	c3f8 <_printf_common+0x88>
    c3a8:	0023      	movs	r3, r4
    c3aa:	3343      	adds	r3, #67	; 0x43
    c3ac:	781b      	ldrb	r3, [r3, #0]
    c3ae:	1e5a      	subs	r2, r3, #1
    c3b0:	4193      	sbcs	r3, r2
    c3b2:	6822      	ldr	r2, [r4, #0]
    c3b4:	0692      	lsls	r2, r2, #26
    c3b6:	d430      	bmi.n	c41a <_printf_common+0xaa>
    c3b8:	0022      	movs	r2, r4
    c3ba:	9901      	ldr	r1, [sp, #4]
    c3bc:	3243      	adds	r2, #67	; 0x43
    c3be:	9800      	ldr	r0, [sp, #0]
    c3c0:	9e08      	ldr	r6, [sp, #32]
    c3c2:	47b0      	blx	r6
    c3c4:	1c43      	adds	r3, r0, #1
    c3c6:	d025      	beq.n	c414 <_printf_common+0xa4>
    c3c8:	2306      	movs	r3, #6
    c3ca:	6820      	ldr	r0, [r4, #0]
    c3cc:	682a      	ldr	r2, [r5, #0]
    c3ce:	68e1      	ldr	r1, [r4, #12]
    c3d0:	4003      	ands	r3, r0
    c3d2:	2500      	movs	r5, #0
    c3d4:	2b04      	cmp	r3, #4
    c3d6:	d103      	bne.n	c3e0 <_printf_common+0x70>
    c3d8:	1a8d      	subs	r5, r1, r2
    c3da:	43eb      	mvns	r3, r5
    c3dc:	17db      	asrs	r3, r3, #31
    c3de:	401d      	ands	r5, r3
    c3e0:	68a3      	ldr	r3, [r4, #8]
    c3e2:	6922      	ldr	r2, [r4, #16]
    c3e4:	4293      	cmp	r3, r2
    c3e6:	dd01      	ble.n	c3ec <_printf_common+0x7c>
    c3e8:	1a9b      	subs	r3, r3, r2
    c3ea:	18ed      	adds	r5, r5, r3
    c3ec:	2700      	movs	r7, #0
    c3ee:	42bd      	cmp	r5, r7
    c3f0:	d120      	bne.n	c434 <_printf_common+0xc4>
    c3f2:	2000      	movs	r0, #0
    c3f4:	e010      	b.n	c418 <_printf_common+0xa8>
    c3f6:	3701      	adds	r7, #1
    c3f8:	68e3      	ldr	r3, [r4, #12]
    c3fa:	682a      	ldr	r2, [r5, #0]
    c3fc:	1a9b      	subs	r3, r3, r2
    c3fe:	429f      	cmp	r7, r3
    c400:	dad2      	bge.n	c3a8 <_printf_common+0x38>
    c402:	0022      	movs	r2, r4
    c404:	2301      	movs	r3, #1
    c406:	3219      	adds	r2, #25
    c408:	9901      	ldr	r1, [sp, #4]
    c40a:	9800      	ldr	r0, [sp, #0]
    c40c:	9e08      	ldr	r6, [sp, #32]
    c40e:	47b0      	blx	r6
    c410:	1c43      	adds	r3, r0, #1
    c412:	d1f0      	bne.n	c3f6 <_printf_common+0x86>
    c414:	2001      	movs	r0, #1
    c416:	4240      	negs	r0, r0
    c418:	bdfe      	pop	{r1, r2, r3, r4, r5, r6, r7, pc}
    c41a:	2030      	movs	r0, #48	; 0x30
    c41c:	18e1      	adds	r1, r4, r3
    c41e:	3143      	adds	r1, #67	; 0x43
    c420:	7008      	strb	r0, [r1, #0]
    c422:	0021      	movs	r1, r4
    c424:	1c5a      	adds	r2, r3, #1
    c426:	3145      	adds	r1, #69	; 0x45
    c428:	7809      	ldrb	r1, [r1, #0]
    c42a:	18a2      	adds	r2, r4, r2
    c42c:	3243      	adds	r2, #67	; 0x43
    c42e:	3302      	adds	r3, #2
    c430:	7011      	strb	r1, [r2, #0]
    c432:	e7c1      	b.n	c3b8 <_printf_common+0x48>
    c434:	0022      	movs	r2, r4
    c436:	2301      	movs	r3, #1
    c438:	321a      	adds	r2, #26
    c43a:	9901      	ldr	r1, [sp, #4]
    c43c:	9800      	ldr	r0, [sp, #0]
    c43e:	9e08      	ldr	r6, [sp, #32]
    c440:	47b0      	blx	r6
    c442:	1c43      	adds	r3, r0, #1
    c444:	d0e6      	beq.n	c414 <_printf_common+0xa4>
    c446:	3701      	adds	r7, #1
    c448:	e7d1      	b.n	c3ee <_printf_common+0x7e>
	...

0000c44c <_printf_i>:
    c44c:	b5f0      	push	{r4, r5, r6, r7, lr}
    c44e:	b08b      	sub	sp, #44	; 0x2c
    c450:	9206      	str	r2, [sp, #24]
    c452:	000a      	movs	r2, r1
    c454:	3243      	adds	r2, #67	; 0x43
    c456:	9307      	str	r3, [sp, #28]
    c458:	9005      	str	r0, [sp, #20]
    c45a:	9204      	str	r2, [sp, #16]
    c45c:	7e0a      	ldrb	r2, [r1, #24]
    c45e:	000c      	movs	r4, r1
    c460:	9b10      	ldr	r3, [sp, #64]	; 0x40
    c462:	2a6e      	cmp	r2, #110	; 0x6e
    c464:	d100      	bne.n	c468 <_printf_i+0x1c>
    c466:	e08f      	b.n	c588 <_printf_i+0x13c>
    c468:	d817      	bhi.n	c49a <_printf_i+0x4e>
    c46a:	2a63      	cmp	r2, #99	; 0x63
    c46c:	d02c      	beq.n	c4c8 <_printf_i+0x7c>
    c46e:	d808      	bhi.n	c482 <_printf_i+0x36>
    c470:	2a00      	cmp	r2, #0
    c472:	d100      	bne.n	c476 <_printf_i+0x2a>
    c474:	e099      	b.n	c5aa <_printf_i+0x15e>
    c476:	2a58      	cmp	r2, #88	; 0x58
    c478:	d054      	beq.n	c524 <_printf_i+0xd8>
    c47a:	0026      	movs	r6, r4
    c47c:	3642      	adds	r6, #66	; 0x42
    c47e:	7032      	strb	r2, [r6, #0]
    c480:	e029      	b.n	c4d6 <_printf_i+0x8a>
    c482:	2a64      	cmp	r2, #100	; 0x64
    c484:	d001      	beq.n	c48a <_printf_i+0x3e>
    c486:	2a69      	cmp	r2, #105	; 0x69
    c488:	d1f7      	bne.n	c47a <_printf_i+0x2e>
    c48a:	6821      	ldr	r1, [r4, #0]
    c48c:	681a      	ldr	r2, [r3, #0]
    c48e:	0608      	lsls	r0, r1, #24
    c490:	d523      	bpl.n	c4da <_printf_i+0x8e>
    c492:	1d11      	adds	r1, r2, #4
    c494:	6019      	str	r1, [r3, #0]
    c496:	6815      	ldr	r5, [r2, #0]
    c498:	e025      	b.n	c4e6 <_printf_i+0x9a>
    c49a:	2a73      	cmp	r2, #115	; 0x73
    c49c:	d100      	bne.n	c4a0 <_printf_i+0x54>
    c49e:	e088      	b.n	c5b2 <_printf_i+0x166>
    c4a0:	d808      	bhi.n	c4b4 <_printf_i+0x68>
    c4a2:	2a6f      	cmp	r2, #111	; 0x6f
    c4a4:	d029      	beq.n	c4fa <_printf_i+0xae>
    c4a6:	2a70      	cmp	r2, #112	; 0x70
    c4a8:	d1e7      	bne.n	c47a <_printf_i+0x2e>
    c4aa:	2220      	movs	r2, #32
    c4ac:	6809      	ldr	r1, [r1, #0]
    c4ae:	430a      	orrs	r2, r1
    c4b0:	6022      	str	r2, [r4, #0]
    c4b2:	e003      	b.n	c4bc <_printf_i+0x70>
    c4b4:	2a75      	cmp	r2, #117	; 0x75
    c4b6:	d020      	beq.n	c4fa <_printf_i+0xae>
    c4b8:	2a78      	cmp	r2, #120	; 0x78
    c4ba:	d1de      	bne.n	c47a <_printf_i+0x2e>
    c4bc:	0022      	movs	r2, r4
    c4be:	2178      	movs	r1, #120	; 0x78
    c4c0:	3245      	adds	r2, #69	; 0x45
    c4c2:	7011      	strb	r1, [r2, #0]
    c4c4:	4a6c      	ldr	r2, [pc, #432]	; (c678 <_printf_i+0x22c>)
    c4c6:	e030      	b.n	c52a <_printf_i+0xde>
    c4c8:	000e      	movs	r6, r1
    c4ca:	681a      	ldr	r2, [r3, #0]
    c4cc:	3642      	adds	r6, #66	; 0x42
    c4ce:	1d11      	adds	r1, r2, #4
    c4d0:	6019      	str	r1, [r3, #0]
    c4d2:	6813      	ldr	r3, [r2, #0]
    c4d4:	7033      	strb	r3, [r6, #0]
    c4d6:	2301      	movs	r3, #1
    c4d8:	e079      	b.n	c5ce <_printf_i+0x182>
    c4da:	0649      	lsls	r1, r1, #25
    c4dc:	d5d9      	bpl.n	c492 <_printf_i+0x46>
    c4de:	1d11      	adds	r1, r2, #4
    c4e0:	6019      	str	r1, [r3, #0]
    c4e2:	2300      	movs	r3, #0
    c4e4:	5ed5      	ldrsh	r5, [r2, r3]
    c4e6:	2d00      	cmp	r5, #0
    c4e8:	da03      	bge.n	c4f2 <_printf_i+0xa6>
    c4ea:	232d      	movs	r3, #45	; 0x2d
    c4ec:	9a04      	ldr	r2, [sp, #16]
    c4ee:	426d      	negs	r5, r5
    c4f0:	7013      	strb	r3, [r2, #0]
    c4f2:	4b62      	ldr	r3, [pc, #392]	; (c67c <_printf_i+0x230>)
    c4f4:	270a      	movs	r7, #10
    c4f6:	9303      	str	r3, [sp, #12]
    c4f8:	e02f      	b.n	c55a <_printf_i+0x10e>
    c4fa:	6820      	ldr	r0, [r4, #0]
    c4fc:	6819      	ldr	r1, [r3, #0]
    c4fe:	0605      	lsls	r5, r0, #24
    c500:	d503      	bpl.n	c50a <_printf_i+0xbe>
    c502:	1d08      	adds	r0, r1, #4
    c504:	6018      	str	r0, [r3, #0]
    c506:	680d      	ldr	r5, [r1, #0]
    c508:	e005      	b.n	c516 <_printf_i+0xca>
    c50a:	0640      	lsls	r0, r0, #25
    c50c:	d5f9      	bpl.n	c502 <_printf_i+0xb6>
    c50e:	680d      	ldr	r5, [r1, #0]
    c510:	1d08      	adds	r0, r1, #4
    c512:	6018      	str	r0, [r3, #0]
    c514:	b2ad      	uxth	r5, r5
    c516:	4b59      	ldr	r3, [pc, #356]	; (c67c <_printf_i+0x230>)
    c518:	2708      	movs	r7, #8
    c51a:	9303      	str	r3, [sp, #12]
    c51c:	2a6f      	cmp	r2, #111	; 0x6f
    c51e:	d018      	beq.n	c552 <_printf_i+0x106>
    c520:	270a      	movs	r7, #10
    c522:	e016      	b.n	c552 <_printf_i+0x106>
    c524:	3145      	adds	r1, #69	; 0x45
    c526:	700a      	strb	r2, [r1, #0]
    c528:	4a54      	ldr	r2, [pc, #336]	; (c67c <_printf_i+0x230>)
    c52a:	9203      	str	r2, [sp, #12]
    c52c:	681a      	ldr	r2, [r3, #0]
    c52e:	6821      	ldr	r1, [r4, #0]
    c530:	1d10      	adds	r0, r2, #4
    c532:	6018      	str	r0, [r3, #0]
    c534:	6815      	ldr	r5, [r2, #0]
    c536:	0608      	lsls	r0, r1, #24
    c538:	d522      	bpl.n	c580 <_printf_i+0x134>
    c53a:	07cb      	lsls	r3, r1, #31
    c53c:	d502      	bpl.n	c544 <_printf_i+0xf8>
    c53e:	2320      	movs	r3, #32
    c540:	4319      	orrs	r1, r3
    c542:	6021      	str	r1, [r4, #0]
    c544:	2710      	movs	r7, #16
    c546:	2d00      	cmp	r5, #0
    c548:	d103      	bne.n	c552 <_printf_i+0x106>
    c54a:	2320      	movs	r3, #32
    c54c:	6822      	ldr	r2, [r4, #0]
    c54e:	439a      	bics	r2, r3
    c550:	6022      	str	r2, [r4, #0]
    c552:	0023      	movs	r3, r4
    c554:	2200      	movs	r2, #0
    c556:	3343      	adds	r3, #67	; 0x43
    c558:	701a      	strb	r2, [r3, #0]
    c55a:	6863      	ldr	r3, [r4, #4]
    c55c:	60a3      	str	r3, [r4, #8]
    c55e:	2b00      	cmp	r3, #0
    c560:	db5c      	blt.n	c61c <_printf_i+0x1d0>
    c562:	2204      	movs	r2, #4
    c564:	6821      	ldr	r1, [r4, #0]
    c566:	4391      	bics	r1, r2
    c568:	6021      	str	r1, [r4, #0]
    c56a:	2d00      	cmp	r5, #0
    c56c:	d158      	bne.n	c620 <_printf_i+0x1d4>
    c56e:	9e04      	ldr	r6, [sp, #16]
    c570:	2b00      	cmp	r3, #0
    c572:	d064      	beq.n	c63e <_printf_i+0x1f2>
    c574:	0026      	movs	r6, r4
    c576:	9b03      	ldr	r3, [sp, #12]
    c578:	3642      	adds	r6, #66	; 0x42
    c57a:	781b      	ldrb	r3, [r3, #0]
    c57c:	7033      	strb	r3, [r6, #0]
    c57e:	e05e      	b.n	c63e <_printf_i+0x1f2>
    c580:	0648      	lsls	r0, r1, #25
    c582:	d5da      	bpl.n	c53a <_printf_i+0xee>
    c584:	b2ad      	uxth	r5, r5
    c586:	e7d8      	b.n	c53a <_printf_i+0xee>
    c588:	6809      	ldr	r1, [r1, #0]
    c58a:	681a      	ldr	r2, [r3, #0]
    c58c:	0608      	lsls	r0, r1, #24
    c58e:	d505      	bpl.n	c59c <_printf_i+0x150>
    c590:	1d11      	adds	r1, r2, #4
    c592:	6019      	str	r1, [r3, #0]
    c594:	6813      	ldr	r3, [r2, #0]
    c596:	6962      	ldr	r2, [r4, #20]
    c598:	601a      	str	r2, [r3, #0]
    c59a:	e006      	b.n	c5aa <_printf_i+0x15e>
    c59c:	0649      	lsls	r1, r1, #25
    c59e:	d5f7      	bpl.n	c590 <_printf_i+0x144>
    c5a0:	1d11      	adds	r1, r2, #4
    c5a2:	6019      	str	r1, [r3, #0]
    c5a4:	6813      	ldr	r3, [r2, #0]
    c5a6:	8aa2      	ldrh	r2, [r4, #20]
    c5a8:	801a      	strh	r2, [r3, #0]
    c5aa:	2300      	movs	r3, #0
    c5ac:	9e04      	ldr	r6, [sp, #16]
    c5ae:	6123      	str	r3, [r4, #16]
    c5b0:	e054      	b.n	c65c <_printf_i+0x210>
    c5b2:	681a      	ldr	r2, [r3, #0]
    c5b4:	1d11      	adds	r1, r2, #4
    c5b6:	6019      	str	r1, [r3, #0]
    c5b8:	6816      	ldr	r6, [r2, #0]
    c5ba:	2100      	movs	r1, #0
    c5bc:	6862      	ldr	r2, [r4, #4]
    c5be:	0030      	movs	r0, r6
    c5c0:	f000 f94a 	bl	c858 <memchr>
    c5c4:	2800      	cmp	r0, #0
    c5c6:	d001      	beq.n	c5cc <_printf_i+0x180>
    c5c8:	1b80      	subs	r0, r0, r6
    c5ca:	6060      	str	r0, [r4, #4]
    c5cc:	6863      	ldr	r3, [r4, #4]
    c5ce:	6123      	str	r3, [r4, #16]
    c5d0:	2300      	movs	r3, #0
    c5d2:	9a04      	ldr	r2, [sp, #16]
    c5d4:	7013      	strb	r3, [r2, #0]
    c5d6:	e041      	b.n	c65c <_printf_i+0x210>
    c5d8:	6923      	ldr	r3, [r4, #16]
    c5da:	0032      	movs	r2, r6
    c5dc:	9906      	ldr	r1, [sp, #24]
    c5de:	9805      	ldr	r0, [sp, #20]
    c5e0:	9d07      	ldr	r5, [sp, #28]
    c5e2:	47a8      	blx	r5
    c5e4:	1c43      	adds	r3, r0, #1
    c5e6:	d043      	beq.n	c670 <_printf_i+0x224>
    c5e8:	6823      	ldr	r3, [r4, #0]
    c5ea:	2500      	movs	r5, #0
    c5ec:	079b      	lsls	r3, r3, #30
    c5ee:	d40f      	bmi.n	c610 <_printf_i+0x1c4>
    c5f0:	9b09      	ldr	r3, [sp, #36]	; 0x24
    c5f2:	68e0      	ldr	r0, [r4, #12]
    c5f4:	4298      	cmp	r0, r3
    c5f6:	da3d      	bge.n	c674 <_printf_i+0x228>
    c5f8:	0018      	movs	r0, r3
    c5fa:	e03b      	b.n	c674 <_printf_i+0x228>
    c5fc:	0022      	movs	r2, r4
    c5fe:	2301      	movs	r3, #1
    c600:	3219      	adds	r2, #25
    c602:	9906      	ldr	r1, [sp, #24]
    c604:	9805      	ldr	r0, [sp, #20]
    c606:	9e07      	ldr	r6, [sp, #28]
    c608:	47b0      	blx	r6
    c60a:	1c43      	adds	r3, r0, #1
    c60c:	d030      	beq.n	c670 <_printf_i+0x224>
    c60e:	3501      	adds	r5, #1
    c610:	68e3      	ldr	r3, [r4, #12]
    c612:	9a09      	ldr	r2, [sp, #36]	; 0x24
    c614:	1a9b      	subs	r3, r3, r2
    c616:	429d      	cmp	r5, r3
    c618:	dbf0      	blt.n	c5fc <_printf_i+0x1b0>
    c61a:	e7e9      	b.n	c5f0 <_printf_i+0x1a4>
    c61c:	2d00      	cmp	r5, #0
    c61e:	d0a9      	beq.n	c574 <_printf_i+0x128>
    c620:	9e04      	ldr	r6, [sp, #16]
    c622:	0028      	movs	r0, r5
    c624:	0039      	movs	r1, r7
    c626:	f7fd f80d 	bl	9644 <__aeabi_uidivmod>
    c62a:	9b03      	ldr	r3, [sp, #12]
    c62c:	3e01      	subs	r6, #1
    c62e:	5c5b      	ldrb	r3, [r3, r1]
    c630:	0028      	movs	r0, r5
    c632:	7033      	strb	r3, [r6, #0]
    c634:	0039      	movs	r1, r7
    c636:	f7fc ff7f 	bl	9538 <__udivsi3>
    c63a:	1e05      	subs	r5, r0, #0
    c63c:	d1f1      	bne.n	c622 <_printf_i+0x1d6>
    c63e:	2f08      	cmp	r7, #8
    c640:	d109      	bne.n	c656 <_printf_i+0x20a>
    c642:	6823      	ldr	r3, [r4, #0]
    c644:	07db      	lsls	r3, r3, #31
    c646:	d506      	bpl.n	c656 <_printf_i+0x20a>
    c648:	6863      	ldr	r3, [r4, #4]
    c64a:	6922      	ldr	r2, [r4, #16]
    c64c:	4293      	cmp	r3, r2
    c64e:	dc02      	bgt.n	c656 <_printf_i+0x20a>
    c650:	2330      	movs	r3, #48	; 0x30
    c652:	3e01      	subs	r6, #1
    c654:	7033      	strb	r3, [r6, #0]
    c656:	9b04      	ldr	r3, [sp, #16]
    c658:	1b9b      	subs	r3, r3, r6
    c65a:	6123      	str	r3, [r4, #16]
    c65c:	9b07      	ldr	r3, [sp, #28]
    c65e:	aa09      	add	r2, sp, #36	; 0x24
    c660:	9300      	str	r3, [sp, #0]
    c662:	0021      	movs	r1, r4
    c664:	9b06      	ldr	r3, [sp, #24]
    c666:	9805      	ldr	r0, [sp, #20]
    c668:	f7ff fe82 	bl	c370 <_printf_common>
    c66c:	1c43      	adds	r3, r0, #1
    c66e:	d1b3      	bne.n	c5d8 <_printf_i+0x18c>
    c670:	2001      	movs	r0, #1
    c672:	4240      	negs	r0, r0
    c674:	b00b      	add	sp, #44	; 0x2c
    c676:	bdf0      	pop	{r4, r5, r6, r7, pc}
    c678:	0000dd66 	.word	0x0000dd66
    c67c:	0000dd55 	.word	0x0000dd55

0000c680 <_putc_r>:
    c680:	b570      	push	{r4, r5, r6, lr}
    c682:	0006      	movs	r6, r0
    c684:	000d      	movs	r5, r1
    c686:	0014      	movs	r4, r2
    c688:	2800      	cmp	r0, #0
    c68a:	d004      	beq.n	c696 <_putc_r+0x16>
    c68c:	6983      	ldr	r3, [r0, #24]
    c68e:	2b00      	cmp	r3, #0
    c690:	d101      	bne.n	c696 <_putc_r+0x16>
    c692:	f7ff faab 	bl	bbec <__sinit>
    c696:	4b12      	ldr	r3, [pc, #72]	; (c6e0 <_putc_r+0x60>)
    c698:	429c      	cmp	r4, r3
    c69a:	d111      	bne.n	c6c0 <_putc_r+0x40>
    c69c:	6874      	ldr	r4, [r6, #4]
    c69e:	68a3      	ldr	r3, [r4, #8]
    c6a0:	3b01      	subs	r3, #1
    c6a2:	60a3      	str	r3, [r4, #8]
    c6a4:	2b00      	cmp	r3, #0
    c6a6:	da05      	bge.n	c6b4 <_putc_r+0x34>
    c6a8:	69a2      	ldr	r2, [r4, #24]
    c6aa:	4293      	cmp	r3, r2
    c6ac:	db12      	blt.n	c6d4 <_putc_r+0x54>
    c6ae:	b2eb      	uxtb	r3, r5
    c6b0:	2b0a      	cmp	r3, #10
    c6b2:	d00f      	beq.n	c6d4 <_putc_r+0x54>
    c6b4:	6823      	ldr	r3, [r4, #0]
    c6b6:	b2e8      	uxtb	r0, r5
    c6b8:	1c5a      	adds	r2, r3, #1
    c6ba:	6022      	str	r2, [r4, #0]
    c6bc:	701d      	strb	r5, [r3, #0]
    c6be:	bd70      	pop	{r4, r5, r6, pc}
    c6c0:	4b08      	ldr	r3, [pc, #32]	; (c6e4 <_putc_r+0x64>)
    c6c2:	429c      	cmp	r4, r3
    c6c4:	d101      	bne.n	c6ca <_putc_r+0x4a>
    c6c6:	68b4      	ldr	r4, [r6, #8]
    c6c8:	e7e9      	b.n	c69e <_putc_r+0x1e>
    c6ca:	4b07      	ldr	r3, [pc, #28]	; (c6e8 <_putc_r+0x68>)
    c6cc:	429c      	cmp	r4, r3
    c6ce:	d1e6      	bne.n	c69e <_putc_r+0x1e>
    c6d0:	68f4      	ldr	r4, [r6, #12]
    c6d2:	e7e4      	b.n	c69e <_putc_r+0x1e>
    c6d4:	0022      	movs	r2, r4
    c6d6:	0029      	movs	r1, r5
    c6d8:	0030      	movs	r0, r6
    c6da:	f7ff f8c3 	bl	b864 <__swbuf_r>
    c6de:	e7ee      	b.n	c6be <_putc_r+0x3e>
    c6e0:	0000dcfc 	.word	0x0000dcfc
    c6e4:	0000dd1c 	.word	0x0000dd1c
    c6e8:	0000dcdc 	.word	0x0000dcdc

0000c6ec <__sread>:
    c6ec:	b570      	push	{r4, r5, r6, lr}
    c6ee:	000c      	movs	r4, r1
    c6f0:	250e      	movs	r5, #14
    c6f2:	5f49      	ldrsh	r1, [r1, r5]
    c6f4:	f000 f8e2 	bl	c8bc <_read_r>
    c6f8:	2800      	cmp	r0, #0
    c6fa:	db03      	blt.n	c704 <__sread+0x18>
    c6fc:	6d63      	ldr	r3, [r4, #84]	; 0x54
    c6fe:	181b      	adds	r3, r3, r0
    c700:	6563      	str	r3, [r4, #84]	; 0x54
    c702:	bd70      	pop	{r4, r5, r6, pc}
    c704:	89a3      	ldrh	r3, [r4, #12]
    c706:	4a02      	ldr	r2, [pc, #8]	; (c710 <__sread+0x24>)
    c708:	4013      	ands	r3, r2
    c70a:	81a3      	strh	r3, [r4, #12]
    c70c:	e7f9      	b.n	c702 <__sread+0x16>
    c70e:	46c0      	nop			; (mov r8, r8)
    c710:	ffffefff 	.word	0xffffefff

0000c714 <__swrite>:
    c714:	b5f8      	push	{r3, r4, r5, r6, r7, lr}
    c716:	001f      	movs	r7, r3
    c718:	898b      	ldrh	r3, [r1, #12]
    c71a:	0005      	movs	r5, r0
    c71c:	000c      	movs	r4, r1
    c71e:	0016      	movs	r6, r2
    c720:	05db      	lsls	r3, r3, #23
    c722:	d505      	bpl.n	c730 <__swrite+0x1c>
    c724:	230e      	movs	r3, #14
    c726:	5ec9      	ldrsh	r1, [r1, r3]
    c728:	2200      	movs	r2, #0
    c72a:	2302      	movs	r3, #2
    c72c:	f000 f880 	bl	c830 <_lseek_r>
    c730:	89a3      	ldrh	r3, [r4, #12]
    c732:	4a05      	ldr	r2, [pc, #20]	; (c748 <__swrite+0x34>)
    c734:	0028      	movs	r0, r5
    c736:	4013      	ands	r3, r2
    c738:	81a3      	strh	r3, [r4, #12]
    c73a:	0032      	movs	r2, r6
    c73c:	230e      	movs	r3, #14
    c73e:	5ee1      	ldrsh	r1, [r4, r3]
    c740:	003b      	movs	r3, r7
    c742:	f000 f82b 	bl	c79c <_write_r>
    c746:	bdf8      	pop	{r3, r4, r5, r6, r7, pc}
    c748:	ffffefff 	.word	0xffffefff

0000c74c <__sseek>:
    c74c:	b570      	push	{r4, r5, r6, lr}
    c74e:	000c      	movs	r4, r1
    c750:	250e      	movs	r5, #14
    c752:	5f49      	ldrsh	r1, [r1, r5]
    c754:	f000 f86c 	bl	c830 <_lseek_r>
    c758:	89a3      	ldrh	r3, [r4, #12]
    c75a:	1c42      	adds	r2, r0, #1
    c75c:	d103      	bne.n	c766 <__sseek+0x1a>
    c75e:	4a05      	ldr	r2, [pc, #20]	; (c774 <__sseek+0x28>)
    c760:	4013      	ands	r3, r2
    c762:	81a3      	strh	r3, [r4, #12]
    c764:	bd70      	pop	{r4, r5, r6, pc}
    c766:	2280      	movs	r2, #128	; 0x80
    c768:	0152      	lsls	r2, r2, #5
    c76a:	4313      	orrs	r3, r2
    c76c:	81a3      	strh	r3, [r4, #12]
    c76e:	6560      	str	r0, [r4, #84]	; 0x54
    c770:	e7f8      	b.n	c764 <__sseek+0x18>
    c772:	46c0      	nop			; (mov r8, r8)
    c774:	ffffefff 	.word	0xffffefff

0000c778 <__sclose>:
    c778:	b510      	push	{r4, lr}
    c77a:	230e      	movs	r3, #14
    c77c:	5ec9      	ldrsh	r1, [r1, r3]
    c77e:	f000 f821 	bl	c7c4 <_close_r>
    c782:	bd10      	pop	{r4, pc}

0000c784 <__ascii_wctomb>:
    c784:	1e0b      	subs	r3, r1, #0
    c786:	d004      	beq.n	c792 <__ascii_wctomb+0xe>
    c788:	2aff      	cmp	r2, #255	; 0xff
    c78a:	d904      	bls.n	c796 <__ascii_wctomb+0x12>
    c78c:	238a      	movs	r3, #138	; 0x8a
    c78e:	6003      	str	r3, [r0, #0]
    c790:	3b8b      	subs	r3, #139	; 0x8b
    c792:	0018      	movs	r0, r3
    c794:	4770      	bx	lr
    c796:	700a      	strb	r2, [r1, #0]
    c798:	2301      	movs	r3, #1
    c79a:	e7fa      	b.n	c792 <__ascii_wctomb+0xe>

0000c79c <_write_r>:
    c79c:	b570      	push	{r4, r5, r6, lr}
    c79e:	0005      	movs	r5, r0
    c7a0:	0008      	movs	r0, r1
    c7a2:	0011      	movs	r1, r2
    c7a4:	2200      	movs	r2, #0
    c7a6:	4c06      	ldr	r4, [pc, #24]	; (c7c0 <_write_r+0x24>)
    c7a8:	6022      	str	r2, [r4, #0]
    c7aa:	001a      	movs	r2, r3
    c7ac:	f7fb f8e2 	bl	7974 <_write>
    c7b0:	1c43      	adds	r3, r0, #1
    c7b2:	d103      	bne.n	c7bc <_write_r+0x20>
    c7b4:	6823      	ldr	r3, [r4, #0]
    c7b6:	2b00      	cmp	r3, #0
    c7b8:	d000      	beq.n	c7bc <_write_r+0x20>
    c7ba:	602b      	str	r3, [r5, #0]
    c7bc:	bd70      	pop	{r4, r5, r6, pc}
    c7be:	46c0      	nop			; (mov r8, r8)
    c7c0:	20001a58 	.word	0x20001a58

0000c7c4 <_close_r>:
    c7c4:	2300      	movs	r3, #0
    c7c6:	b570      	push	{r4, r5, r6, lr}
    c7c8:	4c06      	ldr	r4, [pc, #24]	; (c7e4 <_close_r+0x20>)
    c7ca:	0005      	movs	r5, r0
    c7cc:	0008      	movs	r0, r1
    c7ce:	6023      	str	r3, [r4, #0]
    c7d0:	f7fb f8fa 	bl	79c8 <_close>
    c7d4:	1c43      	adds	r3, r0, #1
    c7d6:	d103      	bne.n	c7e0 <_close_r+0x1c>
    c7d8:	6823      	ldr	r3, [r4, #0]
    c7da:	2b00      	cmp	r3, #0
    c7dc:	d000      	beq.n	c7e0 <_close_r+0x1c>
    c7de:	602b      	str	r3, [r5, #0]
    c7e0:	bd70      	pop	{r4, r5, r6, pc}
    c7e2:	46c0      	nop			; (mov r8, r8)
    c7e4:	20001a58 	.word	0x20001a58

0000c7e8 <_fstat_r>:
    c7e8:	2300      	movs	r3, #0
    c7ea:	b570      	push	{r4, r5, r6, lr}
    c7ec:	4c06      	ldr	r4, [pc, #24]	; (c808 <_fstat_r+0x20>)
    c7ee:	0005      	movs	r5, r0
    c7f0:	0008      	movs	r0, r1
    c7f2:	0011      	movs	r1, r2
    c7f4:	6023      	str	r3, [r4, #0]
    c7f6:	f7fb f8ea 	bl	79ce <_fstat>
    c7fa:	1c43      	adds	r3, r0, #1
    c7fc:	d103      	bne.n	c806 <_fstat_r+0x1e>
    c7fe:	6823      	ldr	r3, [r4, #0]
    c800:	2b00      	cmp	r3, #0
    c802:	d000      	beq.n	c806 <_fstat_r+0x1e>
    c804:	602b      	str	r3, [r5, #0]
    c806:	bd70      	pop	{r4, r5, r6, pc}
    c808:	20001a58 	.word	0x20001a58

0000c80c <_isatty_r>:
    c80c:	2300      	movs	r3, #0
    c80e:	b570      	push	{r4, r5, r6, lr}
    c810:	4c06      	ldr	r4, [pc, #24]	; (c82c <_isatty_r+0x20>)
    c812:	0005      	movs	r5, r0
    c814:	0008      	movs	r0, r1
    c816:	6023      	str	r3, [r4, #0]
    c818:	f7fb f8de 	bl	79d8 <_isatty>
    c81c:	1c43      	adds	r3, r0, #1
    c81e:	d103      	bne.n	c828 <_isatty_r+0x1c>
    c820:	6823      	ldr	r3, [r4, #0]
    c822:	2b00      	cmp	r3, #0
    c824:	d000      	beq.n	c828 <_isatty_r+0x1c>
    c826:	602b      	str	r3, [r5, #0]
    c828:	bd70      	pop	{r4, r5, r6, pc}
    c82a:	46c0      	nop			; (mov r8, r8)
    c82c:	20001a58 	.word	0x20001a58

0000c830 <_lseek_r>:
    c830:	b570      	push	{r4, r5, r6, lr}
    c832:	0005      	movs	r5, r0
    c834:	0008      	movs	r0, r1
    c836:	0011      	movs	r1, r2
    c838:	2200      	movs	r2, #0
    c83a:	4c06      	ldr	r4, [pc, #24]	; (c854 <_lseek_r+0x24>)
    c83c:	6022      	str	r2, [r4, #0]
    c83e:	001a      	movs	r2, r3
    c840:	f7fb f8cc 	bl	79dc <_lseek>
    c844:	1c43      	adds	r3, r0, #1
    c846:	d103      	bne.n	c850 <_lseek_r+0x20>
    c848:	6823      	ldr	r3, [r4, #0]
    c84a:	2b00      	cmp	r3, #0
    c84c:	d000      	beq.n	c850 <_lseek_r+0x20>
    c84e:	602b      	str	r3, [r5, #0]
    c850:	bd70      	pop	{r4, r5, r6, pc}
    c852:	46c0      	nop			; (mov r8, r8)
    c854:	20001a58 	.word	0x20001a58

0000c858 <memchr>:
    c858:	b2c9      	uxtb	r1, r1
    c85a:	1882      	adds	r2, r0, r2
    c85c:	4290      	cmp	r0, r2
    c85e:	d101      	bne.n	c864 <memchr+0xc>
    c860:	2000      	movs	r0, #0
    c862:	4770      	bx	lr
    c864:	7803      	ldrb	r3, [r0, #0]
    c866:	428b      	cmp	r3, r1
    c868:	d0fb      	beq.n	c862 <memchr+0xa>
    c86a:	3001      	adds	r0, #1
    c86c:	e7f6      	b.n	c85c <memchr+0x4>

0000c86e <_realloc_r>:
    c86e:	b5f8      	push	{r3, r4, r5, r6, r7, lr}
    c870:	0007      	movs	r7, r0
    c872:	000d      	movs	r5, r1
    c874:	0016      	movs	r6, r2
    c876:	2900      	cmp	r1, #0
    c878:	d105      	bne.n	c886 <_realloc_r+0x18>
    c87a:	0011      	movs	r1, r2
    c87c:	f7fe fd18 	bl	b2b0 <_malloc_r>
    c880:	0004      	movs	r4, r0
    c882:	0020      	movs	r0, r4
    c884:	bdf8      	pop	{r3, r4, r5, r6, r7, pc}
    c886:	2a00      	cmp	r2, #0
    c888:	d103      	bne.n	c892 <_realloc_r+0x24>
    c88a:	f7fe fcc7 	bl	b21c <_free_r>
    c88e:	0034      	movs	r4, r6
    c890:	e7f7      	b.n	c882 <_realloc_r+0x14>
    c892:	f000 f827 	bl	c8e4 <_malloc_usable_size_r>
    c896:	002c      	movs	r4, r5
    c898:	4286      	cmp	r6, r0
    c89a:	d9f2      	bls.n	c882 <_realloc_r+0x14>
    c89c:	0031      	movs	r1, r6
    c89e:	0038      	movs	r0, r7
    c8a0:	f7fe fd06 	bl	b2b0 <_malloc_r>
    c8a4:	1e04      	subs	r4, r0, #0
    c8a6:	d0ec      	beq.n	c882 <_realloc_r+0x14>
    c8a8:	0029      	movs	r1, r5
    c8aa:	0032      	movs	r2, r6
    c8ac:	f7fe fc92 	bl	b1d4 <memcpy>
    c8b0:	0029      	movs	r1, r5
    c8b2:	0038      	movs	r0, r7
    c8b4:	f7fe fcb2 	bl	b21c <_free_r>
    c8b8:	e7e3      	b.n	c882 <_realloc_r+0x14>
	...

0000c8bc <_read_r>:
    c8bc:	b570      	push	{r4, r5, r6, lr}
    c8be:	0005      	movs	r5, r0
    c8c0:	0008      	movs	r0, r1
    c8c2:	0011      	movs	r1, r2
    c8c4:	2200      	movs	r2, #0
    c8c6:	4c06      	ldr	r4, [pc, #24]	; (c8e0 <_read_r+0x24>)
    c8c8:	6022      	str	r2, [r4, #0]
    c8ca:	001a      	movs	r2, r3
    c8cc:	f7fb f836 	bl	793c <_read>
    c8d0:	1c43      	adds	r3, r0, #1
    c8d2:	d103      	bne.n	c8dc <_read_r+0x20>
    c8d4:	6823      	ldr	r3, [r4, #0]
    c8d6:	2b00      	cmp	r3, #0
    c8d8:	d000      	beq.n	c8dc <_read_r+0x20>
    c8da:	602b      	str	r3, [r5, #0]
    c8dc:	bd70      	pop	{r4, r5, r6, pc}
    c8de:	46c0      	nop			; (mov r8, r8)
    c8e0:	20001a58 	.word	0x20001a58

0000c8e4 <_malloc_usable_size_r>:
    c8e4:	1f0b      	subs	r3, r1, #4
    c8e6:	681b      	ldr	r3, [r3, #0]
    c8e8:	1f18      	subs	r0, r3, #4
    c8ea:	2b00      	cmp	r3, #0
    c8ec:	da01      	bge.n	c8f2 <_malloc_usable_size_r+0xe>
    c8ee:	580b      	ldr	r3, [r1, r0]
    c8f0:	18c0      	adds	r0, r0, r3
    c8f2:	4770      	bx	lr
    c8f4:	00000100 	.word	0x00000100

0000c8f8 <CSWTCH.16>:
    c8f8:	00010000 00040000 00080000 00100000     ................
    c908:	00100000 00200000 00200000 00200000     ...... ... ... .
    c918:	00400000 00800000                       ..@.....

0000c920 <CSWTCH.79>:
    c920:	6ed85220                                          R.

0000c923 <__FUNCTION__.14524>:
    c923:	625f6d6e 695f7375 6c74636f 50412800     nm_bus_ioctl.(AP
    c933:	45282950 5b295252 5b5d7325 005d6425     P)(ERR)[%s][%d].
    c943:	61766e69 6564696c 636f6920 6320746c     invalide ioclt c
    c953:	6800646d                                         md.

0000c956 <__FUNCTION__.13073>:
    c956:	5f666968 646e6573 66696800                       hif_send.

0000c95f <__FUNCTION__.13083>:
    c95f:	5f666968 00727369                       hif_isr.

0000c967 <__FUNCTION__.13089>:
    c967:	5f666968 646e6168 695f656c 68007273              hif_handle_isr.

0000c976 <__FUNCTION__.13101>:
    c976:	5f666968 65636572 00657669              hif_receive.

0000c982 <__FUNCTION__.13117>:
    c982:	5f666968 69676572 72657473 0062635f     hif_register_cb.
    c992:	66696828 49572029 485f4946 5f54534f     (hif) WIFI_HOST_
    c9a2:	5f564352 4c525443 6220315f 66207375     RCV_CTRL_1 bus f
    c9b2:	006c6961 66696828 64612029 73657264     ail.(hif) addres
    c9c2:	75622073 61662073 28006c69 29666968     s bus fail.(hif)
    c9d2:	726f4320 74707572 70206465 656b6361      Corrupted packe
    c9e2:	69532074 3d20657a 20752520 3d204c3c     t Size = %u <L =
    c9f2:	2c752520 3d204720 2c752520 20504f20      %u, G = %u, OP 
    ca02:	3025203d 0a3e5832 46495700 61632049     = %02X>..WIFI ca
    ca12:	61626c6c 69206b63 6f6e2073 65722074     llback is not re
    ca22:	74736967 64657265 6f635300 2074656b     gistered.Scoket 
    ca32:	6c6c6163 6b636162 20736920 20746f6e     callback is not 
    ca42:	69676572 72657473 4f006465 63206174     registered.Ota c
    ca52:	626c6c61 206b6361 6e207369 7220746f     allback is not r
    ca62:	73696765 65726574 72430064 6f747079     egistered.Crypto
    ca72:	6c616320 6361626c 7369206b 746f6e20      callback is not
    ca82:	67657220 65747369 00646572 6d676953      registered.Sigm
    ca92:	61632061 61626c6c 69206b63 6f6e2073     a callback is no
    caa2:	65722074 74736967 64657265 69682800     t registered.(hi
    cab2:	69202966 6c61766e 67206469 70756f72     f) invalid group
    cac2:	00444920 66696828 6f682029 61207473      ID.(hif) host a
    cad2:	64207070 276e6469 65732074 58522074     pp didn't set RX
    cae2:	6e6f4420 253c2065 253c3e75 000a3e58      Done <%u><%X>..
    caf2:	66696828 72572029 20676e6f 657a6953     (hif) Wrong Size
    cb02:	69682800 46202966 65736c61 746e6920     .(hif) False int
    cb12:	75727265 25207470 2800786c 29666968     errupt %lx.(hif)
    cb22:	69614620 6f74206c 61655220 6e692064      Fail to Read in
    cb32:	72726574 20747075 00676572 46494828     terrupt reg.(HIF
    cb42:	61462029 74206c69 6168206f 656c646e     ) Fail to handle
    cb52:	746e6920 75727265 25207470 72742064      interrupt %d tr
    cb62:	67412079 2e6e6961 20000a2e 5f666968     y Again.... hif_
    cb72:	65636572 3a657669 766e4920 64696c61     receive: Invalid
    cb82:	67726120 6e656d75 50410074 65522050      argument.APP Re
    cb92:	73657571 20646574 657a6953 20736920     quested Size is 
    cba2:	6772616c 74207265 206e6168 20656874     larger than the 
    cbb2:	69636572 20646576 66667562 73207265     recived buffer s
    cbc2:	20657a69 3e75253c 756c253c 41000a3e     ize <%u><%lu>..A
    cbd2:	52205050 65757165 64657473 64644120     PP Requested Add
    cbe2:	73736572 79656220 20646e6f 20656874     ress beyond the 
    cbf2:	69636572 20646576 66667562 61207265     recived buffer a
    cc02:	65726464 61207373 6c20646e 74676e65     ddress and lengt
    cc12:	52470068 203f2070 000a6425 50504128     h.GRp ? %d..(APP
    cc22:	4e492829 00294f46 776f6c53 20676e69     )(INFO).Slowing 
    cc32:	6e776f64 002e2e2e 46494828 69614629     down....(HIF)Fai
    cc42:	6f74206c 6b617720 74207075 63206568     l to wakup the c
    cc52:	00706968                                hip.

0000cc56 <__FUNCTION__.13052>:
    cc56:	5f6d326d 69666977 0062635f              m2m_wifi_cb.

0000cc62 <__FUNCTION__.13081>:
    cc62:	5f6d326d 69666977 696e695f 326d0074              m2m_wifi_init.

0000cc70 <__FUNCTION__.13109>:
    cc70:	5f6d326d 69666977 6e6f635f 7463656e     m2m_wifi_connect
    cc80:	0063735f 666e6f43 7463696c 49206465     _sc.Conflicted I
    cc90:	20222050 252e7525 75252e75 2075252e     P " %u.%u.%u.%u 
    cca0:	000a2022 20514552 20746f4e 69666564     " ..REQ Not defi
    ccb0:	2064656e 000a6425 2079654b 6e207369     ned %d..Key is n
    ccc0:	7620746f 64696c61 766e4900 64696c61     ot valid.Invalid
    ccd0:	79654b20 49535300 454c2044 4e49204e      Key.SSID LEN IN
    cce0:	494c4156 48430044 564e4920 44494c41     VALID.CH INVALID
    ccf0:	766e4900 64696c61 70655720 79656b20     .Invalid Wep key
    cd00:	646e6920 25207865 49000a64 6c61766e      index %d..Inval
    cd10:	57206469 6b207065 6c207965 74676e65     id Wep key lengt
    cd20:	64252068 6e49000a 72726f63 20746365     h %d..Incorrect 
    cd30:	204b5350 2079656b 676e656c 75006874     PSK key length.u
    cd40:	6665646e 64656e69 63657320 70797420     ndefined sec typ
    cd50:	69460065 61776d72 76206572 20207265     e.Firmware ver  
    cd60:	25203a20 75252e75 2075252e 726e7653      : %u.%u.%u Svnr
    cd70:	25207665 46000a75 776d7269 20657261     ev %u..Firmware 
    cd80:	6c697542 73252064 6d695420 73252065     Build %s Time %s
    cd90:	6946000a 61776d72 4d206572 64206e69     ..Firmware Min d
    cda0:	65766972 65762072 203a2072 252e7525     river ver : %u.%
    cdb0:	75252e75 7244000a 72657669 72657620     u.%u..Driver ver
    cdc0:	7525203a 2e75252e 000a7525 343a3931     : %u.%u.%u..19:4
    cdd0:	33353a35 72704100 20383120 38313032     5:53.Apr 18 2018
    cde0:	69724400 20726576 6c697562 74612074     .Driver built at
    cdf0:	09732520 000a7325 6d73694d 68637461      %s.%s..Mismatch
    ce00:	72694620 7277616d 65562065 6f697372      Firmawre Versio
    ce10:	6863006e                                         n.

0000ce12 <__FUNCTION__.12915>:
    ce12:	70696863 6b61775f 68630065                       chip_wake.

0000ce1c <__FUNCTION__.12964>:
    ce1c:	70696863 6965645f 0074696e 6c696166     chip_deinit.fail
    ce2c:	74206465 6564206f 696e692d 6c616974     ed to de-initial
    ce3c:	00657a69 20737542 6f727265 35282072     ize.Bus error (5
    ce4c:	64252e29 786c2520 6146000a 64656c69     ).%d %lx..Failed
    ce5c:	206f7420 756b6177 68742070 68632065      to wakup the ch
    ce6c:	44007069 65766972 72655672 6f666e49     ip.DriverVerInfo
    ce7c:	7830203a 6c383025 6e000a78                       : 0x%08lx..

0000ce87 <__FUNCTION__.12962>:
    ce87:	645f6d6e 695f7672 0074696e              nm_drv_init.

0000ce93 <__FUNCTION__.12969>:
    ce93:	645f6d6e 645f7672 696e6965 6e5b0074     nm_drv_deinit.[n
    cea3:	7320696d 5d706f74 6863203a 645f7069     mi stop]: chip_d
    ceb3:	696e6965 61662074 5b006c69 20696d6e     einit fail.[nmi 
    cec3:	706f7473 53203a5d 66204950 6873616c     stop]: SPI flash
    ced3:	73696420 656c6261 69616620 6e5b006c      disable fail.[n
    cee3:	7320696d 5d706f74 6166203a 69206c69     mi stop]: fail i
    cef3:	2074696e 00737562 6c696166 74206465     nit bus.failed t
    cf03:	6e65206f 656c6261 746e6920 75727265     o enable interru
    cf13:	2e737470 6e5b002e 7320696d 74726174     pts...[nmi start
    cf23:	66203a5d 206c6961 74696e69 73756220     ]: fail init bus
    cf33:	69684300 44492070 786c2520 0000000a     .Chip ID %lx....
    cf43:	c4c9c320 697073ca                                 ....

0000cf48 <__FUNCTION__.12268>:
    cf48:	5f697073 00646d63                       spi_cmd.

0000cf50 <__FUNCTION__.12275>:
    cf50:	5f697073 61746164 7073725f 69707300              spi_data_rsp.

0000cf5d <__FUNCTION__.12284>:
    cf5d:	5f697073 5f646d63 00707372              spi_cmd_rsp.

0000cf69 <__FUNCTION__.12300>:
    cf69:	5f697073 61746164 6165725f 70730064              spi_data_read.

0000cf77 <__FUNCTION__.12315>:
    cf77:	5f697073 61746164 6972775f 73006574              spi_data_write.

0000cf86 <__FUNCTION__.12327>:
    cf86:	5f697073 74697277 65725f65 6d6e0067              spi_write_reg.

0000cf94 <__FUNCTION__.12338>:
    cf94:	735f6d6e 775f6970 65746972 69707300              nm_spi_write.

0000cfa1 <__FUNCTION__.12350>:
    cfa1:	5f697073 64616572 6765725f 5f6d6e00              spi_read_reg.

0000cfae <__FUNCTION__.12363>:
    cfae:	735f6d6e 725f6970 00646165              nm_spi_read.

0000cfba <__FUNCTION__.12384>:
    cfba:	735f6d6e 695f6970 0074696e              nm_spi_init.

0000cfc6 <crc7_syndrome_table>:
    cfc6:	1b120900 3f362d24 535a4148 777e656c     ....$-6?HAZSle~w
    cfd6:	020b1019 262f343d 4a435851 6e677c75     ....=4/&QXCJu|gn
    cfe6:	29203b32 0d041f16 6168737a 454c575e     2; )....zsha^WLE
    cff6:	3039222b 141d060f 78716a63 5c554e47     +"90....cjqxGNU\
    d006:	7f766d64 5b524940 373e252c 131a0108     dmv.@IR[,%>7....
    d016:	666f747d 424b5059 2e273c35 0a031811     }tofYPKB5<'.....
    d026:	4d445f56 69607b72 050c171e 2128333a     V_DMr{`i....:3(!
    d036:	545d464f 7079626b 1c150e07 38312a23     OF]Tkbyp....#*18
    d046:	5a534841 7e776c65 121b0009 363f242d     AHSZelw~....-$?6
    d056:	434a5158 676e757c 0b021910 2f263d34     XQJC|ung....4=&/
    d066:	68617a73 4c455e57 2029323b 040d161f     szahW^EL;2) ....
    d076:	7178636a 555c474e 39302b22 1d140f06     jcxqNG\U"+09....
    d086:	3e372c25 1a130801 767f646d 525b4049     %,7>....md.vI@[R
    d096:	272e353c 030a1118 6f667d74 4b425950     <5.'....t}foPYBK
    d0a6:	0c051e17 28213a33 444d565f 6069727b     ....3:!(_VMD{ri`
    d0b6:	151c070e 3138232a 5d544f46 79706b62     ....*#81FOT]bkpy
    d0c6:	696d6e5b 69707320 46203a5d 656c6961     [nmi spi]: Faile
    d0d6:	6e692064 6e726574 72206c61 20646165     d internal read 
    d0e6:	746f7270 6c6f636f 74697720 52432068     protocol with CR
    d0f6:	6e6f2043 6572202c 69727974 7720676e     C on, retyring w
    d106:	20687469 20435243 2e66666f 5b002e2e     ith CRC off....[
    d116:	20696d6e 5d697073 6146203a 64656c69     nmi spi]: Failed
    d126:	746e6920 616e7265 6572206c 70206461      internal read p
    d136:	6f746f72 2e6c6f63 5b002e2e 20696d6e     rotocol....[nmi 
    d146:	5d697073 6146203a 64656c69 746e6920     spi]: Failed int
    d156:	616e7265 7277206c 20657469 746f7270     ernal write prot
    d166:	6c6f636f 67657220 002e2e2e 696d6e5b     ocol reg....[nmi
    d176:	69707320 46203a5d 206c6961 20646d63      spi]: Fail cmd 
    d186:	64616572 69686320 64692070 002e2e2e     read chip id....
    d196:	696d6e5b 69707320 46203a5d 656c6961     [nmi spi]: Faile
    d1a6:	6d632064 72202c64 20646165 636f6c62     d cmd, read bloc
    d1b6:	2528206b 29783830 0a2e2e2e 6d6e5b00     k (%08x).....[nm
    d1c6:	70732069 203a5d69 6c696146 63206465     i spi]: Failed c
    d1d6:	7220646d 6f707365 2c65736e 61657220     md response, rea
    d1e6:	6c622064 206b636f 38302528 2e2e2978     d block (%08x)..
    d1f6:	5b000a2e 20696d6e 5d697073 6146203a     ...[nmi spi]: Fa
    d206:	64656c69 6f6c6220 64206b63 20617461     iled block data 
    d216:	64616572 002e2e2e 65736552 6e612074     read....Reset an
    d226:	65722064 20797274 25206425 2520786c     d retry %d %lx %
    d236:	5b000a64 20696d6e 5d697073 6146203a     d..[nmi spi]: Fa
    d246:	64656c69 646d6320 7277202c 20657469     iled cmd, write 
    d256:	636f6c62 2528206b 29783830 0a2e2e2e     block (%08x)....
    d266:	6d6e5b00 70732069 3a5d2069 69614620     .[nmi spi ]: Fai
    d276:	2064656c 20646d63 70736572 65736e6f     led cmd response
    d286:	7277202c 20657469 636f6c62 2528206b     , write block (%
    d296:	29783830 0a2e2e2e 6d6e5b00 70732069     08x).....[nmi sp
    d2a6:	203a5d69 6c696146 64206465 20617461     i]: Failed data 
    d2b6:	636f6c62 6d63206b 72772064 2c657469     block cmd write,
    d2c6:	73756220 72726520 2e2e726f 6e5b002e      bus error....[n
    d2d6:	7320696d 3a5d6970 69614620 2064656c     mi spi]: Failed 
    d2e6:	61746164 6f6c6220 77206b63 65746972     data block write
    d2f6:	7562202c 72652073 2e726f72 5b002e2e     , bus error....[
    d306:	20696d6e 5d697073 6146203a 64656c69     nmi spi]: Failed
    d316:	74616420 6c622061 206b636f 20637263      data block crc 
    d326:	74697277 62202c65 65207375 726f7272     write, bus error
    d336:	002e2e2e 696d6e5b 69707320 46203a5d     ....[nmi spi]: F
    d346:	656c6961 75622064 72652073 2e726f72     ailed bus error.
    d356:	5b002e2e 20696d6e 5d697073 6146203a     ...[nmi spi]: Fa
    d366:	64656c69 74616420 65722061 6e6f7073     iled data respon
    d376:	72206573 2c646165 20782520 25207825     se read, %x %x %
    d386:	5b000a78 20696d6e 5d697073 6146203a     x..[nmi spi]: Fa
    d396:	64656c69 6f6c6220 64206b63 20617461     iled block data 
    d3a6:	74697277 2e2e2e65 6d6e5b00 70732069     write....[nmi sp
    d3b6:	203a5d69 6c696146 63206465 7720646d     i]: Failed cmd w
    d3c6:	65746972 7562202c 72652073 2e726f72     rite, bus error.
    d3d6:	5b002e2e 20696d6e 5d697073 6146203a     ...[nmi spi]: Fa
    d3e6:	64656c69 646d6320 73657220 736e6f70     iled cmd respons
    d3f6:	65722065 202c6461 20737562 6f727265     e read, bus erro
    d406:	2e2e2e72 6d6e5b00 70732069 203a5d69     r....[nmi spi]: 
    d416:	6c696146 64206465 20617461 70736572     Failed data resp
    d426:	65736e6f 61657220 62202c64 65207375     onse read, bus e
    d436:	726f7272 002e2e2e 696d6e5b 69707320     rror....[nmi spi
    d446:	46203a5d 656c6961 61642064 72206174     ]: Failed data r
    d456:	6f707365 2065736e 64616572 282e2e2e     esponse read...(
    d466:	78323025 5b000a29 20696d6e 5d697073     %02x)..[nmi spi]
    d476:	6146203a 64656c69 74616420 6c622061     : Failed data bl
    d486:	206b636f 64616572 7562202c 72652073     ock read, bus er
    d496:	2e726f72 5b002e2e 20696d6e 5d697073     ror....[nmi spi]
    d4a6:	6146203a 64656c69 74616420 6c622061     : Failed data bl
    d4b6:	206b636f 20637263 64616572 7562202c     ock crc read, bu
    d4c6:	72652073 2e726f72 5b002e2e 20696d6e     s error....[nmi 
    d4d6:	5d697073 6146203a 64656c69 646d6320     spi]: Failed cmd
    d4e6:	6572202c 72206461 28206765 78383025     , read reg (%08x
    d4f6:	2e2e2e29 6e5b000a 7320696d 3a5d6970     ).....[nmi spi]:
    d506:	69614620 2064656c 20646d63 70736572      Failed cmd resp
    d516:	65736e6f 6572202c 72206461 28206765     onse, read reg (
    d526:	78383025 2e2e2e29 6e5b000a 7320696d     %08x).....[nmi s
    d536:	3a5d6970 69614620 2064656c 61746164     pi]: Failed data
    d546:	61657220 2e2e2e64 73655200 61207465      read....Reset a
    d556:	7220646e 79727465 20642520 0a786c25     nd retry %d %lx.
    d566:	6d6e5b00 70732069 203a5d69 6c696146     .[nmi spi]: Fail
    d576:	63206465 202c646d 74697277 65722065     ed cmd, write re
    d586:	25282067 29783830 0a2e2e2e 6d6e5b00     g (%08x).....[nm
    d596:	70732069 203a5d69 6c696146 63206465     i spi]: Failed c
    d5a6:	7220646d 6f707365 2c65736e 69727720     md response, wri
    d5b6:	72206574 28206765 78383025 2e2e2e29     te reg (%08x)...
    d5c6:	6552000a 20746573 20646e61 72746572     ..Reset and retr
    d5d6:	64252079 786c2520 786c2520 4528000a     y %d %lx %lx..(E
    d5e6:	29525252 72727543 20746e65 3e64253c     RRR)Current <%d>
    d5f6:	6f53000a 74206b63 6564206f 6574656c     ..Sock to delete
    d606:	64253c20 53000a3e 656b636f 64252074      <%d>..Socket %d
    d616:	73657320 6e6f6973 20444920 6425203d      session ID = %d
    d626:	00000a0d 01000000                                ......

0000d62c <_tcc_apbcmasks>:
    d62c:	00000100 00000200 00000400              ............

0000d638 <_tcc_cc_nums>:
    d638:	1a020204                                         ...

0000d63b <_tcc_gclk_ids>:
    d63b:	001b1a1a ffffff00                                .....

0000d640 <_tcc_maxs>:
    d640:	00ffffff 00ffffff 0000ffff              ............

0000d64c <_tcc_ow_nums>:
    d64c:	00020408                                ....

0000d650 <_tcc_intflag>:
    d650:	00000001 00000002 00000004 00000008     ................
    d660:	00001000 00002000 00004000 00008000     ..... ...@......
    d670:	00010000 00020000 00040000 00080000     ................

0000d680 <tcc_interrupt_vectors.12458>:
    d680:	0011100f 42000800 42000c00 42001000     .......B...B...B
    d690:	42001400 42001800 42001c00 33323130     ...B...B...B0123
    d6a0:	37363534 62613938 66656463 54000d31     456789abcdef1..T
    d6b0:	736e6172 2d726566 6f636e45 676e6964     ransfer-Encoding
    d6c0:	4300203a 656e6e6f 6f697463 00203a6e     : .Connection: .
    d6d0:	50545448 4547002f 50002054 2054534f     HTTP/.GET .POST 
    d6e0:	4c454400 20455445 54555000 504f0020     .DELETE .PUT .OP
    d6f0:	4e4f4954 48002053 20444145 54482000     TIONS .HEAD . HT
    d700:	312f5054 0a0d312e 65735500 67412d72     TP/1.1...User-Ag
    d710:	3a746e65 6f480020 203a7473 6e6f4300     ent: .Host: .Con
    d720:	7463656e 3a6e6f69 65654b20 6c412d70     nection: Keep-Al
    d730:	0d657669 6341000a 74706563 636e452d     ive...Accept-Enc
    d740:	6e69646f 0d203a67 6341000a 74706563     oding: ...Accept
    d750:	6168432d 74657372 7475203a 0d382d66     -Charset: utf-8.
    d760:	7254000a 66736e61 452d7265 646f636e     ..Transfer-Encod
    d770:	3a676e69 75686320 64656b6e 25000a0d     ing: chunked...%
    d780:	6f430075 6e65746e 654c2d74 6874676e     u.Content-Length
    d790:	6100203a 6c656d74 302e312f 6800322e     : .atmel/1.0.2.h
    d7a0:	3a707474 68002f2f 73707474 002f2f3a     ttp://.https://.
    d7b0:	42002000 42002400 42002800              . .B.$.B.(.B

0000d7bc <__func__.16490>:
    d7bc:	726f7473 69665f65 61776d72 665f6572     store_firmware_f
    d7cc:	00656c69                                ile.

0000d7d0 <__func__.16499>:
    d7d0:	616e6966 657a696c 7269665f 7261776d     finalize_firmwar
    d7e0:	70755f65 65746164 6e6f6300 75676966     e_update.configu
    d7f0:	685f6572 5f707474 65696c63 203a746e     re_http_client: 
    d800:	50545448 696c6320 20746e65 74696e69     HTTP client init
    d810:	696c6169 6974617a 66206e6f 656c6961     ialization faile
    d820:	28202164 20736572 0d296425 616d000a     d! (res %d)...ma
    d830:	203a6e69 5f6d326d 69666977 696e695f     in: m2m_wifi_ini
    d840:	61632074 65206c6c 726f7272 72282021     t call error! (r
    d850:	25207365 0a0d2964 69616d00 63203a6e     es %d)...main: c
    d860:	656e6e6f 6e697463 6f742067 46695720     onnecting to WiF
    d870:	50412069 2e732520 0a0d2e2e 776f4400     i AP %s......Dow
    d880:	616f6c6e 676e6964 74656d20 74616461     nloading metadat
    d890:	2e2e2e61 55000d2e 74616470 76612065     a......Update av
    d8a0:	616c6961 2e656c62 776f4420 616f6c6e     ailable. Downloa
    d8b0:	676e6964 0d2e2e2e 74614c00 20747365     ding.....Latest 
    d8c0:	73726556 206e6f69 65726c61 20796461     Version already 
    d8d0:	74736e69 656c6c61 43002e64 6f204352     installed..CRC o
    d8e0:	6f642066 6f6c6e77 64656461 72696620     f downloaded fir
    d8f0:	7261776d 25203a65 000a0d78 746f7257     mware: %x...Wrot
    d900:	57462065 616d4920 74206567 6c66206f     e FW Image to fl
    d910:	2e687361 6c695720 7075206c 65746164     ash. Will update
    d920:	206e6f20 7478656e 6f6f6220 000d2e74      on next boot...
    d930:	70747468 696c635f 5f746e65 6c6c6163     http_client_call
    d940:	6b636162 5448203a 63205054 6e65696c     back: HTTP clien
    d950:	6f732074 74656b63 6e6f6320 7463656e     t socket connect
    d960:	0d2e6465 74746800 6c635f70 746e6569     ed...http_client
    d970:	6c61635f 6361626c 72203a6b 65757165     _callback: reque
    d980:	63207473 6c706d6f 64657465 68000d2e     st completed...h
    d990:	5f707474 65696c63 635f746e 626c6c61     ttp_client_callb
    d9a0:	3a6b6361 63657220 65766965 65722064     ack: received re
    d9b0:	6e6f7073 25206573 61642075 73206174     sponse %u data s
    d9c0:	20657a69 0a0d7525 776f4400 616f6c6e     ize %u...Downloa
    d9d0:	61632064 6c65636e 002e6465 70747468     d canceled..http
    d9e0:	696c635f 5f746e65 6c6c6163 6b636162     _client_callback
    d9f0:	6964203a 6e6f6373 7463656e 206e6f69     : disconnection 
    da00:	73616572 253a6e6f 000a0d64 78656e55     reason:%d...Unex
    da10:	74636570 64206465 20617461 6d206e69     pected data in m
    da20:	64617465 5f617461 66667562 0d217265     etadata_buffer!.
    da30:	72655300 20726576 73726556 206e6f69     .Server Version 
    da40:	25207369 000a0d73 76726553 73277265     is %s...Server's
    da50:	20574620 20435243 25207369 000a0d73      FW CRC is %s...
    da60:	203d3d3d 6e6f7244 44414465 3d3d3d20     === DroneDAD ===
    da70:	69616d00 64203a6e 2e656e6f 6572000d     .main: done...re
    da80:	766c6f73 62635f65 7325203a 20504920     solve_cb: %s IP 
    da90:	72646461 20737365 25207369 64252e64     address is %d.%d
    daa0:	2e64252e 0a0d6425 68000a0d 73707474     .%d.%d.....https
    dab0:	772f2f3a 732e7777 2e736165 6e657075     ://www.seas.upen
    dac0:	64652e6e 6a7e2f75 6372616d 642f6f61     n.edu/~jmarcao/d
    dad0:	77665f64 6e69622e 61747300 645f7472     d_fw.bin.start_d
    dae0:	6c6e776f 3a64616f 2d695720 69206946     ownload: Wi-Fi i
    daf0:	6f6e2073 6f632074 63656e6e 2e646574     s not connected.
    db00:	7473000d 5f747261 6e776f64 64616f6c     ..start_download
    db10:	6572203a 73657571 73692074 6e657320     : request is sen
    db20:	6c612074 64616572 000d2e79 72617473     t already...star
    db30:	6f645f74 6f6c6e77 203a6461 6e6e7572     t_download: runn
    db40:	20676e69 6e776f64 64616f6c 726c6120     ing download alr
    db50:	79646165 73000d2e 74726174 776f645f     eady...start_dow
    db60:	616f6c6e 73203a64 69646e65 4820676e     nload: sending H
    db70:	20505454 75716572 2e747365 000d2e2e     TTP request.....
    db80:	70747468 2f2f3a73 2e777777 73616573     https://www.seas
    db90:	6570752e 652e6e6e 7e2f7564 72616d6a     .upenn.edu/~jmar
    dba0:	2f6f6163 6d2e6464 00617465 65746e45     cao/dd.meta.Ente
    dbb0:	676e6972 0d732520 7453000a 6e69726f     ring %s...Storin
    dbc0:	64252067 74796220 69207365 7562206e     g %d bytes in bu
    dbd0:	72656666 77000a0d 5f696669 203a6263     ffer...wifi_cb: 
    dbe0:	5f4d324d 49464957 4e4f435f 5443454e     M2M_WIFI_CONNECT
    dbf0:	000d4445 69666977 3a62635f 4d324d20     ED..wifi_cb: M2M
    dc00:	4649575f 49445f49 4e4f4353 5443454e     _WIFI_DISCONNECT
    dc10:	000d4445 6e6e6570 30343731 69666977     ED..penn1740wifi
    dc20:	72694100 6e6e6550 2d74654e 69766544     .AirPennNet-Devi
    dc30:	77006563 5f696669 203a6263 61205049     ce.wifi_cb: IP a
    dc40:	65726464 69207373 75252073 2e75252e     ddress is %u.%u.
    dc50:	252e7525 000a0d75 0000a0a8 0000a08a     %u.%u...........
    dc60:	0000a044 00009f62 0000a044 0000a07c     D...b...D...|...
    dc70:	0000a044 00009f62 0000a08a 0000a08a     D...b...........
    dc80:	0000a07c 00009f62 00009f5a 00009f5a     |...b...Z...Z...
    dc90:	00009f5a 0000a2c0 0000a708 0000a5c8     Z...............
    dca0:	0000a5c8 0000a5c4 0000a6e0 0000a6e0     ................
    dcb0:	0000a6d2 0000a5c4 0000a6e0 0000a6d2     ................
    dcc0:	0000a6e0 0000a5c4 0000a6e8 0000a6e8     ................
    dcd0:	0000a6e8 0000a8ec                       ........

0000dcd8 <_global_impure_ptr>:
    dcd8:	20000030                                0.. 

0000dcdc <__sf_fake_stderr>:
	...

0000dcfc <__sf_fake_stdin>:
	...

0000dd1c <__sf_fake_stdout>:
	...
    dd3c:	4f500043 00584953 2b302d23 6c680020     C.POSIX.#-0+ .hl
    dd4c:	6665004c 47464567 32313000 36353433     L.efgEFG.0123456
    dd5c:	41393837 45444342 31300046 35343332     789ABCDEF.012345
    dd6c:	39383736 64636261 00006665                       6789abcdef.

0000dd77 <_ctype_>:
    dd77:	20202000 20202020 28282020 20282828     .         ((((( 
    dd87:	20202020 20202020 20202020 20202020                     
    dd97:	10108820 10101010 10101010 10101010      ...............
    dda7:	04040410 04040404 10040404 10101010     ................
    ddb7:	41411010 41414141 01010101 01010101     ..AAAAAA........
    ddc7:	01010101 01010101 01010101 10101010     ................
    ddd7:	42421010 42424242 02020202 02020202     ..BBBBBB........
    dde7:	02020202 02020202 02020202 10101010     ................
    ddf7:	00000020 00000000 00000000 00000000      ...............
	...

0000de78 <_init>:
    de78:	b5f8      	push	{r3, r4, r5, r6, r7, lr}
    de7a:	46c0      	nop			; (mov r8, r8)
    de7c:	bcf8      	pop	{r3, r4, r5, r6, r7}
    de7e:	bc08      	pop	{r3}
    de80:	469e      	mov	lr, r3
    de82:	4770      	bx	lr

0000de84 <__init_array_start>:
    de84:	000020dd 	.word	0x000020dd

0000de88 <_fini>:
    de88:	b5f8      	push	{r3, r4, r5, r6, r7, lr}
    de8a:	46c0      	nop			; (mov r8, r8)
    de8c:	bcf8      	pop	{r3, r4, r5, r6, r7}
    de8e:	bc08      	pop	{r3}
    de90:	469e      	mov	lr, r3
    de92:	4770      	bx	lr

0000de94 <__fini_array_start>:
    de94:	000020b5 	.word	0x000020b5
