
DroneDADBootloader.elf:     file format elf32-littlearm

Sections:
Idx Name          Size      VMA       LMA       File off  Algn
  0 .text         00003a54  00000000  00000000  00010000  2**2
                  CONTENTS, ALLOC, LOAD, READONLY, CODE
  1 .relocate     00000068  20000000  00003a54  00020000  2**2
                  CONTENTS, ALLOC, LOAD, DATA
  2 .bss          00000110  20000068  00003abc  00020068  2**2
                  ALLOC
  3 .stack        00002000  20000178  00003bcc  00020068  2**0
                  ALLOC
  4 .ARM.attributes 00000028  00000000  00000000  00020068  2**0
                  CONTENTS, READONLY
  5 .comment      00000059  00000000  00000000  00020090  2**0
                  CONTENTS, READONLY
  6 .debug_frame  00000838  00000000  00000000  000200ec  2**2
                  CONTENTS, READONLY, DEBUGGING

Disassembly of section .text:

00000000 <exception_table>:
       0:	78 21 00 20 55 1c 00 00 51 1c 00 00 51 1c 00 00     x!. U...Q...Q...
	...
      2c:	51 1c 00 00 00 00 00 00 00 00 00 00 51 1c 00 00     Q...........Q...
      3c:	51 1c 00 00 51 1c 00 00 51 1c 00 00 35 1c 00 00     Q...Q...Q...5...
      4c:	51 1c 00 00 51 1c 00 00 51 1c 00 00 51 1c 00 00     Q...Q...Q...Q...
      5c:	51 1c 00 00 51 1c 00 00 7d 0a 00 00 8d 0a 00 00     Q...Q...}.......
      6c:	9d 0a 00 00 ad 0a 00 00 bd 0a 00 00 cd 0a 00 00     ................
      7c:	51 1c 00 00 51 1c 00 00 51 1c 00 00 51 1c 00 00     Q...Q...Q...Q...
      8c:	51 1c 00 00 51 1c 00 00 00 00 00 00 00 00 00 00     Q...Q...........
      9c:	51 1c 00 00 51 1c 00 00 51 1c 00 00 51 1c 00 00     Q...Q...Q...Q...
      ac:	51 1c 00 00 00 00 00 00                             Q.......

000000b4 <__do_global_dtors_aux>:
      b4:	b510      	push	{r4, lr}
      b6:	4c06      	ldr	r4, [pc, #24]	; (d0 <__do_global_dtors_aux+0x1c>)
      b8:	7823      	ldrb	r3, [r4, #0]
      ba:	2b00      	cmp	r3, #0
      bc:	d107      	bne.n	ce <__do_global_dtors_aux+0x1a>
      be:	4b05      	ldr	r3, [pc, #20]	; (d4 <__do_global_dtors_aux+0x20>)
      c0:	2b00      	cmp	r3, #0
      c2:	d002      	beq.n	ca <__do_global_dtors_aux+0x16>
      c4:	4804      	ldr	r0, [pc, #16]	; (d8 <__do_global_dtors_aux+0x24>)
      c6:	e000      	b.n	ca <__do_global_dtors_aux+0x16>
      c8:	bf00      	nop
      ca:	2301      	movs	r3, #1
      cc:	7023      	strb	r3, [r4, #0]
      ce:	bd10      	pop	{r4, pc}
      d0:	20000068 	.word	0x20000068
      d4:	00000000 	.word	0x00000000
      d8:	00003a54 	.word	0x00003a54

000000dc <frame_dummy>:
      dc:	4b08      	ldr	r3, [pc, #32]	; (100 <frame_dummy+0x24>)
      de:	b510      	push	{r4, lr}
      e0:	2b00      	cmp	r3, #0
      e2:	d003      	beq.n	ec <frame_dummy+0x10>
      e4:	4907      	ldr	r1, [pc, #28]	; (104 <frame_dummy+0x28>)
      e6:	4808      	ldr	r0, [pc, #32]	; (108 <frame_dummy+0x2c>)
      e8:	e000      	b.n	ec <frame_dummy+0x10>
      ea:	bf00      	nop
      ec:	4807      	ldr	r0, [pc, #28]	; (10c <frame_dummy+0x30>)
      ee:	6803      	ldr	r3, [r0, #0]
      f0:	2b00      	cmp	r3, #0
      f2:	d100      	bne.n	f6 <frame_dummy+0x1a>
      f4:	bd10      	pop	{r4, pc}
      f6:	4b06      	ldr	r3, [pc, #24]	; (110 <frame_dummy+0x34>)
      f8:	2b00      	cmp	r3, #0
      fa:	d0fb      	beq.n	f4 <frame_dummy+0x18>
      fc:	4798      	blx	r3
      fe:	e7f9      	b.n	f4 <frame_dummy+0x18>
     100:	00000000 	.word	0x00000000
     104:	2000006c 	.word	0x2000006c
     108:	00003a54 	.word	0x00003a54
     10c:	00003a54 	.word	0x00003a54
     110:	00000000 	.word	0x00000000

00000114 <port_pin_set_output_level>:
     114:	2200      	movs	r2, #0
     116:	b510      	push	{r4, lr}
     118:	0943      	lsrs	r3, r0, #5
     11a:	09c4      	lsrs	r4, r0, #7
     11c:	4294      	cmp	r4, r2
     11e:	d102      	bne.n	126 <port_pin_set_output_level+0x12>
     120:	01da      	lsls	r2, r3, #7
     122:	4b06      	ldr	r3, [pc, #24]	; (13c <port_pin_set_output_level+0x28>)
     124:	18d2      	adds	r2, r2, r3
     126:	231f      	movs	r3, #31
     128:	4018      	ands	r0, r3
     12a:	3b1e      	subs	r3, #30
     12c:	4083      	lsls	r3, r0
     12e:	2900      	cmp	r1, #0
     130:	d001      	beq.n	136 <port_pin_set_output_level+0x22>
     132:	6193      	str	r3, [r2, #24]
     134:	bd10      	pop	{r4, pc}
     136:	6153      	str	r3, [r2, #20]
     138:	e7fc      	b.n	134 <port_pin_set_output_level+0x20>
     13a:	46c0      	nop			; (mov r8, r8)
     13c:	41004400 	.word	0x41004400

00000140 <spi_lock>:
     140:	b570      	push	{r4, r5, r6, lr}
     142:	0005      	movs	r5, r0
     144:	4b06      	ldr	r3, [pc, #24]	; (160 <spi_lock+0x20>)
     146:	4798      	blx	r3
     148:	792b      	ldrb	r3, [r5, #4]
     14a:	2405      	movs	r4, #5
     14c:	b2db      	uxtb	r3, r3
     14e:	2b00      	cmp	r3, #0
     150:	d102      	bne.n	158 <spi_lock+0x18>
     152:	2201      	movs	r2, #1
     154:	001c      	movs	r4, r3
     156:	712a      	strb	r2, [r5, #4]
     158:	4b02      	ldr	r3, [pc, #8]	; (164 <spi_lock+0x24>)
     15a:	4798      	blx	r3
     15c:	0020      	movs	r0, r4
     15e:	bd70      	pop	{r4, r5, r6, pc}
     160:	000006b5 	.word	0x000006b5
     164:	000006e9 	.word	0x000006e9

00000168 <_at25dfx_chip_issue_write_command_wait.isra.2>:
     168:	b5f0      	push	{r4, r5, r6, r7, lr}
     16a:	b085      	sub	sp, #20
     16c:	0015      	movs	r5, r2
     16e:	aa0a      	add	r2, sp, #40	; 0x28
     170:	0004      	movs	r4, r0
     172:	ca01      	ldmia	r2!, {r0}
     174:	8816      	ldrh	r6, [r2, #0]
     176:	aa02      	add	r2, sp, #8
     178:	9001      	str	r0, [sp, #4]
     17a:	7011      	strb	r1, [r2, #0]
     17c:	2d01      	cmp	r5, #1
     17e:	d905      	bls.n	18c <_at25dfx_chip_issue_write_command_wait.isra.2+0x24>
     180:	70d3      	strb	r3, [r2, #3]
     182:	a902      	add	r1, sp, #8
     184:	0a1a      	lsrs	r2, r3, #8
     186:	0c1b      	lsrs	r3, r3, #16
     188:	708a      	strb	r2, [r1, #2]
     18a:	704b      	strb	r3, [r1, #1]
     18c:	7960      	ldrb	r0, [r4, #5]
     18e:	2100      	movs	r1, #0
     190:	4f08      	ldr	r7, [pc, #32]	; (1b4 <_at25dfx_chip_issue_write_command_wait.isra.2+0x4c>)
     192:	47b8      	blx	r7
     194:	b2aa      	uxth	r2, r5
     196:	a902      	add	r1, sp, #8
     198:	6820      	ldr	r0, [r4, #0]
     19a:	4d07      	ldr	r5, [pc, #28]	; (1b8 <_at25dfx_chip_issue_write_command_wait.isra.2+0x50>)
     19c:	47a8      	blx	r5
     19e:	2e00      	cmp	r6, #0
     1a0:	d003      	beq.n	1aa <_at25dfx_chip_issue_write_command_wait.isra.2+0x42>
     1a2:	0032      	movs	r2, r6
     1a4:	9901      	ldr	r1, [sp, #4]
     1a6:	6820      	ldr	r0, [r4, #0]
     1a8:	47a8      	blx	r5
     1aa:	7960      	ldrb	r0, [r4, #5]
     1ac:	2101      	movs	r1, #1
     1ae:	47b8      	blx	r7
     1b0:	b005      	add	sp, #20
     1b2:	bdf0      	pop	{r4, r5, r6, r7, pc}
     1b4:	00000115 	.word	0x00000115
     1b8:	00000e55 	.word	0x00000e55

000001bc <_at25dfx_chip_issue_read_command_wait.isra.3>:
     1bc:	b5f0      	push	{r4, r5, r6, r7, lr}
     1be:	b085      	sub	sp, #20
     1c0:	0015      	movs	r5, r2
     1c2:	aa0a      	add	r2, sp, #40	; 0x28
     1c4:	0004      	movs	r4, r0
     1c6:	ca01      	ldmia	r2!, {r0}
     1c8:	8816      	ldrh	r6, [r2, #0]
     1ca:	aa02      	add	r2, sp, #8
     1cc:	9001      	str	r0, [sp, #4]
     1ce:	7011      	strb	r1, [r2, #0]
     1d0:	2d01      	cmp	r5, #1
     1d2:	d905      	bls.n	1e0 <_at25dfx_chip_issue_read_command_wait.isra.3+0x24>
     1d4:	70d3      	strb	r3, [r2, #3]
     1d6:	a902      	add	r1, sp, #8
     1d8:	0a1a      	lsrs	r2, r3, #8
     1da:	0c1b      	lsrs	r3, r3, #16
     1dc:	708a      	strb	r2, [r1, #2]
     1de:	704b      	strb	r3, [r1, #1]
     1e0:	7960      	ldrb	r0, [r4, #5]
     1e2:	2100      	movs	r1, #0
     1e4:	4f09      	ldr	r7, [pc, #36]	; (20c <_at25dfx_chip_issue_read_command_wait.isra.3+0x50>)
     1e6:	47b8      	blx	r7
     1e8:	b2aa      	uxth	r2, r5
     1ea:	a902      	add	r1, sp, #8
     1ec:	6820      	ldr	r0, [r4, #0]
     1ee:	4b08      	ldr	r3, [pc, #32]	; (210 <_at25dfx_chip_issue_read_command_wait.isra.3+0x54>)
     1f0:	4798      	blx	r3
     1f2:	2e00      	cmp	r6, #0
     1f4:	d005      	beq.n	202 <_at25dfx_chip_issue_read_command_wait.isra.3+0x46>
     1f6:	2300      	movs	r3, #0
     1f8:	0032      	movs	r2, r6
     1fa:	9901      	ldr	r1, [sp, #4]
     1fc:	6820      	ldr	r0, [r4, #0]
     1fe:	4d05      	ldr	r5, [pc, #20]	; (214 <_at25dfx_chip_issue_read_command_wait.isra.3+0x58>)
     200:	47a8      	blx	r5
     202:	7960      	ldrb	r0, [r4, #5]
     204:	2101      	movs	r1, #1
     206:	47b8      	blx	r7
     208:	b005      	add	sp, #20
     20a:	bdf0      	pop	{r4, r5, r6, r7, pc}
     20c:	00000115 	.word	0x00000115
     210:	00000e55 	.word	0x00000e55
     214:	00000d61 	.word	0x00000d61

00000218 <at25dfx_chip_read_buffer>:
     218:	b5f7      	push	{r0, r1, r2, r4, r5, r6, r7, lr}
     21a:	000d      	movs	r5, r1
     21c:	001e      	movs	r6, r3
     21e:	1859      	adds	r1, r3, r1
     220:	7903      	ldrb	r3, [r0, #4]
     222:	0017      	movs	r7, r2
     224:	0004      	movs	r4, r0
     226:	2200      	movs	r2, #0
     228:	2b09      	cmp	r3, #9
     22a:	d802      	bhi.n	232 <at25dfx_chip_read_buffer+0x1a>
     22c:	4a0b      	ldr	r2, [pc, #44]	; (25c <at25dfx_chip_read_buffer+0x44>)
     22e:	009b      	lsls	r3, r3, #2
     230:	589a      	ldr	r2, [r3, r2]
     232:	2017      	movs	r0, #23
     234:	4291      	cmp	r1, r2
     236:	d80f      	bhi.n	258 <at25dfx_chip_read_buffer+0x40>
     238:	6820      	ldr	r0, [r4, #0]
     23a:	4b09      	ldr	r3, [pc, #36]	; (260 <at25dfx_chip_read_buffer+0x48>)
     23c:	4798      	blx	r3
     23e:	2805      	cmp	r0, #5
     240:	d00a      	beq.n	258 <at25dfx_chip_read_buffer+0x40>
     242:	002b      	movs	r3, r5
     244:	0020      	movs	r0, r4
     246:	9601      	str	r6, [sp, #4]
     248:	9700      	str	r7, [sp, #0]
     24a:	2205      	movs	r2, #5
     24c:	210b      	movs	r1, #11
     24e:	4d05      	ldr	r5, [pc, #20]	; (264 <at25dfx_chip_read_buffer+0x4c>)
     250:	47a8      	blx	r5
     252:	2000      	movs	r0, #0
     254:	6823      	ldr	r3, [r4, #0]
     256:	7118      	strb	r0, [r3, #4]
     258:	bdfe      	pop	{r1, r2, r3, r4, r5, r6, r7, pc}
     25a:	46c0      	nop			; (mov r8, r8)
     25c:	00003704 	.word	0x00003704
     260:	00000141 	.word	0x00000141
     264:	000001bd 	.word	0x000001bd

00000268 <at25dfx_chip_sleep>:
     268:	b573      	push	{r0, r1, r4, r5, r6, lr}
     26a:	4b09      	ldr	r3, [pc, #36]	; (290 <at25dfx_chip_sleep+0x28>)
     26c:	0005      	movs	r5, r0
     26e:	6800      	ldr	r0, [r0, #0]
     270:	4798      	blx	r3
     272:	2805      	cmp	r0, #5
     274:	d00b      	beq.n	28e <at25dfx_chip_sleep+0x26>
     276:	2400      	movs	r4, #0
     278:	0028      	movs	r0, r5
     27a:	0023      	movs	r3, r4
     27c:	9401      	str	r4, [sp, #4]
     27e:	9400      	str	r4, [sp, #0]
     280:	2201      	movs	r2, #1
     282:	21b9      	movs	r1, #185	; 0xb9
     284:	4e03      	ldr	r6, [pc, #12]	; (294 <at25dfx_chip_sleep+0x2c>)
     286:	47b0      	blx	r6
     288:	0020      	movs	r0, r4
     28a:	682b      	ldr	r3, [r5, #0]
     28c:	711c      	strb	r4, [r3, #4]
     28e:	bd76      	pop	{r1, r2, r4, r5, r6, pc}
     290:	00000141 	.word	0x00000141
     294:	00000169 	.word	0x00000169

00000298 <at25dfx_chip_wake>:
     298:	b573      	push	{r0, r1, r4, r5, r6, lr}
     29a:	4b09      	ldr	r3, [pc, #36]	; (2c0 <at25dfx_chip_wake+0x28>)
     29c:	0005      	movs	r5, r0
     29e:	6800      	ldr	r0, [r0, #0]
     2a0:	4798      	blx	r3
     2a2:	2805      	cmp	r0, #5
     2a4:	d00b      	beq.n	2be <at25dfx_chip_wake+0x26>
     2a6:	2400      	movs	r4, #0
     2a8:	0028      	movs	r0, r5
     2aa:	0023      	movs	r3, r4
     2ac:	9401      	str	r4, [sp, #4]
     2ae:	9400      	str	r4, [sp, #0]
     2b0:	2201      	movs	r2, #1
     2b2:	21ab      	movs	r1, #171	; 0xab
     2b4:	4e03      	ldr	r6, [pc, #12]	; (2c4 <at25dfx_chip_wake+0x2c>)
     2b6:	47b0      	blx	r6
     2b8:	0020      	movs	r0, r4
     2ba:	682b      	ldr	r3, [r5, #0]
     2bc:	711c      	strb	r4, [r3, #4]
     2be:	bd76      	pop	{r1, r2, r4, r5, r6, pc}
     2c0:	00000141 	.word	0x00000141
     2c4:	00000169 	.word	0x00000169

000002c8 <dsu_crc32_cal>:
     2c8:	b5f8      	push	{r3, r4, r5, r6, r7, lr}
     2ca:	2303      	movs	r3, #3
     2cc:	0005      	movs	r5, r0
     2ce:	4003      	ands	r3, r0
     2d0:	000e      	movs	r6, r1
     2d2:	0014      	movs	r4, r2
     2d4:	2018      	movs	r0, #24
     2d6:	2b00      	cmp	r3, #0
     2d8:	d124      	bne.n	324 <dsu_crc32_cal+0x5c>
     2da:	b672      	cpsid	i
     2dc:	f3bf 8f5f 	dmb	sy
     2e0:	2122      	movs	r1, #34	; 0x22
     2e2:	4f17      	ldr	r7, [pc, #92]	; (340 <dsu_crc32_cal+0x78>)
     2e4:	4249      	negs	r1, r1
     2e6:	703b      	strb	r3, [r7, #0]
     2e8:	3009      	adds	r0, #9
     2ea:	4b16      	ldr	r3, [pc, #88]	; (344 <dsu_crc32_cal+0x7c>)
     2ec:	4798      	blx	r3
     2ee:	4b16      	ldr	r3, [pc, #88]	; (348 <dsu_crc32_cal+0x80>)
     2f0:	6822      	ldr	r2, [r4, #0]
     2f2:	60da      	str	r2, [r3, #12]
     2f4:	2204      	movs	r2, #4
     2f6:	605d      	str	r5, [r3, #4]
     2f8:	609e      	str	r6, [r3, #8]
     2fa:	2601      	movs	r6, #1
     2fc:	7819      	ldrb	r1, [r3, #0]
     2fe:	430a      	orrs	r2, r1
     300:	701a      	strb	r2, [r3, #0]
     302:	785a      	ldrb	r2, [r3, #1]
     304:	4232      	tst	r2, r6
     306:	d0fc      	beq.n	302 <dsu_crc32_cal+0x3a>
     308:	2004      	movs	r0, #4
     30a:	785d      	ldrb	r5, [r3, #1]
     30c:	4a0f      	ldr	r2, [pc, #60]	; (34c <dsu_crc32_cal+0x84>)
     30e:	4005      	ands	r5, r0
     310:	d009      	beq.n	326 <dsu_crc32_cal+0x5e>
     312:	2122      	movs	r1, #34	; 0x22
     314:	301d      	adds	r0, #29
     316:	4249      	negs	r1, r1
     318:	4790      	blx	r2
     31a:	703e      	strb	r6, [r7, #0]
     31c:	f3bf 8f5f 	dmb	sy
     320:	b662      	cpsie	i
     322:	2010      	movs	r0, #16
     324:	bdf8      	pop	{r3, r4, r5, r6, r7, pc}
     326:	68d9      	ldr	r1, [r3, #12]
     328:	2021      	movs	r0, #33	; 0x21
     32a:	6021      	str	r1, [r4, #0]
     32c:	2122      	movs	r1, #34	; 0x22
     32e:	705e      	strb	r6, [r3, #1]
     330:	4249      	negs	r1, r1
     332:	4790      	blx	r2
     334:	703e      	strb	r6, [r7, #0]
     336:	f3bf 8f5f 	dmb	sy
     33a:	b662      	cpsie	i
     33c:	0028      	movs	r0, r5
     33e:	e7f1      	b.n	324 <dsu_crc32_cal+0x5c>
     340:	20000000 	.word	0x20000000
     344:	00000641 	.word	0x00000641
     348:	41002000 	.word	0x41002000
     34c:	000005f1 	.word	0x000005f1

00000350 <nvm_is_ready>:
     350:	4b02      	ldr	r3, [pc, #8]	; (35c <nvm_is_ready+0xc>)
     352:	7d18      	ldrb	r0, [r3, #20]
     354:	2301      	movs	r3, #1
     356:	4018      	ands	r0, r3
     358:	4770      	bx	lr
     35a:	46c0      	nop			; (mov r8, r8)
     35c:	41004000 	.word	0x41004000

00000360 <nvm_set_config>:
     360:	2304      	movs	r3, #4
     362:	b570      	push	{r4, r5, r6, lr}
     364:	4a1c      	ldr	r2, [pc, #112]	; (3d8 <nvm_set_config+0x78>)
     366:	4d1d      	ldr	r5, [pc, #116]	; (3dc <nvm_set_config+0x7c>)
     368:	69d1      	ldr	r1, [r2, #28]
     36a:	0004      	movs	r4, r0
     36c:	430b      	orrs	r3, r1
     36e:	61d3      	str	r3, [r2, #28]
     370:	2320      	movs	r3, #32
     372:	33ff      	adds	r3, #255	; 0xff
     374:	832b      	strh	r3, [r5, #24]
     376:	4b1a      	ldr	r3, [pc, #104]	; (3e0 <nvm_set_config+0x80>)
     378:	4798      	blx	r3
     37a:	0003      	movs	r3, r0
     37c:	2005      	movs	r0, #5
     37e:	2b00      	cmp	r3, #0
     380:	d028      	beq.n	3d4 <nvm_set_config+0x74>
     382:	22c0      	movs	r2, #192	; 0xc0
     384:	211e      	movs	r1, #30
     386:	7823      	ldrb	r3, [r4, #0]
     388:	0092      	lsls	r2, r2, #2
     38a:	021b      	lsls	r3, r3, #8
     38c:	4013      	ands	r3, r2
     38e:	78a2      	ldrb	r2, [r4, #2]
     390:	0052      	lsls	r2, r2, #1
     392:	400a      	ands	r2, r1
     394:	2180      	movs	r1, #128	; 0x80
     396:	4313      	orrs	r3, r2
     398:	7862      	ldrb	r2, [r4, #1]
     39a:	02c9      	lsls	r1, r1, #11
     39c:	01d2      	lsls	r2, r2, #7
     39e:	4313      	orrs	r3, r2
     3a0:	78e2      	ldrb	r2, [r4, #3]
     3a2:	0492      	lsls	r2, r2, #18
     3a4:	400a      	ands	r2, r1
     3a6:	21c0      	movs	r1, #192	; 0xc0
     3a8:	4313      	orrs	r3, r2
     3aa:	7922      	ldrb	r2, [r4, #4]
     3ac:	0289      	lsls	r1, r1, #10
     3ae:	0412      	lsls	r2, r2, #16
     3b0:	400a      	ands	r2, r1
     3b2:	2108      	movs	r1, #8
     3b4:	4313      	orrs	r3, r2
     3b6:	606b      	str	r3, [r5, #4]
     3b8:	68ab      	ldr	r3, [r5, #8]
     3ba:	4a0a      	ldr	r2, [pc, #40]	; (3e4 <nvm_set_config+0x84>)
     3bc:	035b      	lsls	r3, r3, #13
     3be:	0f5b      	lsrs	r3, r3, #29
     3c0:	4099      	lsls	r1, r3
     3c2:	8011      	strh	r1, [r2, #0]
     3c4:	68ab      	ldr	r3, [r5, #8]
     3c6:	8053      	strh	r3, [r2, #2]
     3c8:	7863      	ldrb	r3, [r4, #1]
     3ca:	7113      	strb	r3, [r2, #4]
     3cc:	8b28      	ldrh	r0, [r5, #24]
     3ce:	05c0      	lsls	r0, r0, #23
     3d0:	0fc0      	lsrs	r0, r0, #31
     3d2:	0100      	lsls	r0, r0, #4
     3d4:	bd70      	pop	{r4, r5, r6, pc}
     3d6:	46c0      	nop			; (mov r8, r8)
     3d8:	40000400 	.word	0x40000400
     3dc:	41004000 	.word	0x41004000
     3e0:	00000351 	.word	0x00000351
     3e4:	20000084 	.word	0x20000084

000003e8 <nvm_execute_command>:
     3e8:	b5f7      	push	{r0, r1, r2, r4, r5, r6, r7, lr}
     3ea:	4a24      	ldr	r2, [pc, #144]	; (47c <nvm_execute_command+0x94>)
     3ec:	9101      	str	r1, [sp, #4]
     3ee:	8853      	ldrh	r3, [r2, #2]
     3f0:	8811      	ldrh	r1, [r2, #0]
     3f2:	9a01      	ldr	r2, [sp, #4]
     3f4:	434b      	muls	r3, r1
     3f6:	0004      	movs	r4, r0
     3f8:	4293      	cmp	r3, r2
     3fa:	d207      	bcs.n	40c <nvm_execute_command+0x24>
     3fc:	2280      	movs	r2, #128	; 0x80
     3fe:	9b01      	ldr	r3, [sp, #4]
     400:	491f      	ldr	r1, [pc, #124]	; (480 <nvm_execute_command+0x98>)
     402:	0192      	lsls	r2, r2, #6
     404:	185b      	adds	r3, r3, r1
     406:	2018      	movs	r0, #24
     408:	4293      	cmp	r3, r2
     40a:	d80f      	bhi.n	42c <nvm_execute_command+0x44>
     40c:	2380      	movs	r3, #128	; 0x80
     40e:	4d1d      	ldr	r5, [pc, #116]	; (484 <nvm_execute_command+0x9c>)
     410:	02db      	lsls	r3, r3, #11
     412:	686f      	ldr	r7, [r5, #4]
     414:	002e      	movs	r6, r5
     416:	433b      	orrs	r3, r7
     418:	606b      	str	r3, [r5, #4]
     41a:	2320      	movs	r3, #32
     41c:	33ff      	adds	r3, #255	; 0xff
     41e:	832b      	strh	r3, [r5, #24]
     420:	4b19      	ldr	r3, [pc, #100]	; (488 <nvm_execute_command+0xa0>)
     422:	4798      	blx	r3
     424:	2800      	cmp	r0, #0
     426:	d102      	bne.n	42e <nvm_execute_command+0x46>
     428:	606f      	str	r7, [r5, #4]
     42a:	3005      	adds	r0, #5
     42c:	bdfe      	pop	{r1, r2, r3, r4, r5, r6, r7, pc}
     42e:	2c06      	cmp	r4, #6
     430:	d814      	bhi.n	45c <nvm_execute_command+0x74>
     432:	2c05      	cmp	r4, #5
     434:	d21b      	bcs.n	46e <nvm_execute_command+0x86>
     436:	2c02      	cmp	r4, #2
     438:	d001      	beq.n	43e <nvm_execute_command+0x56>
     43a:	2c04      	cmp	r4, #4
     43c:	d114      	bne.n	468 <nvm_execute_command+0x80>
     43e:	9b01      	ldr	r3, [sp, #4]
     440:	089b      	lsrs	r3, r3, #2
     442:	005b      	lsls	r3, r3, #1
     444:	61f3      	str	r3, [r6, #28]
     446:	23a5      	movs	r3, #165	; 0xa5
     448:	021b      	lsls	r3, r3, #8
     44a:	431c      	orrs	r4, r3
     44c:	8034      	strh	r4, [r6, #0]
     44e:	4b0e      	ldr	r3, [pc, #56]	; (488 <nvm_execute_command+0xa0>)
     450:	4798      	blx	r3
     452:	2800      	cmp	r0, #0
     454:	d0fb      	beq.n	44e <nvm_execute_command+0x66>
     456:	6077      	str	r7, [r6, #4]
     458:	2000      	movs	r0, #0
     45a:	e7e7      	b.n	42c <nvm_execute_command+0x44>
     45c:	2c40      	cmp	r4, #64	; 0x40
     45e:	d303      	bcc.n	468 <nvm_execute_command+0x80>
     460:	2c41      	cmp	r4, #65	; 0x41
     462:	d9ec      	bls.n	43e <nvm_execute_command+0x56>
     464:	2c45      	cmp	r4, #69	; 0x45
     466:	d9ee      	bls.n	446 <nvm_execute_command+0x5e>
     468:	6077      	str	r7, [r6, #4]
     46a:	2017      	movs	r0, #23
     46c:	e7de      	b.n	42c <nvm_execute_command+0x44>
     46e:	8b2b      	ldrh	r3, [r5, #24]
     470:	05db      	lsls	r3, r3, #23
     472:	d5e4      	bpl.n	43e <nvm_execute_command+0x56>
     474:	606f      	str	r7, [r5, #4]
     476:	2010      	movs	r0, #16
     478:	e7d8      	b.n	42c <nvm_execute_command+0x44>
     47a:	46c0      	nop			; (mov r8, r8)
     47c:	20000084 	.word	0x20000084
     480:	ff7fc000 	.word	0xff7fc000
     484:	41004000 	.word	0x41004000
     488:	00000351 	.word	0x00000351

0000048c <nvm_write_buffer>:
     48c:	b5f7      	push	{r0, r1, r2, r4, r5, r6, r7, lr}
     48e:	4e21      	ldr	r6, [pc, #132]	; (514 <nvm_write_buffer+0x88>)
     490:	9100      	str	r1, [sp, #0]
     492:	8833      	ldrh	r3, [r6, #0]
     494:	8871      	ldrh	r1, [r6, #2]
     496:	0015      	movs	r5, r2
     498:	4359      	muls	r1, r3
     49a:	0004      	movs	r4, r0
     49c:	2218      	movs	r2, #24
     49e:	4281      	cmp	r1, r0
     4a0:	d326      	bcc.n	4f0 <nvm_write_buffer+0x64>
     4a2:	1e59      	subs	r1, r3, #1
     4a4:	4208      	tst	r0, r1
     4a6:	d123      	bne.n	4f0 <nvm_write_buffer+0x64>
     4a8:	3a01      	subs	r2, #1
     4aa:	42ab      	cmp	r3, r5
     4ac:	d320      	bcc.n	4f0 <nvm_write_buffer+0x64>
     4ae:	4f1a      	ldr	r7, [pc, #104]	; (518 <nvm_write_buffer+0x8c>)
     4b0:	47b8      	blx	r7
     4b2:	2205      	movs	r2, #5
     4b4:	2800      	cmp	r0, #0
     4b6:	d01b      	beq.n	4f0 <nvm_write_buffer+0x64>
     4b8:	4b18      	ldr	r3, [pc, #96]	; (51c <nvm_write_buffer+0x90>)
     4ba:	4a19      	ldr	r2, [pc, #100]	; (520 <nvm_write_buffer+0x94>)
     4bc:	801a      	strh	r2, [r3, #0]
     4be:	9301      	str	r3, [sp, #4]
     4c0:	47b8      	blx	r7
     4c2:	2800      	cmp	r0, #0
     4c4:	d0fc      	beq.n	4c0 <nvm_write_buffer+0x34>
     4c6:	2320      	movs	r3, #32
     4c8:	9a01      	ldr	r2, [sp, #4]
     4ca:	33ff      	adds	r3, #255	; 0xff
     4cc:	8313      	strh	r3, [r2, #24]
     4ce:	2300      	movs	r3, #0
     4d0:	0862      	lsrs	r2, r4, #1
     4d2:	0052      	lsls	r2, r2, #1
     4d4:	1e68      	subs	r0, r5, #1
     4d6:	429d      	cmp	r5, r3
     4d8:	d80c      	bhi.n	4f4 <nvm_write_buffer+0x68>
     4da:	2200      	movs	r2, #0
     4dc:	7933      	ldrb	r3, [r6, #4]
     4de:	4293      	cmp	r3, r2
     4e0:	d106      	bne.n	4f0 <nvm_write_buffer+0x64>
     4e2:	2d3f      	cmp	r5, #63	; 0x3f
     4e4:	d804      	bhi.n	4f0 <nvm_write_buffer+0x64>
     4e6:	0021      	movs	r1, r4
     4e8:	2004      	movs	r0, #4
     4ea:	4b0e      	ldr	r3, [pc, #56]	; (524 <nvm_write_buffer+0x98>)
     4ec:	4798      	blx	r3
     4ee:	0002      	movs	r2, r0
     4f0:	0010      	movs	r0, r2
     4f2:	bdfe      	pop	{r1, r2, r3, r4, r5, r6, r7, pc}
     4f4:	9900      	ldr	r1, [sp, #0]
     4f6:	5cc9      	ldrb	r1, [r1, r3]
     4f8:	4283      	cmp	r3, r0
     4fa:	db05      	blt.n	508 <nvm_write_buffer+0x7c>
     4fc:	b289      	uxth	r1, r1
     4fe:	3302      	adds	r3, #2
     500:	8011      	strh	r1, [r2, #0]
     502:	b29b      	uxth	r3, r3
     504:	3202      	adds	r2, #2
     506:	e7e6      	b.n	4d6 <nvm_write_buffer+0x4a>
     508:	9f00      	ldr	r7, [sp, #0]
     50a:	18ff      	adds	r7, r7, r3
     50c:	787f      	ldrb	r7, [r7, #1]
     50e:	023f      	lsls	r7, r7, #8
     510:	4339      	orrs	r1, r7
     512:	e7f4      	b.n	4fe <nvm_write_buffer+0x72>
     514:	20000084 	.word	0x20000084
     518:	00000351 	.word	0x00000351
     51c:	41004000 	.word	0x41004000
     520:	ffffa544 	.word	0xffffa544
     524:	000003e9 	.word	0x000003e9

00000528 <nvm_read_buffer>:
     528:	b5f8      	push	{r3, r4, r5, r6, r7, lr}
     52a:	4b16      	ldr	r3, [pc, #88]	; (584 <nvm_read_buffer+0x5c>)
     52c:	000f      	movs	r7, r1
     52e:	0016      	movs	r6, r2
     530:	8859      	ldrh	r1, [r3, #2]
     532:	881a      	ldrh	r2, [r3, #0]
     534:	0005      	movs	r5, r0
     536:	4351      	muls	r1, r2
     538:	2318      	movs	r3, #24
     53a:	4281      	cmp	r1, r0
     53c:	d314      	bcc.n	568 <nvm_read_buffer+0x40>
     53e:	1e54      	subs	r4, r2, #1
     540:	4004      	ands	r4, r0
     542:	d111      	bne.n	568 <nvm_read_buffer+0x40>
     544:	3b01      	subs	r3, #1
     546:	42b2      	cmp	r2, r6
     548:	d30e      	bcc.n	568 <nvm_read_buffer+0x40>
     54a:	4b0f      	ldr	r3, [pc, #60]	; (588 <nvm_read_buffer+0x60>)
     54c:	4798      	blx	r3
     54e:	2305      	movs	r3, #5
     550:	2800      	cmp	r0, #0
     552:	d009      	beq.n	568 <nvm_read_buffer+0x40>
     554:	2220      	movs	r2, #32
     556:	4b0d      	ldr	r3, [pc, #52]	; (58c <nvm_read_buffer+0x64>)
     558:	32ff      	adds	r2, #255	; 0xff
     55a:	086d      	lsrs	r5, r5, #1
     55c:	831a      	strh	r2, [r3, #24]
     55e:	006d      	lsls	r5, r5, #1
     560:	1e71      	subs	r1, r6, #1
     562:	42a6      	cmp	r6, r4
     564:	d802      	bhi.n	56c <nvm_read_buffer+0x44>
     566:	2300      	movs	r3, #0
     568:	0018      	movs	r0, r3
     56a:	bdf8      	pop	{r3, r4, r5, r6, r7, pc}
     56c:	882b      	ldrh	r3, [r5, #0]
     56e:	b29b      	uxth	r3, r3
     570:	553b      	strb	r3, [r7, r4]
     572:	428c      	cmp	r4, r1
     574:	da02      	bge.n	57c <nvm_read_buffer+0x54>
     576:	193a      	adds	r2, r7, r4
     578:	0a1b      	lsrs	r3, r3, #8
     57a:	7053      	strb	r3, [r2, #1]
     57c:	3402      	adds	r4, #2
     57e:	b2a4      	uxth	r4, r4
     580:	3502      	adds	r5, #2
     582:	e7ee      	b.n	562 <nvm_read_buffer+0x3a>
     584:	20000084 	.word	0x20000084
     588:	00000351 	.word	0x00000351
     58c:	41004000 	.word	0x41004000

00000590 <nvm_erase_row>:
     590:	b570      	push	{r4, r5, r6, lr}
     592:	4a13      	ldr	r2, [pc, #76]	; (5e0 <nvm_erase_row+0x50>)
     594:	0004      	movs	r4, r0
     596:	8813      	ldrh	r3, [r2, #0]
     598:	8852      	ldrh	r2, [r2, #2]
     59a:	2018      	movs	r0, #24
     59c:	435a      	muls	r2, r3
     59e:	42a2      	cmp	r2, r4
     5a0:	d31c      	bcc.n	5dc <nvm_erase_row+0x4c>
     5a2:	009b      	lsls	r3, r3, #2
     5a4:	3b01      	subs	r3, #1
     5a6:	421c      	tst	r4, r3
     5a8:	d118      	bne.n	5dc <nvm_erase_row+0x4c>
     5aa:	4d0e      	ldr	r5, [pc, #56]	; (5e4 <nvm_erase_row+0x54>)
     5ac:	47a8      	blx	r5
     5ae:	0003      	movs	r3, r0
     5b0:	2005      	movs	r0, #5
     5b2:	2b00      	cmp	r3, #0
     5b4:	d012      	beq.n	5dc <nvm_erase_row+0x4c>
     5b6:	2220      	movs	r2, #32
     5b8:	4b0b      	ldr	r3, [pc, #44]	; (5e8 <nvm_erase_row+0x58>)
     5ba:	08a4      	lsrs	r4, r4, #2
     5bc:	32ff      	adds	r2, #255	; 0xff
     5be:	0064      	lsls	r4, r4, #1
     5c0:	831a      	strh	r2, [r3, #24]
     5c2:	61dc      	str	r4, [r3, #28]
     5c4:	001c      	movs	r4, r3
     5c6:	4a09      	ldr	r2, [pc, #36]	; (5ec <nvm_erase_row+0x5c>)
     5c8:	801a      	strh	r2, [r3, #0]
     5ca:	47a8      	blx	r5
     5cc:	2800      	cmp	r0, #0
     5ce:	d0fc      	beq.n	5ca <nvm_erase_row+0x3a>
     5d0:	231c      	movs	r3, #28
     5d2:	8b20      	ldrh	r0, [r4, #24]
     5d4:	4018      	ands	r0, r3
     5d6:	1e43      	subs	r3, r0, #1
     5d8:	4198      	sbcs	r0, r3
     5da:	0080      	lsls	r0, r0, #2
     5dc:	bd70      	pop	{r4, r5, r6, pc}
     5de:	46c0      	nop			; (mov r8, r8)
     5e0:	20000084 	.word	0x20000084
     5e4:	00000351 	.word	0x00000351
     5e8:	41004000 	.word	0x41004000
     5ec:	ffffa502 	.word	0xffffa502

000005f0 <system_peripheral_lock>:
     5f0:	43c2      	mvns	r2, r0
     5f2:	0003      	movs	r3, r0
     5f4:	2017      	movs	r0, #23
     5f6:	428a      	cmp	r2, r1
     5f8:	d109      	bne.n	60e <system_peripheral_lock+0x1e>
     5fa:	221f      	movs	r2, #31
     5fc:	401a      	ands	r2, r3
     5fe:	095b      	lsrs	r3, r3, #5
     600:	b2db      	uxtb	r3, r3
     602:	2b01      	cmp	r3, #1
     604:	d00c      	beq.n	620 <system_peripheral_lock+0x30>
     606:	2b00      	cmp	r3, #0
     608:	d002      	beq.n	610 <system_peripheral_lock+0x20>
     60a:	2b02      	cmp	r3, #2
     60c:	d00d      	beq.n	62a <system_peripheral_lock+0x3a>
     60e:	4770      	bx	lr
     610:	2101      	movs	r1, #1
     612:	4091      	lsls	r1, r2
     614:	000a      	movs	r2, r1
     616:	2180      	movs	r1, #128	; 0x80
     618:	05c9      	lsls	r1, r1, #23
     61a:	604a      	str	r2, [r1, #4]
     61c:	2000      	movs	r0, #0
     61e:	e7f6      	b.n	60e <system_peripheral_lock+0x1e>
     620:	4093      	lsls	r3, r2
     622:	2282      	movs	r2, #130	; 0x82
     624:	05d2      	lsls	r2, r2, #23
     626:	6053      	str	r3, [r2, #4]
     628:	e7f8      	b.n	61c <system_peripheral_lock+0x2c>
     62a:	2301      	movs	r3, #1
     62c:	4803      	ldr	r0, [pc, #12]	; (63c <system_peripheral_lock+0x4c>)
     62e:	6a01      	ldr	r1, [r0, #32]
     630:	4319      	orrs	r1, r3
     632:	6201      	str	r1, [r0, #32]
     634:	4093      	lsls	r3, r2
     636:	2284      	movs	r2, #132	; 0x84
     638:	e7f4      	b.n	624 <system_peripheral_lock+0x34>
     63a:	46c0      	nop			; (mov r8, r8)
     63c:	40000400 	.word	0x40000400

00000640 <system_peripheral_unlock>:
     640:	43c2      	mvns	r2, r0
     642:	0003      	movs	r3, r0
     644:	2017      	movs	r0, #23
     646:	428a      	cmp	r2, r1
     648:	d109      	bne.n	65e <system_peripheral_unlock+0x1e>
     64a:	221f      	movs	r2, #31
     64c:	401a      	ands	r2, r3
     64e:	095b      	lsrs	r3, r3, #5
     650:	b2db      	uxtb	r3, r3
     652:	2b01      	cmp	r3, #1
     654:	d00c      	beq.n	670 <system_peripheral_unlock+0x30>
     656:	2b00      	cmp	r3, #0
     658:	d002      	beq.n	660 <system_peripheral_unlock+0x20>
     65a:	2b02      	cmp	r3, #2
     65c:	d00d      	beq.n	67a <system_peripheral_unlock+0x3a>
     65e:	4770      	bx	lr
     660:	2101      	movs	r1, #1
     662:	4091      	lsls	r1, r2
     664:	000a      	movs	r2, r1
     666:	2180      	movs	r1, #128	; 0x80
     668:	05c9      	lsls	r1, r1, #23
     66a:	600a      	str	r2, [r1, #0]
     66c:	2000      	movs	r0, #0
     66e:	e7f6      	b.n	65e <system_peripheral_unlock+0x1e>
     670:	4093      	lsls	r3, r2
     672:	2282      	movs	r2, #130	; 0x82
     674:	05d2      	lsls	r2, r2, #23
     676:	6013      	str	r3, [r2, #0]
     678:	e7f8      	b.n	66c <system_peripheral_unlock+0x2c>
     67a:	2301      	movs	r3, #1
     67c:	4803      	ldr	r0, [pc, #12]	; (68c <system_peripheral_unlock+0x4c>)
     67e:	6a01      	ldr	r1, [r0, #32]
     680:	4319      	orrs	r1, r3
     682:	6201      	str	r1, [r0, #32]
     684:	4093      	lsls	r3, r2
     686:	2284      	movs	r2, #132	; 0x84
     688:	e7f4      	b.n	674 <system_peripheral_unlock+0x34>
     68a:	46c0      	nop			; (mov r8, r8)
     68c:	40000400 	.word	0x40000400

00000690 <port_pin_set_config>:
     690:	b507      	push	{r0, r1, r2, lr}
     692:	2280      	movs	r2, #128	; 0x80
     694:	ab01      	add	r3, sp, #4
     696:	701a      	strb	r2, [r3, #0]
     698:	780a      	ldrb	r2, [r1, #0]
     69a:	705a      	strb	r2, [r3, #1]
     69c:	784a      	ldrb	r2, [r1, #1]
     69e:	709a      	strb	r2, [r3, #2]
     6a0:	788a      	ldrb	r2, [r1, #2]
     6a2:	0019      	movs	r1, r3
     6a4:	70da      	strb	r2, [r3, #3]
     6a6:	4b01      	ldr	r3, [pc, #4]	; (6ac <port_pin_set_config+0x1c>)
     6a8:	4798      	blx	r3
     6aa:	bd07      	pop	{r0, r1, r2, pc}
     6ac:	00001bd9 	.word	0x00001bd9

000006b0 <system_board_init>:
     6b0:	4770      	bx	lr
	...

000006b4 <cpu_irq_enter_critical>:
     6b4:	4b09      	ldr	r3, [pc, #36]	; (6dc <cpu_irq_enter_critical+0x28>)
     6b6:	6819      	ldr	r1, [r3, #0]
     6b8:	2900      	cmp	r1, #0
     6ba:	d10b      	bne.n	6d4 <cpu_irq_enter_critical+0x20>
     6bc:	f3ef 8010 	mrs	r0, PRIMASK
     6c0:	4a07      	ldr	r2, [pc, #28]	; (6e0 <cpu_irq_enter_critical+0x2c>)
     6c2:	2800      	cmp	r0, #0
     6c4:	d105      	bne.n	6d2 <cpu_irq_enter_critical+0x1e>
     6c6:	b672      	cpsid	i
     6c8:	f3bf 8f5f 	dmb	sy
     6cc:	4905      	ldr	r1, [pc, #20]	; (6e4 <cpu_irq_enter_critical+0x30>)
     6ce:	7008      	strb	r0, [r1, #0]
     6d0:	2101      	movs	r1, #1
     6d2:	7011      	strb	r1, [r2, #0]
     6d4:	681a      	ldr	r2, [r3, #0]
     6d6:	3201      	adds	r2, #1
     6d8:	601a      	str	r2, [r3, #0]
     6da:	4770      	bx	lr
     6dc:	2000008c 	.word	0x2000008c
     6e0:	20000090 	.word	0x20000090
     6e4:	20000000 	.word	0x20000000

000006e8 <cpu_irq_leave_critical>:
     6e8:	4b08      	ldr	r3, [pc, #32]	; (70c <cpu_irq_leave_critical+0x24>)
     6ea:	681a      	ldr	r2, [r3, #0]
     6ec:	3a01      	subs	r2, #1
     6ee:	601a      	str	r2, [r3, #0]
     6f0:	681b      	ldr	r3, [r3, #0]
     6f2:	2b00      	cmp	r3, #0
     6f4:	d109      	bne.n	70a <cpu_irq_leave_critical+0x22>
     6f6:	4b06      	ldr	r3, [pc, #24]	; (710 <cpu_irq_leave_critical+0x28>)
     6f8:	781b      	ldrb	r3, [r3, #0]
     6fa:	2b00      	cmp	r3, #0
     6fc:	d005      	beq.n	70a <cpu_irq_leave_critical+0x22>
     6fe:	2201      	movs	r2, #1
     700:	4b04      	ldr	r3, [pc, #16]	; (714 <cpu_irq_leave_critical+0x2c>)
     702:	701a      	strb	r2, [r3, #0]
     704:	f3bf 8f5f 	dmb	sy
     708:	b662      	cpsie	i
     70a:	4770      	bx	lr
     70c:	2000008c 	.word	0x2000008c
     710:	20000090 	.word	0x20000090
     714:	20000000 	.word	0x20000000

00000718 <long_division>:
     718:	b5f0      	push	{r4, r5, r6, r7, lr}
     71a:	2400      	movs	r4, #0
     71c:	b089      	sub	sp, #36	; 0x24
     71e:	9200      	str	r2, [sp, #0]
     720:	9301      	str	r3, [sp, #4]
     722:	233f      	movs	r3, #63	; 0x3f
     724:	2600      	movs	r6, #0
     726:	2700      	movs	r7, #0
     728:	0025      	movs	r5, r4
     72a:	9006      	str	r0, [sp, #24]
     72c:	9107      	str	r1, [sp, #28]
     72e:	9303      	str	r3, [sp, #12]
     730:	9a03      	ldr	r2, [sp, #12]
     732:	4b13      	ldr	r3, [pc, #76]	; (780 <long_division+0x68>)
     734:	2001      	movs	r0, #1
     736:	2100      	movs	r1, #0
     738:	4798      	blx	r3
     73a:	19b6      	adds	r6, r6, r6
     73c:	417f      	adcs	r7, r7
     73e:	9b06      	ldr	r3, [sp, #24]
     740:	9a07      	ldr	r2, [sp, #28]
     742:	4003      	ands	r3, r0
     744:	400a      	ands	r2, r1
     746:	9604      	str	r6, [sp, #16]
     748:	9705      	str	r7, [sp, #20]
     74a:	4313      	orrs	r3, r2
     74c:	d003      	beq.n	756 <long_division+0x3e>
     74e:	2301      	movs	r3, #1
     750:	4333      	orrs	r3, r6
     752:	001e      	movs	r6, r3
     754:	9f05      	ldr	r7, [sp, #20]
     756:	9b01      	ldr	r3, [sp, #4]
     758:	42bb      	cmp	r3, r7
     75a:	d809      	bhi.n	770 <long_division+0x58>
     75c:	d102      	bne.n	764 <long_division+0x4c>
     75e:	9b00      	ldr	r3, [sp, #0]
     760:	42b3      	cmp	r3, r6
     762:	d805      	bhi.n	770 <long_division+0x58>
     764:	9a00      	ldr	r2, [sp, #0]
     766:	9b01      	ldr	r3, [sp, #4]
     768:	1ab6      	subs	r6, r6, r2
     76a:	419f      	sbcs	r7, r3
     76c:	4304      	orrs	r4, r0
     76e:	430d      	orrs	r5, r1
     770:	9b03      	ldr	r3, [sp, #12]
     772:	1e5a      	subs	r2, r3, #1
     774:	9203      	str	r2, [sp, #12]
     776:	d2db      	bcs.n	730 <long_division+0x18>
     778:	0020      	movs	r0, r4
     77a:	0029      	movs	r1, r5
     77c:	b009      	add	sp, #36	; 0x24
     77e:	bdf0      	pop	{r4, r5, r6, r7, pc}
     780:	00002589 	.word	0x00002589

00000784 <_sercom_get_sync_baud_val>:
     784:	b510      	push	{r4, lr}
     786:	0849      	lsrs	r1, r1, #1
     788:	0004      	movs	r4, r0
     78a:	2300      	movs	r3, #0
     78c:	2040      	movs	r0, #64	; 0x40
     78e:	42a1      	cmp	r1, r4
     790:	d201      	bcs.n	796 <_sercom_get_sync_baud_val+0x12>
     792:	bd10      	pop	{r4, pc}
     794:	0003      	movs	r3, r0
     796:	1c58      	adds	r0, r3, #1
     798:	1b09      	subs	r1, r1, r4
     79a:	b280      	uxth	r0, r0
     79c:	428c      	cmp	r4, r1
     79e:	d9f9      	bls.n	794 <_sercom_get_sync_baud_val+0x10>
     7a0:	2040      	movs	r0, #64	; 0x40
     7a2:	2bff      	cmp	r3, #255	; 0xff
     7a4:	d8f5      	bhi.n	792 <_sercom_get_sync_baud_val+0xe>
     7a6:	8013      	strh	r3, [r2, #0]
     7a8:	2000      	movs	r0, #0
     7aa:	e7f2      	b.n	792 <_sercom_get_sync_baud_val+0xe>

000007ac <_sercom_get_async_baud_val>:
     7ac:	b5f0      	push	{r4, r5, r6, r7, lr}
     7ae:	b085      	sub	sp, #20
     7b0:	001e      	movs	r6, r3
     7b2:	ab0a      	add	r3, sp, #40	; 0x28
     7b4:	000d      	movs	r5, r1
     7b6:	7819      	ldrb	r1, [r3, #0]
     7b8:	0003      	movs	r3, r0
     7ba:	434b      	muls	r3, r1
     7bc:	9203      	str	r2, [sp, #12]
     7be:	2740      	movs	r7, #64	; 0x40
     7c0:	42ab      	cmp	r3, r5
     7c2:	d817      	bhi.n	7f4 <_sercom_get_async_baud_val+0x48>
     7c4:	2e00      	cmp	r6, #0
     7c6:	d118      	bne.n	7fa <_sercom_get_async_baud_val+0x4e>
     7c8:	0002      	movs	r2, r0
     7ca:	0033      	movs	r3, r6
     7cc:	0008      	movs	r0, r1
     7ce:	4c1b      	ldr	r4, [pc, #108]	; (83c <_sercom_get_async_baud_val+0x90>)
     7d0:	0031      	movs	r1, r6
     7d2:	47a0      	blx	r4
     7d4:	002a      	movs	r2, r5
     7d6:	0001      	movs	r1, r0
     7d8:	0033      	movs	r3, r6
     7da:	4c19      	ldr	r4, [pc, #100]	; (840 <_sercom_get_async_baud_val+0x94>)
     7dc:	0030      	movs	r0, r6
     7de:	47a0      	blx	r4
     7e0:	2200      	movs	r2, #0
     7e2:	2301      	movs	r3, #1
     7e4:	1a12      	subs	r2, r2, r0
     7e6:	418b      	sbcs	r3, r1
     7e8:	0c14      	lsrs	r4, r2, #16
     7ea:	0418      	lsls	r0, r3, #16
     7ec:	4304      	orrs	r4, r0
     7ee:	2700      	movs	r7, #0
     7f0:	9b03      	ldr	r3, [sp, #12]
     7f2:	801c      	strh	r4, [r3, #0]
     7f4:	0038      	movs	r0, r7
     7f6:	b005      	add	sp, #20
     7f8:	bdf0      	pop	{r4, r5, r6, r7, pc}
     7fa:	2400      	movs	r4, #0
     7fc:	2e01      	cmp	r6, #1
     7fe:	d1f6      	bne.n	7ee <_sercom_get_async_baud_val+0x42>
     800:	000a      	movs	r2, r1
     802:	0023      	movs	r3, r4
     804:	0021      	movs	r1, r4
     806:	4e0d      	ldr	r6, [pc, #52]	; (83c <_sercom_get_async_baud_val+0x90>)
     808:	47b0      	blx	r6
     80a:	9000      	str	r0, [sp, #0]
     80c:	9101      	str	r1, [sp, #4]
     80e:	000b      	movs	r3, r1
     810:	0002      	movs	r2, r0
     812:	0021      	movs	r1, r4
     814:	0028      	movs	r0, r5
     816:	4c0a      	ldr	r4, [pc, #40]	; (840 <_sercom_get_async_baud_val+0x94>)
     818:	47a0      	blx	r4
     81a:	2380      	movs	r3, #128	; 0x80
     81c:	0006      	movs	r6, r0
     81e:	019b      	lsls	r3, r3, #6
     820:	4298      	cmp	r0, r3
     822:	d8e7      	bhi.n	7f4 <_sercom_get_async_baud_val+0x48>
     824:	9a00      	ldr	r2, [sp, #0]
     826:	9b01      	ldr	r3, [sp, #4]
     828:	0f69      	lsrs	r1, r5, #29
     82a:	00e8      	lsls	r0, r5, #3
     82c:	47a0      	blx	r4
     82e:	00f4      	lsls	r4, r6, #3
     830:	1b04      	subs	r4, r0, r4
     832:	b2e4      	uxtb	r4, r4
     834:	0364      	lsls	r4, r4, #13
     836:	4334      	orrs	r4, r6
     838:	e7d9      	b.n	7ee <_sercom_get_async_baud_val+0x42>
     83a:	46c0      	nop			; (mov r8, r8)
     83c:	000025a1 	.word	0x000025a1
     840:	00000719 	.word	0x00000719

00000844 <sercom_set_gclk_generator>:
     844:	b537      	push	{r0, r1, r2, r4, r5, lr}
     846:	4c0d      	ldr	r4, [pc, #52]	; (87c <sercom_set_gclk_generator+0x38>)
     848:	0005      	movs	r5, r0
     84a:	7823      	ldrb	r3, [r4, #0]
     84c:	2b00      	cmp	r3, #0
     84e:	d001      	beq.n	854 <sercom_set_gclk_generator+0x10>
     850:	2900      	cmp	r1, #0
     852:	d00c      	beq.n	86e <sercom_set_gclk_generator+0x2a>
     854:	a901      	add	r1, sp, #4
     856:	2013      	movs	r0, #19
     858:	4b09      	ldr	r3, [pc, #36]	; (880 <sercom_set_gclk_generator+0x3c>)
     85a:	700d      	strb	r5, [r1, #0]
     85c:	4798      	blx	r3
     85e:	2013      	movs	r0, #19
     860:	4b08      	ldr	r3, [pc, #32]	; (884 <sercom_set_gclk_generator+0x40>)
     862:	4798      	blx	r3
     864:	2301      	movs	r3, #1
     866:	2000      	movs	r0, #0
     868:	7065      	strb	r5, [r4, #1]
     86a:	7023      	strb	r3, [r4, #0]
     86c:	bd3e      	pop	{r1, r2, r3, r4, r5, pc}
     86e:	7863      	ldrb	r3, [r4, #1]
     870:	0008      	movs	r0, r1
     872:	42ab      	cmp	r3, r5
     874:	d0fa      	beq.n	86c <sercom_set_gclk_generator+0x28>
     876:	201d      	movs	r0, #29
     878:	e7f8      	b.n	86c <sercom_set_gclk_generator+0x28>
     87a:	46c0      	nop			; (mov r8, r8)
     87c:	20000091 	.word	0x20000091
     880:	00001b05 	.word	0x00001b05
     884:	00001a7d 	.word	0x00001a7d

00000888 <_sercom_get_default_pad>:
     888:	4a39      	ldr	r2, [pc, #228]	; (970 <_sercom_get_default_pad+0xe8>)
     88a:	0003      	movs	r3, r0
     88c:	b500      	push	{lr}
     88e:	0008      	movs	r0, r1
     890:	4293      	cmp	r3, r2
     892:	d033      	beq.n	8fc <_sercom_get_default_pad+0x74>
     894:	d807      	bhi.n	8a6 <_sercom_get_default_pad+0x1e>
     896:	4a37      	ldr	r2, [pc, #220]	; (974 <_sercom_get_default_pad+0xec>)
     898:	4293      	cmp	r3, r2
     89a:	d014      	beq.n	8c6 <_sercom_get_default_pad+0x3e>
     89c:	4a36      	ldr	r2, [pc, #216]	; (978 <_sercom_get_default_pad+0xf0>)
     89e:	4293      	cmp	r3, r2
     8a0:	d01f      	beq.n	8e2 <_sercom_get_default_pad+0x5a>
     8a2:	2300      	movs	r3, #0
     8a4:	e017      	b.n	8d6 <_sercom_get_default_pad+0x4e>
     8a6:	4a35      	ldr	r2, [pc, #212]	; (97c <_sercom_get_default_pad+0xf4>)
     8a8:	4293      	cmp	r3, r2
     8aa:	d03a      	beq.n	922 <_sercom_get_default_pad+0x9a>
     8ac:	4a34      	ldr	r2, [pc, #208]	; (980 <_sercom_get_default_pad+0xf8>)
     8ae:	4293      	cmp	r3, r2
     8b0:	d044      	beq.n	93c <_sercom_get_default_pad+0xb4>
     8b2:	4a34      	ldr	r2, [pc, #208]	; (984 <_sercom_get_default_pad+0xfc>)
     8b4:	4293      	cmp	r3, r2
     8b6:	d1f4      	bne.n	8a2 <_sercom_get_default_pad+0x1a>
     8b8:	2300      	movs	r3, #0
     8ba:	2903      	cmp	r1, #3
     8bc:	d80b      	bhi.n	8d6 <_sercom_get_default_pad+0x4e>
     8be:	f001 fdcd 	bl	245c <__gnu_thumb1_case_uqi>
     8c2:	2a50      	.short	0x2a50
     8c4:	2e2c      	.short	0x2e2c
     8c6:	2300      	movs	r3, #0
     8c8:	2903      	cmp	r1, #3
     8ca:	d804      	bhi.n	8d6 <_sercom_get_default_pad+0x4e>
     8cc:	f001 fdc6 	bl	245c <__gnu_thumb1_case_uqi>
     8d0:	07050243 	.word	0x07050243
     8d4:	4b2c      	ldr	r3, [pc, #176]	; (988 <_sercom_get_default_pad+0x100>)
     8d6:	0018      	movs	r0, r3
     8d8:	bd00      	pop	{pc}
     8da:	4b2c      	ldr	r3, [pc, #176]	; (98c <_sercom_get_default_pad+0x104>)
     8dc:	e7fb      	b.n	8d6 <_sercom_get_default_pad+0x4e>
     8de:	4b2c      	ldr	r3, [pc, #176]	; (990 <_sercom_get_default_pad+0x108>)
     8e0:	e7f9      	b.n	8d6 <_sercom_get_default_pad+0x4e>
     8e2:	2300      	movs	r3, #0
     8e4:	2903      	cmp	r1, #3
     8e6:	d8f6      	bhi.n	8d6 <_sercom_get_default_pad+0x4e>
     8e8:	f001 fdb8 	bl	245c <__gnu_thumb1_case_uqi>
     8ec:	06040237 	.word	0x06040237
     8f0:	4b28      	ldr	r3, [pc, #160]	; (994 <_sercom_get_default_pad+0x10c>)
     8f2:	e7f0      	b.n	8d6 <_sercom_get_default_pad+0x4e>
     8f4:	4b28      	ldr	r3, [pc, #160]	; (998 <_sercom_get_default_pad+0x110>)
     8f6:	e7ee      	b.n	8d6 <_sercom_get_default_pad+0x4e>
     8f8:	4b28      	ldr	r3, [pc, #160]	; (99c <_sercom_get_default_pad+0x114>)
     8fa:	e7ec      	b.n	8d6 <_sercom_get_default_pad+0x4e>
     8fc:	2300      	movs	r3, #0
     8fe:	2903      	cmp	r1, #3
     900:	d8e9      	bhi.n	8d6 <_sercom_get_default_pad+0x4e>
     902:	f001 fdab 	bl	245c <__gnu_thumb1_case_uqi>
     906:	022c      	.short	0x022c
     908:	0604      	.short	0x0604
     90a:	4b25      	ldr	r3, [pc, #148]	; (9a0 <_sercom_get_default_pad+0x118>)
     90c:	e7e3      	b.n	8d6 <_sercom_get_default_pad+0x4e>
     90e:	4b25      	ldr	r3, [pc, #148]	; (9a4 <_sercom_get_default_pad+0x11c>)
     910:	e7e1      	b.n	8d6 <_sercom_get_default_pad+0x4e>
     912:	4b25      	ldr	r3, [pc, #148]	; (9a8 <_sercom_get_default_pad+0x120>)
     914:	e7df      	b.n	8d6 <_sercom_get_default_pad+0x4e>
     916:	4b25      	ldr	r3, [pc, #148]	; (9ac <_sercom_get_default_pad+0x124>)
     918:	e7dd      	b.n	8d6 <_sercom_get_default_pad+0x4e>
     91a:	4b25      	ldr	r3, [pc, #148]	; (9b0 <_sercom_get_default_pad+0x128>)
     91c:	e7db      	b.n	8d6 <_sercom_get_default_pad+0x4e>
     91e:	4b25      	ldr	r3, [pc, #148]	; (9b4 <_sercom_get_default_pad+0x12c>)
     920:	e7d9      	b.n	8d6 <_sercom_get_default_pad+0x4e>
     922:	2300      	movs	r3, #0
     924:	2903      	cmp	r1, #3
     926:	d8d6      	bhi.n	8d6 <_sercom_get_default_pad+0x4e>
     928:	f001 fd98 	bl	245c <__gnu_thumb1_case_uqi>
     92c:	0604021d 	.word	0x0604021d
     930:	4b21      	ldr	r3, [pc, #132]	; (9b8 <_sercom_get_default_pad+0x130>)
     932:	e7d0      	b.n	8d6 <_sercom_get_default_pad+0x4e>
     934:	4b21      	ldr	r3, [pc, #132]	; (9bc <_sercom_get_default_pad+0x134>)
     936:	e7ce      	b.n	8d6 <_sercom_get_default_pad+0x4e>
     938:	4b21      	ldr	r3, [pc, #132]	; (9c0 <_sercom_get_default_pad+0x138>)
     93a:	e7cc      	b.n	8d6 <_sercom_get_default_pad+0x4e>
     93c:	2300      	movs	r3, #0
     93e:	2903      	cmp	r1, #3
     940:	d8c9      	bhi.n	8d6 <_sercom_get_default_pad+0x4e>
     942:	f001 fd8b 	bl	245c <__gnu_thumb1_case_uqi>
     946:	0212      	.short	0x0212
     948:	0604      	.short	0x0604
     94a:	4b1e      	ldr	r3, [pc, #120]	; (9c4 <_sercom_get_default_pad+0x13c>)
     94c:	e7c3      	b.n	8d6 <_sercom_get_default_pad+0x4e>
     94e:	4b1e      	ldr	r3, [pc, #120]	; (9c8 <_sercom_get_default_pad+0x140>)
     950:	e7c1      	b.n	8d6 <_sercom_get_default_pad+0x4e>
     952:	4b1e      	ldr	r3, [pc, #120]	; (9cc <_sercom_get_default_pad+0x144>)
     954:	e7bf      	b.n	8d6 <_sercom_get_default_pad+0x4e>
     956:	4b1e      	ldr	r3, [pc, #120]	; (9d0 <_sercom_get_default_pad+0x148>)
     958:	e7bd      	b.n	8d6 <_sercom_get_default_pad+0x4e>
     95a:	2303      	movs	r3, #3
     95c:	e7bb      	b.n	8d6 <_sercom_get_default_pad+0x4e>
     95e:	4b1d      	ldr	r3, [pc, #116]	; (9d4 <_sercom_get_default_pad+0x14c>)
     960:	e7b9      	b.n	8d6 <_sercom_get_default_pad+0x4e>
     962:	4b1d      	ldr	r3, [pc, #116]	; (9d8 <_sercom_get_default_pad+0x150>)
     964:	e7b7      	b.n	8d6 <_sercom_get_default_pad+0x4e>
     966:	4b1d      	ldr	r3, [pc, #116]	; (9dc <_sercom_get_default_pad+0x154>)
     968:	e7b5      	b.n	8d6 <_sercom_get_default_pad+0x4e>
     96a:	4b1d      	ldr	r3, [pc, #116]	; (9e0 <_sercom_get_default_pad+0x158>)
     96c:	e7b3      	b.n	8d6 <_sercom_get_default_pad+0x4e>
     96e:	46c0      	nop			; (mov r8, r8)
     970:	42001000 	.word	0x42001000
     974:	42000800 	.word	0x42000800
     978:	42000c00 	.word	0x42000c00
     97c:	42001800 	.word	0x42001800
     980:	42001c00 	.word	0x42001c00
     984:	42001400 	.word	0x42001400
     988:	00050003 	.word	0x00050003
     98c:	00060003 	.word	0x00060003
     990:	00070003 	.word	0x00070003
     994:	00010003 	.word	0x00010003
     998:	001e0003 	.word	0x001e0003
     99c:	001f0003 	.word	0x001f0003
     9a0:	00090003 	.word	0x00090003
     9a4:	000a0003 	.word	0x000a0003
     9a8:	000b0003 	.word	0x000b0003
     9ac:	00110003 	.word	0x00110003
     9b0:	00120003 	.word	0x00120003
     9b4:	00130003 	.word	0x00130003
     9b8:	000d0003 	.word	0x000d0003
     9bc:	000e0003 	.word	0x000e0003
     9c0:	000f0003 	.word	0x000f0003
     9c4:	00170003 	.word	0x00170003
     9c8:	00180003 	.word	0x00180003
     9cc:	00190003 	.word	0x00190003
     9d0:	00040003 	.word	0x00040003
     9d4:	00080003 	.word	0x00080003
     9d8:	00100003 	.word	0x00100003
     9dc:	000c0003 	.word	0x000c0003
     9e0:	00160003 	.word	0x00160003

000009e4 <_sercom_get_sercom_inst_index>:
     9e4:	b570      	push	{r4, r5, r6, lr}
     9e6:	b086      	sub	sp, #24
     9e8:	4669      	mov	r1, sp
     9ea:	4b09      	ldr	r3, [pc, #36]	; (a10 <_sercom_get_sercom_inst_index+0x2c>)
     9ec:	466a      	mov	r2, sp
     9ee:	cb70      	ldmia	r3!, {r4, r5, r6}
     9f0:	c170      	stmia	r1!, {r4, r5, r6}
     9f2:	cb70      	ldmia	r3!, {r4, r5, r6}
     9f4:	c170      	stmia	r1!, {r4, r5, r6}
     9f6:	2300      	movs	r3, #0
     9f8:	0099      	lsls	r1, r3, #2
     9fa:	5851      	ldr	r1, [r2, r1]
     9fc:	4281      	cmp	r1, r0
     9fe:	d102      	bne.n	a06 <_sercom_get_sercom_inst_index+0x22>
     a00:	b2d8      	uxtb	r0, r3
     a02:	b006      	add	sp, #24
     a04:	bd70      	pop	{r4, r5, r6, pc}
     a06:	3301      	adds	r3, #1
     a08:	2b06      	cmp	r3, #6
     a0a:	d1f5      	bne.n	9f8 <_sercom_get_sercom_inst_index+0x14>
     a0c:	2000      	movs	r0, #0
     a0e:	e7f8      	b.n	a02 <_sercom_get_sercom_inst_index+0x1e>
     a10:	0000372c 	.word	0x0000372c

00000a14 <_sercom_default_handler>:
     a14:	4770      	bx	lr
	...

00000a18 <_sercom_set_handler>:
     a18:	b5f0      	push	{r4, r5, r6, r7, lr}
     a1a:	4c09      	ldr	r4, [pc, #36]	; (a40 <_sercom_set_handler+0x28>)
     a1c:	4a09      	ldr	r2, [pc, #36]	; (a44 <_sercom_set_handler+0x2c>)
     a1e:	7823      	ldrb	r3, [r4, #0]
     a20:	2b00      	cmp	r3, #0
     a22:	d109      	bne.n	a38 <_sercom_set_handler+0x20>
     a24:	001e      	movs	r6, r3
     a26:	4f08      	ldr	r7, [pc, #32]	; (a48 <_sercom_set_handler+0x30>)
     a28:	4d08      	ldr	r5, [pc, #32]	; (a4c <_sercom_set_handler+0x34>)
     a2a:	50d7      	str	r7, [r2, r3]
     a2c:	50ee      	str	r6, [r5, r3]
     a2e:	3304      	adds	r3, #4
     a30:	2b18      	cmp	r3, #24
     a32:	d1fa      	bne.n	a2a <_sercom_set_handler+0x12>
     a34:	3b17      	subs	r3, #23
     a36:	7023      	strb	r3, [r4, #0]
     a38:	0080      	lsls	r0, r0, #2
     a3a:	5011      	str	r1, [r2, r0]
     a3c:	bdf0      	pop	{r4, r5, r6, r7, pc}
     a3e:	46c0      	nop			; (mov r8, r8)
     a40:	20000093 	.word	0x20000093
     a44:	20000094 	.word	0x20000094
     a48:	00000a15 	.word	0x00000a15
     a4c:	20000104 	.word	0x20000104

00000a50 <_sercom_get_interrupt_vector>:
     a50:	b507      	push	{r0, r1, r2, lr}
     a52:	2309      	movs	r3, #9
     a54:	466a      	mov	r2, sp
     a56:	7013      	strb	r3, [r2, #0]
     a58:	3301      	adds	r3, #1
     a5a:	7053      	strb	r3, [r2, #1]
     a5c:	3301      	adds	r3, #1
     a5e:	7093      	strb	r3, [r2, #2]
     a60:	3301      	adds	r3, #1
     a62:	70d3      	strb	r3, [r2, #3]
     a64:	3301      	adds	r3, #1
     a66:	7113      	strb	r3, [r2, #4]
     a68:	3301      	adds	r3, #1
     a6a:	7153      	strb	r3, [r2, #5]
     a6c:	4b02      	ldr	r3, [pc, #8]	; (a78 <_sercom_get_interrupt_vector+0x28>)
     a6e:	4798      	blx	r3
     a70:	466b      	mov	r3, sp
     a72:	5618      	ldrsb	r0, [r3, r0]
     a74:	bd0e      	pop	{r1, r2, r3, pc}
     a76:	46c0      	nop			; (mov r8, r8)
     a78:	000009e5 	.word	0x000009e5

00000a7c <SERCOM0_Handler>:
     a7c:	b510      	push	{r4, lr}
     a7e:	4b02      	ldr	r3, [pc, #8]	; (a88 <SERCOM0_Handler+0xc>)
     a80:	2000      	movs	r0, #0
     a82:	681b      	ldr	r3, [r3, #0]
     a84:	4798      	blx	r3
     a86:	bd10      	pop	{r4, pc}
     a88:	20000094 	.word	0x20000094

00000a8c <SERCOM1_Handler>:
     a8c:	b510      	push	{r4, lr}
     a8e:	4b02      	ldr	r3, [pc, #8]	; (a98 <SERCOM1_Handler+0xc>)
     a90:	2001      	movs	r0, #1
     a92:	685b      	ldr	r3, [r3, #4]
     a94:	4798      	blx	r3
     a96:	bd10      	pop	{r4, pc}
     a98:	20000094 	.word	0x20000094

00000a9c <SERCOM2_Handler>:
     a9c:	b510      	push	{r4, lr}
     a9e:	4b02      	ldr	r3, [pc, #8]	; (aa8 <SERCOM2_Handler+0xc>)
     aa0:	2002      	movs	r0, #2
     aa2:	689b      	ldr	r3, [r3, #8]
     aa4:	4798      	blx	r3
     aa6:	bd10      	pop	{r4, pc}
     aa8:	20000094 	.word	0x20000094

00000aac <SERCOM3_Handler>:
     aac:	b510      	push	{r4, lr}
     aae:	4b02      	ldr	r3, [pc, #8]	; (ab8 <SERCOM3_Handler+0xc>)
     ab0:	2003      	movs	r0, #3
     ab2:	68db      	ldr	r3, [r3, #12]
     ab4:	4798      	blx	r3
     ab6:	bd10      	pop	{r4, pc}
     ab8:	20000094 	.word	0x20000094

00000abc <SERCOM4_Handler>:
     abc:	b510      	push	{r4, lr}
     abe:	4b02      	ldr	r3, [pc, #8]	; (ac8 <SERCOM4_Handler+0xc>)
     ac0:	2004      	movs	r0, #4
     ac2:	691b      	ldr	r3, [r3, #16]
     ac4:	4798      	blx	r3
     ac6:	bd10      	pop	{r4, pc}
     ac8:	20000094 	.word	0x20000094

00000acc <SERCOM5_Handler>:
     acc:	b510      	push	{r4, lr}
     ace:	4b02      	ldr	r3, [pc, #8]	; (ad8 <SERCOM5_Handler+0xc>)
     ad0:	2005      	movs	r0, #5
     ad2:	695b      	ldr	r3, [r3, #20]
     ad4:	4798      	blx	r3
     ad6:	bd10      	pop	{r4, pc}
     ad8:	20000094 	.word	0x20000094

00000adc <spi_is_write_complete>:
     adc:	6803      	ldr	r3, [r0, #0]
     ade:	7e18      	ldrb	r0, [r3, #24]
     ae0:	0780      	lsls	r0, r0, #30
     ae2:	0fc0      	lsrs	r0, r0, #31
     ae4:	4770      	bx	lr

00000ae6 <spi_is_ready_to_write>:
     ae6:	6803      	ldr	r3, [r0, #0]
     ae8:	7e18      	ldrb	r0, [r3, #24]
     aea:	2301      	movs	r3, #1
     aec:	4018      	ands	r0, r3
     aee:	4770      	bx	lr

00000af0 <spi_is_ready_to_read>:
     af0:	6803      	ldr	r3, [r0, #0]
     af2:	7e18      	ldrb	r0, [r3, #24]
     af4:	0740      	lsls	r0, r0, #29
     af6:	0fc0      	lsrs	r0, r0, #31
     af8:	4770      	bx	lr
	...

00000afc <spi_write>:
     afc:	b570      	push	{r4, r5, r6, lr}
     afe:	4b06      	ldr	r3, [pc, #24]	; (b18 <spi_write+0x1c>)
     b00:	000c      	movs	r4, r1
     b02:	6805      	ldr	r5, [r0, #0]
     b04:	4798      	blx	r3
     b06:	2305      	movs	r3, #5
     b08:	2800      	cmp	r0, #0
     b0a:	d003      	beq.n	b14 <spi_write+0x18>
     b0c:	2300      	movs	r3, #0
     b0e:	05e4      	lsls	r4, r4, #23
     b10:	0de4      	lsrs	r4, r4, #23
     b12:	62ac      	str	r4, [r5, #40]	; 0x28
     b14:	0018      	movs	r0, r3
     b16:	bd70      	pop	{r4, r5, r6, pc}
     b18:	00000ae7 	.word	0x00000ae7

00000b1c <spi_read>:
     b1c:	b570      	push	{r4, r5, r6, lr}
     b1e:	4b0d      	ldr	r3, [pc, #52]	; (b54 <spi_read+0x38>)
     b20:	0006      	movs	r6, r0
     b22:	000c      	movs	r4, r1
     b24:	6805      	ldr	r5, [r0, #0]
     b26:	4798      	blx	r3
     b28:	2210      	movs	r2, #16
     b2a:	2800      	cmp	r0, #0
     b2c:	d00d      	beq.n	b4a <spi_read+0x2e>
     b2e:	2304      	movs	r3, #4
     b30:	8b69      	ldrh	r1, [r5, #26]
     b32:	2200      	movs	r2, #0
     b34:	4219      	tst	r1, r3
     b36:	d001      	beq.n	b3c <spi_read+0x20>
     b38:	836b      	strh	r3, [r5, #26]
     b3a:	321e      	adds	r2, #30
     b3c:	79b3      	ldrb	r3, [r6, #6]
     b3e:	2b01      	cmp	r3, #1
     b40:	d105      	bne.n	b4e <spi_read+0x32>
     b42:	6aab      	ldr	r3, [r5, #40]	; 0x28
     b44:	05db      	lsls	r3, r3, #23
     b46:	0ddb      	lsrs	r3, r3, #23
     b48:	8023      	strh	r3, [r4, #0]
     b4a:	0010      	movs	r0, r2
     b4c:	bd70      	pop	{r4, r5, r6, pc}
     b4e:	6aab      	ldr	r3, [r5, #40]	; 0x28
     b50:	b2db      	uxtb	r3, r3
     b52:	e7f9      	b.n	b48 <spi_read+0x2c>
     b54:	00000af1 	.word	0x00000af1

00000b58 <spi_init>:
     b58:	b5f0      	push	{r4, r5, r6, r7, lr}
     b5a:	0005      	movs	r5, r0
     b5c:	6029      	str	r1, [r5, #0]
     b5e:	0014      	movs	r4, r2
     b60:	680a      	ldr	r2, [r1, #0]
     b62:	b089      	sub	sp, #36	; 0x24
     b64:	000e      	movs	r6, r1
     b66:	231c      	movs	r3, #28
     b68:	0792      	lsls	r2, r2, #30
     b6a:	d500      	bpl.n	b6e <spi_init+0x16>
     b6c:	e0d4      	b.n	d18 <spi_init+0x1c0>
     b6e:	2701      	movs	r7, #1
     b70:	680b      	ldr	r3, [r1, #0]
     b72:	403b      	ands	r3, r7
     b74:	9301      	str	r3, [sp, #4]
     b76:	9a01      	ldr	r2, [sp, #4]
     b78:	2305      	movs	r3, #5
     b7a:	2a00      	cmp	r2, #0
     b7c:	d000      	beq.n	b80 <spi_init+0x28>
     b7e:	e0cb      	b.n	d18 <spi_init+0x1c0>
     b80:	0008      	movs	r0, r1
     b82:	4b6a      	ldr	r3, [pc, #424]	; (d2c <spi_init+0x1d4>)
     b84:	4798      	blx	r3
     b86:	1c81      	adds	r1, r0, #2
     b88:	408f      	lsls	r7, r1
     b8a:	4b69      	ldr	r3, [pc, #420]	; (d30 <spi_init+0x1d8>)
     b8c:	3014      	adds	r0, #20
     b8e:	6a1a      	ldr	r2, [r3, #32]
     b90:	4317      	orrs	r7, r2
     b92:	621f      	str	r7, [r3, #32]
     b94:	1d63      	adds	r3, r4, #5
     b96:	7fdb      	ldrb	r3, [r3, #31]
     b98:	aa02      	add	r2, sp, #8
     b9a:	b2c7      	uxtb	r7, r0
     b9c:	7013      	strb	r3, [r2, #0]
     b9e:	0011      	movs	r1, r2
     ba0:	0038      	movs	r0, r7
     ba2:	4b64      	ldr	r3, [pc, #400]	; (d34 <spi_init+0x1dc>)
     ba4:	4798      	blx	r3
     ba6:	0038      	movs	r0, r7
     ba8:	4b63      	ldr	r3, [pc, #396]	; (d38 <spi_init+0x1e0>)
     baa:	4798      	blx	r3
     bac:	1d63      	adds	r3, r4, #5
     bae:	7fd8      	ldrb	r0, [r3, #31]
     bb0:	9901      	ldr	r1, [sp, #4]
     bb2:	4b62      	ldr	r3, [pc, #392]	; (d3c <spi_init+0x1e4>)
     bb4:	4798      	blx	r3
     bb6:	7823      	ldrb	r3, [r4, #0]
     bb8:	2b01      	cmp	r3, #1
     bba:	d103      	bne.n	bc4 <spi_init+0x6c>
     bbc:	6832      	ldr	r2, [r6, #0]
     bbe:	330b      	adds	r3, #11
     bc0:	4313      	orrs	r3, r2
     bc2:	6033      	str	r3, [r6, #0]
     bc4:	7823      	ldrb	r3, [r4, #0]
     bc6:	2b00      	cmp	r3, #0
     bc8:	d103      	bne.n	bd2 <spi_init+0x7a>
     bca:	6832      	ldr	r2, [r6, #0]
     bcc:	3308      	adds	r3, #8
     bce:	4313      	orrs	r3, r2
     bd0:	6033      	str	r3, [r6, #0]
     bd2:	002b      	movs	r3, r5
     bd4:	002a      	movs	r2, r5
     bd6:	2600      	movs	r6, #0
     bd8:	330c      	adds	r3, #12
     bda:	3228      	adds	r2, #40	; 0x28
     bdc:	c340      	stmia	r3!, {r6}
     bde:	429a      	cmp	r2, r3
     be0:	d1fc      	bne.n	bdc <spi_init+0x84>
     be2:	002b      	movs	r3, r5
     be4:	3336      	adds	r3, #54	; 0x36
     be6:	86ae      	strh	r6, [r5, #52]	; 0x34
     be8:	62ee      	str	r6, [r5, #44]	; 0x2c
     bea:	862e      	strh	r6, [r5, #48]	; 0x30
     bec:	62ae      	str	r6, [r5, #40]	; 0x28
     bee:	701e      	strb	r6, [r3, #0]
     bf0:	705e      	strb	r6, [r3, #1]
     bf2:	709e      	strb	r6, [r3, #2]
     bf4:	2303      	movs	r3, #3
     bf6:	6828      	ldr	r0, [r5, #0]
     bf8:	726b      	strb	r3, [r5, #9]
     bfa:	4b4c      	ldr	r3, [pc, #304]	; (d2c <spi_init+0x1d4>)
     bfc:	712e      	strb	r6, [r5, #4]
     bfe:	4798      	blx	r3
     c00:	0007      	movs	r7, r0
     c02:	4b4f      	ldr	r3, [pc, #316]	; (d40 <spi_init+0x1e8>)
     c04:	494f      	ldr	r1, [pc, #316]	; (d44 <spi_init+0x1ec>)
     c06:	4798      	blx	r3
     c08:	4b4f      	ldr	r3, [pc, #316]	; (d48 <spi_init+0x1f0>)
     c0a:	00bf      	lsls	r7, r7, #2
     c0c:	50fd      	str	r5, [r7, r3]
     c0e:	2380      	movs	r3, #128	; 0x80
     c10:	aa02      	add	r2, sp, #8
     c12:	7113      	strb	r3, [r2, #4]
     c14:	2301      	movs	r3, #1
     c16:	7193      	strb	r3, [r2, #6]
     c18:	7823      	ldrb	r3, [r4, #0]
     c1a:	682f      	ldr	r7, [r5, #0]
     c1c:	7156      	strb	r6, [r2, #5]
     c1e:	71d6      	strb	r6, [r2, #7]
     c20:	2b00      	cmp	r3, #0
     c22:	d100      	bne.n	c26 <spi_init+0xce>
     c24:	7196      	strb	r6, [r2, #6]
     c26:	2600      	movs	r6, #0
     c28:	6aa3      	ldr	r3, [r4, #40]	; 0x28
     c2a:	9304      	str	r3, [sp, #16]
     c2c:	6ae3      	ldr	r3, [r4, #44]	; 0x2c
     c2e:	9305      	str	r3, [sp, #20]
     c30:	6b23      	ldr	r3, [r4, #48]	; 0x30
     c32:	9306      	str	r3, [sp, #24]
     c34:	6b63      	ldr	r3, [r4, #52]	; 0x34
     c36:	9307      	str	r3, [sp, #28]
     c38:	00b3      	lsls	r3, r6, #2
     c3a:	aa04      	add	r2, sp, #16
     c3c:	5898      	ldr	r0, [r3, r2]
     c3e:	b2f1      	uxtb	r1, r6
     c40:	2800      	cmp	r0, #0
     c42:	d102      	bne.n	c4a <spi_init+0xf2>
     c44:	0038      	movs	r0, r7
     c46:	4b41      	ldr	r3, [pc, #260]	; (d4c <spi_init+0x1f4>)
     c48:	4798      	blx	r3
     c4a:	1c43      	adds	r3, r0, #1
     c4c:	d006      	beq.n	c5c <spi_init+0x104>
     c4e:	ab02      	add	r3, sp, #8
     c50:	7118      	strb	r0, [r3, #4]
     c52:	0c00      	lsrs	r0, r0, #16
     c54:	b2c0      	uxtb	r0, r0
     c56:	a903      	add	r1, sp, #12
     c58:	4b3d      	ldr	r3, [pc, #244]	; (d50 <spi_init+0x1f8>)
     c5a:	4798      	blx	r3
     c5c:	3601      	adds	r6, #1
     c5e:	2e04      	cmp	r6, #4
     c60:	d1ea      	bne.n	c38 <spi_init+0xe0>
     c62:	7823      	ldrb	r3, [r4, #0]
     c64:	716b      	strb	r3, [r5, #5]
     c66:	7c23      	ldrb	r3, [r4, #16]
     c68:	71ab      	strb	r3, [r5, #6]
     c6a:	7ca3      	ldrb	r3, [r4, #18]
     c6c:	71eb      	strb	r3, [r5, #7]
     c6e:	7d23      	ldrb	r3, [r4, #20]
     c70:	722b      	strb	r3, [r5, #8]
     c72:	ab02      	add	r3, sp, #8
     c74:	1c9e      	adds	r6, r3, #2
     c76:	2300      	movs	r3, #0
     c78:	8033      	strh	r3, [r6, #0]
     c7a:	7823      	ldrb	r3, [r4, #0]
     c7c:	2b01      	cmp	r3, #1
     c7e:	d110      	bne.n	ca2 <spi_init+0x14a>
     c80:	4b2a      	ldr	r3, [pc, #168]	; (d2c <spi_init+0x1d4>)
     c82:	6828      	ldr	r0, [r5, #0]
     c84:	4798      	blx	r3
     c86:	3014      	adds	r0, #20
     c88:	4b32      	ldr	r3, [pc, #200]	; (d54 <spi_init+0x1fc>)
     c8a:	b2c0      	uxtb	r0, r0
     c8c:	4798      	blx	r3
     c8e:	4b32      	ldr	r3, [pc, #200]	; (d58 <spi_init+0x200>)
     c90:	0001      	movs	r1, r0
     c92:	0032      	movs	r2, r6
     c94:	69a0      	ldr	r0, [r4, #24]
     c96:	4798      	blx	r3
     c98:	2317      	movs	r3, #23
     c9a:	2800      	cmp	r0, #0
     c9c:	d13c      	bne.n	d18 <spi_init+0x1c0>
     c9e:	7833      	ldrb	r3, [r6, #0]
     ca0:	733b      	strb	r3, [r7, #12]
     ca2:	7823      	ldrb	r3, [r4, #0]
     ca4:	2b00      	cmp	r3, #0
     ca6:	d13d      	bne.n	d24 <spi_init+0x1cc>
     ca8:	7fe1      	ldrb	r1, [r4, #31]
     caa:	7fa5      	ldrb	r5, [r4, #30]
     cac:	6a7b      	ldr	r3, [r7, #36]	; 0x24
     cae:	0409      	lsls	r1, r1, #16
     cb0:	4329      	orrs	r1, r5
     cb2:	4319      	orrs	r1, r3
     cb4:	69a0      	ldr	r0, [r4, #24]
     cb6:	8ba2      	ldrh	r2, [r4, #28]
     cb8:	1c63      	adds	r3, r4, #1
     cba:	6279      	str	r1, [r7, #36]	; 0x24
     cbc:	7fdb      	ldrb	r3, [r3, #31]
     cbe:	2b00      	cmp	r3, #0
     cc0:	d12d      	bne.n	d1e <spi_init+0x1c6>
     cc2:	0013      	movs	r3, r2
     cc4:	68a1      	ldr	r1, [r4, #8]
     cc6:	6862      	ldr	r2, [r4, #4]
     cc8:	430a      	orrs	r2, r1
     cca:	68e1      	ldr	r1, [r4, #12]
     ccc:	430a      	orrs	r2, r1
     cce:	7c21      	ldrb	r1, [r4, #16]
     cd0:	4302      	orrs	r2, r0
     cd2:	430b      	orrs	r3, r1
     cd4:	7c61      	ldrb	r1, [r4, #17]
     cd6:	2900      	cmp	r1, #0
     cd8:	d103      	bne.n	ce2 <spi_init+0x18a>
     cda:	4920      	ldr	r1, [pc, #128]	; (d5c <spi_init+0x204>)
     cdc:	7889      	ldrb	r1, [r1, #2]
     cde:	0789      	lsls	r1, r1, #30
     ce0:	d501      	bpl.n	ce6 <spi_init+0x18e>
     ce2:	2180      	movs	r1, #128	; 0x80
     ce4:	430a      	orrs	r2, r1
     ce6:	7ca1      	ldrb	r1, [r4, #18]
     ce8:	2900      	cmp	r1, #0
     cea:	d002      	beq.n	cf2 <spi_init+0x19a>
     cec:	2180      	movs	r1, #128	; 0x80
     cee:	0289      	lsls	r1, r1, #10
     cf0:	430b      	orrs	r3, r1
     cf2:	7ce1      	ldrb	r1, [r4, #19]
     cf4:	2900      	cmp	r1, #0
     cf6:	d002      	beq.n	cfe <spi_init+0x1a6>
     cf8:	2180      	movs	r1, #128	; 0x80
     cfa:	0089      	lsls	r1, r1, #2
     cfc:	430b      	orrs	r3, r1
     cfe:	7d21      	ldrb	r1, [r4, #20]
     d00:	2900      	cmp	r1, #0
     d02:	d002      	beq.n	d0a <spi_init+0x1b2>
     d04:	2180      	movs	r1, #128	; 0x80
     d06:	0189      	lsls	r1, r1, #6
     d08:	430b      	orrs	r3, r1
     d0a:	6839      	ldr	r1, [r7, #0]
     d0c:	430a      	orrs	r2, r1
     d0e:	603a      	str	r2, [r7, #0]
     d10:	687a      	ldr	r2, [r7, #4]
     d12:	4313      	orrs	r3, r2
     d14:	607b      	str	r3, [r7, #4]
     d16:	2300      	movs	r3, #0
     d18:	0018      	movs	r0, r3
     d1a:	b009      	add	sp, #36	; 0x24
     d1c:	bdf0      	pop	{r4, r5, r6, r7, pc}
     d1e:	2340      	movs	r3, #64	; 0x40
     d20:	4313      	orrs	r3, r2
     d22:	e7cf      	b.n	cc4 <spi_init+0x16c>
     d24:	2300      	movs	r3, #0
     d26:	0018      	movs	r0, r3
     d28:	e7cc      	b.n	cc4 <spi_init+0x16c>
     d2a:	46c0      	nop			; (mov r8, r8)
     d2c:	000009e5 	.word	0x000009e5
     d30:	40000400 	.word	0x40000400
     d34:	00001b05 	.word	0x00001b05
     d38:	00001a7d 	.word	0x00001a7d
     d3c:	00000845 	.word	0x00000845
     d40:	00000a19 	.word	0x00000a19
     d44:	00001015 	.word	0x00001015
     d48:	20000104 	.word	0x20000104
     d4c:	00000889 	.word	0x00000889
     d50:	00001bd9 	.word	0x00001bd9
     d54:	00001b21 	.word	0x00001b21
     d58:	00000785 	.word	0x00000785
     d5c:	41002000 	.word	0x41002000

00000d60 <spi_read_buffer_wait>:
     d60:	b5f0      	push	{r4, r5, r6, r7, lr}
     d62:	b087      	sub	sp, #28
     d64:	9303      	str	r3, [sp, #12]
     d66:	0003      	movs	r3, r0
     d68:	0004      	movs	r4, r0
     d6a:	2005      	movs	r0, #5
     d6c:	9102      	str	r1, [sp, #8]
     d6e:	3338      	adds	r3, #56	; 0x38
     d70:	781b      	ldrb	r3, [r3, #0]
     d72:	0017      	movs	r7, r2
     d74:	4283      	cmp	r3, r0
     d76:	d036      	beq.n	de6 <spi_read_buffer_wait+0x86>
     d78:	3012      	adds	r0, #18
     d7a:	2a00      	cmp	r2, #0
     d7c:	d033      	beq.n	de6 <spi_read_buffer_wait+0x86>
     d7e:	79e3      	ldrb	r3, [r4, #7]
     d80:	3005      	adds	r0, #5
     d82:	2b00      	cmp	r3, #0
     d84:	d02f      	beq.n	de6 <spi_read_buffer_wait+0x86>
     d86:	7963      	ldrb	r3, [r4, #5]
     d88:	2b00      	cmp	r3, #0
     d8a:	d107      	bne.n	d9c <spi_read_buffer_wait+0x3c>
     d8c:	0020      	movs	r0, r4
     d8e:	4b2b      	ldr	r3, [pc, #172]	; (e3c <spi_read_buffer_wait+0xdc>)
     d90:	4798      	blx	r3
     d92:	2800      	cmp	r0, #0
     d94:	d002      	beq.n	d9c <spi_read_buffer_wait+0x3c>
     d96:	2302      	movs	r3, #2
     d98:	6822      	ldr	r2, [r4, #0]
     d9a:	7613      	strb	r3, [r2, #24]
     d9c:	2500      	movs	r5, #0
     d9e:	7963      	ldrb	r3, [r4, #5]
     da0:	2b01      	cmp	r3, #1
     da2:	d108      	bne.n	db6 <spi_read_buffer_wait+0x56>
     da4:	0020      	movs	r0, r4
     da6:	4b26      	ldr	r3, [pc, #152]	; (e40 <spi_read_buffer_wait+0xe0>)
     da8:	4798      	blx	r3
     daa:	2800      	cmp	r0, #0
     dac:	d0fa      	beq.n	da4 <spi_read_buffer_wait+0x44>
     dae:	9903      	ldr	r1, [sp, #12]
     db0:	0020      	movs	r0, r4
     db2:	4b24      	ldr	r3, [pc, #144]	; (e44 <spi_read_buffer_wait+0xe4>)
     db4:	4798      	blx	r3
     db6:	7963      	ldrb	r3, [r4, #5]
     db8:	4e23      	ldr	r6, [pc, #140]	; (e48 <spi_read_buffer_wait+0xe8>)
     dba:	2b00      	cmp	r3, #0
     dbc:	d11b      	bne.n	df6 <spi_read_buffer_wait+0x96>
     dbe:	4b23      	ldr	r3, [pc, #140]	; (e4c <spi_read_buffer_wait+0xec>)
     dc0:	9301      	str	r3, [sp, #4]
     dc2:	0020      	movs	r0, r4
     dc4:	47b0      	blx	r6
     dc6:	2800      	cmp	r0, #0
     dc8:	d104      	bne.n	dd4 <spi_read_buffer_wait+0x74>
     dca:	9b01      	ldr	r3, [sp, #4]
     dcc:	3b01      	subs	r3, #1
     dce:	9301      	str	r3, [sp, #4]
     dd0:	2b00      	cmp	r3, #0
     dd2:	d1f6      	bne.n	dc2 <spi_read_buffer_wait+0x62>
     dd4:	0020      	movs	r0, r4
     dd6:	4b19      	ldr	r3, [pc, #100]	; (e3c <spi_read_buffer_wait+0xdc>)
     dd8:	4798      	blx	r3
     dda:	2800      	cmp	r0, #0
     ddc:	d005      	beq.n	dea <spi_read_buffer_wait+0x8a>
     dde:	2202      	movs	r2, #2
     de0:	2004      	movs	r0, #4
     de2:	6823      	ldr	r3, [r4, #0]
     de4:	761a      	strb	r2, [r3, #24]
     de6:	b007      	add	sp, #28
     de8:	bdf0      	pop	{r4, r5, r6, r7, pc}
     dea:	0020      	movs	r0, r4
     dec:	47b0      	blx	r6
     dee:	2800      	cmp	r0, #0
     df0:	d101      	bne.n	df6 <spi_read_buffer_wait+0x96>
     df2:	3012      	adds	r0, #18
     df4:	e7f7      	b.n	de6 <spi_read_buffer_wait+0x86>
     df6:	0020      	movs	r0, r4
     df8:	47b0      	blx	r6
     dfa:	2800      	cmp	r0, #0
     dfc:	d0fb      	beq.n	df6 <spi_read_buffer_wait+0x96>
     dfe:	ab04      	add	r3, sp, #16
     e00:	1d9e      	adds	r6, r3, #6
     e02:	2300      	movs	r3, #0
     e04:	0031      	movs	r1, r6
     e06:	8033      	strh	r3, [r6, #0]
     e08:	0020      	movs	r0, r4
     e0a:	4b11      	ldr	r3, [pc, #68]	; (e50 <spi_read_buffer_wait+0xf0>)
     e0c:	4798      	blx	r3
     e0e:	2800      	cmp	r0, #0
     e10:	d1e9      	bne.n	de6 <spi_read_buffer_wait+0x86>
     e12:	9902      	ldr	r1, [sp, #8]
     e14:	8832      	ldrh	r2, [r6, #0]
     e16:	1c6b      	adds	r3, r5, #1
     e18:	554a      	strb	r2, [r1, r5]
     e1a:	79a1      	ldrb	r1, [r4, #6]
     e1c:	b29b      	uxth	r3, r3
     e1e:	2901      	cmp	r1, #1
     e20:	d109      	bne.n	e36 <spi_read_buffer_wait+0xd6>
     e22:	9902      	ldr	r1, [sp, #8]
     e24:	3502      	adds	r5, #2
     e26:	0a12      	lsrs	r2, r2, #8
     e28:	b2ad      	uxth	r5, r5
     e2a:	54ca      	strb	r2, [r1, r3]
     e2c:	3f01      	subs	r7, #1
     e2e:	b2bf      	uxth	r7, r7
     e30:	2f00      	cmp	r7, #0
     e32:	d1b4      	bne.n	d9e <spi_read_buffer_wait+0x3e>
     e34:	e7d7      	b.n	de6 <spi_read_buffer_wait+0x86>
     e36:	001d      	movs	r5, r3
     e38:	e7f8      	b.n	e2c <spi_read_buffer_wait+0xcc>
     e3a:	46c0      	nop			; (mov r8, r8)
     e3c:	00000add 	.word	0x00000add
     e40:	00000ae7 	.word	0x00000ae7
     e44:	00000afd 	.word	0x00000afd
     e48:	00000af1 	.word	0x00000af1
     e4c:	00002711 	.word	0x00002711
     e50:	00000b1d 	.word	0x00000b1d

00000e54 <spi_write_buffer_wait>:
     e54:	0003      	movs	r3, r0
     e56:	b5f0      	push	{r4, r5, r6, r7, lr}
     e58:	0004      	movs	r4, r0
     e5a:	2005      	movs	r0, #5
     e5c:	b087      	sub	sp, #28
     e5e:	9102      	str	r1, [sp, #8]
     e60:	3338      	adds	r3, #56	; 0x38
     e62:	781b      	ldrb	r3, [r3, #0]
     e64:	0015      	movs	r5, r2
     e66:	4283      	cmp	r3, r0
     e68:	d032      	beq.n	ed0 <spi_write_buffer_wait+0x7c>
     e6a:	3012      	adds	r0, #18
     e6c:	2a00      	cmp	r2, #0
     e6e:	d02f      	beq.n	ed0 <spi_write_buffer_wait+0x7c>
     e70:	7963      	ldrb	r3, [r4, #5]
     e72:	2b00      	cmp	r3, #0
     e74:	d107      	bne.n	e86 <spi_write_buffer_wait+0x32>
     e76:	0020      	movs	r0, r4
     e78:	4b5f      	ldr	r3, [pc, #380]	; (ff8 <spi_write_buffer_wait+0x1a4>)
     e7a:	4798      	blx	r3
     e7c:	2800      	cmp	r0, #0
     e7e:	d002      	beq.n	e86 <spi_write_buffer_wait+0x32>
     e80:	2302      	movs	r3, #2
     e82:	6822      	ldr	r2, [r4, #0]
     e84:	7613      	strb	r3, [r2, #24]
     e86:	2600      	movs	r6, #0
     e88:	9501      	str	r5, [sp, #4]
     e8a:	3d01      	subs	r5, #1
     e8c:	b2ad      	uxth	r5, r5
     e8e:	4a5b      	ldr	r2, [pc, #364]	; (ffc <spi_write_buffer_wait+0x1a8>)
     e90:	7963      	ldrb	r3, [r4, #5]
     e92:	4295      	cmp	r5, r2
     e94:	d108      	bne.n	ea8 <spi_write_buffer_wait+0x54>
     e96:	2b01      	cmp	r3, #1
     e98:	d100      	bne.n	e9c <spi_write_buffer_wait+0x48>
     e9a:	e087      	b.n	fac <spi_write_buffer_wait+0x158>
     e9c:	7963      	ldrb	r3, [r4, #5]
     e9e:	2b00      	cmp	r3, #0
     ea0:	d100      	bne.n	ea4 <spi_write_buffer_wait+0x50>
     ea2:	e089      	b.n	fb8 <spi_write_buffer_wait+0x164>
     ea4:	2000      	movs	r0, #0
     ea6:	e013      	b.n	ed0 <spi_write_buffer_wait+0x7c>
     ea8:	2b00      	cmp	r3, #0
     eaa:	d11a      	bne.n	ee2 <spi_write_buffer_wait+0x8e>
     eac:	4f54      	ldr	r7, [pc, #336]	; (1000 <spi_write_buffer_wait+0x1ac>)
     eae:	0020      	movs	r0, r4
     eb0:	4b54      	ldr	r3, [pc, #336]	; (1004 <spi_write_buffer_wait+0x1b0>)
     eb2:	4798      	blx	r3
     eb4:	2800      	cmp	r0, #0
     eb6:	d102      	bne.n	ebe <spi_write_buffer_wait+0x6a>
     eb8:	3f01      	subs	r7, #1
     eba:	2f00      	cmp	r7, #0
     ebc:	d1f7      	bne.n	eae <spi_write_buffer_wait+0x5a>
     ebe:	0020      	movs	r0, r4
     ec0:	4b4d      	ldr	r3, [pc, #308]	; (ff8 <spi_write_buffer_wait+0x1a4>)
     ec2:	4798      	blx	r3
     ec4:	2800      	cmp	r0, #0
     ec6:	d005      	beq.n	ed4 <spi_write_buffer_wait+0x80>
     ec8:	2202      	movs	r2, #2
     eca:	2004      	movs	r0, #4
     ecc:	6823      	ldr	r3, [r4, #0]
     ece:	761a      	strb	r2, [r3, #24]
     ed0:	b007      	add	sp, #28
     ed2:	bdf0      	pop	{r4, r5, r6, r7, pc}
     ed4:	0020      	movs	r0, r4
     ed6:	4b4b      	ldr	r3, [pc, #300]	; (1004 <spi_write_buffer_wait+0x1b0>)
     ed8:	4798      	blx	r3
     eda:	2800      	cmp	r0, #0
     edc:	d101      	bne.n	ee2 <spi_write_buffer_wait+0x8e>
     ede:	3012      	adds	r0, #18
     ee0:	e7f6      	b.n	ed0 <spi_write_buffer_wait+0x7c>
     ee2:	0020      	movs	r0, r4
     ee4:	4b47      	ldr	r3, [pc, #284]	; (1004 <spi_write_buffer_wait+0x1b0>)
     ee6:	4798      	blx	r3
     ee8:	2800      	cmp	r0, #0
     eea:	d0fa      	beq.n	ee2 <spi_write_buffer_wait+0x8e>
     eec:	9a02      	ldr	r2, [sp, #8]
     eee:	1c73      	adds	r3, r6, #1
     ef0:	5d91      	ldrb	r1, [r2, r6]
     ef2:	79a2      	ldrb	r2, [r4, #6]
     ef4:	b29b      	uxth	r3, r3
     ef6:	2a01      	cmp	r2, #1
     ef8:	d040      	beq.n	f7c <spi_write_buffer_wait+0x128>
     efa:	001e      	movs	r6, r3
     efc:	b289      	uxth	r1, r1
     efe:	4b42      	ldr	r3, [pc, #264]	; (1008 <spi_write_buffer_wait+0x1b4>)
     f00:	0020      	movs	r0, r4
     f02:	4798      	blx	r3
     f04:	79e2      	ldrb	r2, [r4, #7]
     f06:	1e6b      	subs	r3, r5, #1
     f08:	b29b      	uxth	r3, r3
     f0a:	2a00      	cmp	r2, #0
     f0c:	d04c      	beq.n	fa8 <spi_write_buffer_wait+0x154>
     f0e:	7963      	ldrb	r3, [r4, #5]
     f10:	2b00      	cmp	r3, #0
     f12:	d124      	bne.n	f5e <spi_write_buffer_wait+0x10a>
     f14:	4b3a      	ldr	r3, [pc, #232]	; (1000 <spi_write_buffer_wait+0x1ac>)
     f16:	9303      	str	r3, [sp, #12]
     f18:	2d00      	cmp	r5, #0
     f1a:	d012      	beq.n	f42 <spi_write_buffer_wait+0xee>
     f1c:	0020      	movs	r0, r4
     f1e:	4b39      	ldr	r3, [pc, #228]	; (1004 <spi_write_buffer_wait+0x1b0>)
     f20:	4798      	blx	r3
     f22:	2800      	cmp	r0, #0
     f24:	d00d      	beq.n	f42 <spi_write_buffer_wait+0xee>
     f26:	9b02      	ldr	r3, [sp, #8]
     f28:	1c77      	adds	r7, r6, #1
     f2a:	5d99      	ldrb	r1, [r3, r6]
     f2c:	79a3      	ldrb	r3, [r4, #6]
     f2e:	b2bf      	uxth	r7, r7
     f30:	2b01      	cmp	r3, #1
     f32:	d02a      	beq.n	f8a <spi_write_buffer_wait+0x136>
     f34:	b289      	uxth	r1, r1
     f36:	0020      	movs	r0, r4
     f38:	4b33      	ldr	r3, [pc, #204]	; (1008 <spi_write_buffer_wait+0x1b4>)
     f3a:	4798      	blx	r3
     f3c:	003e      	movs	r6, r7
     f3e:	3d01      	subs	r5, #1
     f40:	b2ad      	uxth	r5, r5
     f42:	0020      	movs	r0, r4
     f44:	4f31      	ldr	r7, [pc, #196]	; (100c <spi_write_buffer_wait+0x1b8>)
     f46:	47b8      	blx	r7
     f48:	2800      	cmp	r0, #0
     f4a:	d025      	beq.n	f98 <spi_write_buffer_wait+0x144>
     f4c:	0020      	movs	r0, r4
     f4e:	4b2a      	ldr	r3, [pc, #168]	; (ff8 <spi_write_buffer_wait+0x1a4>)
     f50:	4798      	blx	r3
     f52:	2800      	cmp	r0, #0
     f54:	d1b8      	bne.n	ec8 <spi_write_buffer_wait+0x74>
     f56:	0020      	movs	r0, r4
     f58:	47b8      	blx	r7
     f5a:	2800      	cmp	r0, #0
     f5c:	d022      	beq.n	fa4 <spi_write_buffer_wait+0x150>
     f5e:	0020      	movs	r0, r4
     f60:	4b2a      	ldr	r3, [pc, #168]	; (100c <spi_write_buffer_wait+0x1b8>)
     f62:	4798      	blx	r3
     f64:	2800      	cmp	r0, #0
     f66:	d0fa      	beq.n	f5e <spi_write_buffer_wait+0x10a>
     f68:	ab04      	add	r3, sp, #16
     f6a:	1d99      	adds	r1, r3, #6
     f6c:	0020      	movs	r0, r4
     f6e:	4b28      	ldr	r3, [pc, #160]	; (1010 <spi_write_buffer_wait+0x1bc>)
     f70:	4798      	blx	r3
     f72:	9b01      	ldr	r3, [sp, #4]
     f74:	3b01      	subs	r3, #1
     f76:	b29b      	uxth	r3, r3
     f78:	9301      	str	r3, [sp, #4]
     f7a:	e786      	b.n	e8a <spi_write_buffer_wait+0x36>
     f7c:	9a02      	ldr	r2, [sp, #8]
     f7e:	3602      	adds	r6, #2
     f80:	5cd3      	ldrb	r3, [r2, r3]
     f82:	b2b6      	uxth	r6, r6
     f84:	021b      	lsls	r3, r3, #8
     f86:	4319      	orrs	r1, r3
     f88:	e7b9      	b.n	efe <spi_write_buffer_wait+0xaa>
     f8a:	9b02      	ldr	r3, [sp, #8]
     f8c:	3602      	adds	r6, #2
     f8e:	5ddb      	ldrb	r3, [r3, r7]
     f90:	b2b7      	uxth	r7, r6
     f92:	021b      	lsls	r3, r3, #8
     f94:	4319      	orrs	r1, r3
     f96:	e7ce      	b.n	f36 <spi_write_buffer_wait+0xe2>
     f98:	9b03      	ldr	r3, [sp, #12]
     f9a:	3b01      	subs	r3, #1
     f9c:	9303      	str	r3, [sp, #12]
     f9e:	2b00      	cmp	r3, #0
     fa0:	d1ba      	bne.n	f18 <spi_write_buffer_wait+0xc4>
     fa2:	e7d3      	b.n	f4c <spi_write_buffer_wait+0xf8>
     fa4:	2012      	movs	r0, #18
     fa6:	e793      	b.n	ed0 <spi_write_buffer_wait+0x7c>
     fa8:	001d      	movs	r5, r3
     faa:	e770      	b.n	e8e <spi_write_buffer_wait+0x3a>
     fac:	0020      	movs	r0, r4
     fae:	4b12      	ldr	r3, [pc, #72]	; (ff8 <spi_write_buffer_wait+0x1a4>)
     fb0:	4798      	blx	r3
     fb2:	2800      	cmp	r0, #0
     fb4:	d0fa      	beq.n	fac <spi_write_buffer_wait+0x158>
     fb6:	e771      	b.n	e9c <spi_write_buffer_wait+0x48>
     fb8:	79e3      	ldrb	r3, [r4, #7]
     fba:	2b00      	cmp	r3, #0
     fbc:	d100      	bne.n	fc0 <spi_write_buffer_wait+0x16c>
     fbe:	e771      	b.n	ea4 <spi_write_buffer_wait+0x50>
     fc0:	9b01      	ldr	r3, [sp, #4]
     fc2:	2b00      	cmp	r3, #0
     fc4:	d100      	bne.n	fc8 <spi_write_buffer_wait+0x174>
     fc6:	e76d      	b.n	ea4 <spi_write_buffer_wait+0x50>
     fc8:	4d0d      	ldr	r5, [pc, #52]	; (1000 <spi_write_buffer_wait+0x1ac>)
     fca:	0020      	movs	r0, r4
     fcc:	4e0f      	ldr	r6, [pc, #60]	; (100c <spi_write_buffer_wait+0x1b8>)
     fce:	47b0      	blx	r6
     fd0:	2800      	cmp	r0, #0
     fd2:	d102      	bne.n	fda <spi_write_buffer_wait+0x186>
     fd4:	3d01      	subs	r5, #1
     fd6:	2d00      	cmp	r5, #0
     fd8:	d1f7      	bne.n	fca <spi_write_buffer_wait+0x176>
     fda:	0020      	movs	r0, r4
     fdc:	47b0      	blx	r6
     fde:	2800      	cmp	r0, #0
     fe0:	d100      	bne.n	fe4 <spi_write_buffer_wait+0x190>
     fe2:	e77c      	b.n	ede <spi_write_buffer_wait+0x8a>
     fe4:	ab04      	add	r3, sp, #16
     fe6:	1d99      	adds	r1, r3, #6
     fe8:	0020      	movs	r0, r4
     fea:	4b09      	ldr	r3, [pc, #36]	; (1010 <spi_write_buffer_wait+0x1bc>)
     fec:	4798      	blx	r3
     fee:	9b01      	ldr	r3, [sp, #4]
     ff0:	3b01      	subs	r3, #1
     ff2:	b29b      	uxth	r3, r3
     ff4:	9301      	str	r3, [sp, #4]
     ff6:	e7e3      	b.n	fc0 <spi_write_buffer_wait+0x16c>
     ff8:	00000add 	.word	0x00000add
     ffc:	0000ffff 	.word	0x0000ffff
    1000:	00002711 	.word	0x00002711
    1004:	00000ae7 	.word	0x00000ae7
    1008:	00000afd 	.word	0x00000afd
    100c:	00000af1 	.word	0x00000af1
    1010:	00000b1d 	.word	0x00000b1d

00001014 <_spi_interrupt_handler>:
    1014:	b5f8      	push	{r3, r4, r5, r6, r7, lr}
    1016:	4b7c      	ldr	r3, [pc, #496]	; (1208 <_spi_interrupt_handler+0x1f4>)
    1018:	0080      	lsls	r0, r0, #2
    101a:	58c4      	ldr	r4, [r0, r3]
    101c:	0023      	movs	r3, r4
    101e:	0022      	movs	r2, r4
    1020:	3337      	adds	r3, #55	; 0x37
    1022:	3236      	adds	r2, #54	; 0x36
    1024:	6825      	ldr	r5, [r4, #0]
    1026:	781b      	ldrb	r3, [r3, #0]
    1028:	7816      	ldrb	r6, [r2, #0]
    102a:	401e      	ands	r6, r3
    102c:	7e2b      	ldrb	r3, [r5, #24]
    102e:	7daf      	ldrb	r7, [r5, #22]
    1030:	401f      	ands	r7, r3
    1032:	07fb      	lsls	r3, r7, #31
    1034:	d539      	bpl.n	10aa <_spi_interrupt_handler+0x96>
    1036:	7962      	ldrb	r2, [r4, #5]
    1038:	0013      	movs	r3, r2
    103a:	2a01      	cmp	r2, #1
    103c:	d133      	bne.n	10a6 <_spi_interrupt_handler+0x92>
    103e:	7a63      	ldrb	r3, [r4, #9]
    1040:	2b00      	cmp	r3, #0
    1042:	d10d      	bne.n	1060 <_spi_interrupt_handler+0x4c>
    1044:	4b71      	ldr	r3, [pc, #452]	; (120c <_spi_interrupt_handler+0x1f8>)
    1046:	881b      	ldrh	r3, [r3, #0]
    1048:	62ab      	str	r3, [r5, #40]	; 0x28
    104a:	8e63      	ldrh	r3, [r4, #50]	; 0x32
    104c:	3b01      	subs	r3, #1
    104e:	b29b      	uxth	r3, r3
    1050:	8663      	strh	r3, [r4, #50]	; 0x32
    1052:	8e63      	ldrh	r3, [r4, #50]	; 0x32
    1054:	2b00      	cmp	r3, #0
    1056:	d100      	bne.n	105a <_spi_interrupt_handler+0x46>
    1058:	752a      	strb	r2, [r5, #20]
    105a:	7963      	ldrb	r3, [r4, #5]
    105c:	2b01      	cmp	r3, #1
    105e:	d122      	bne.n	10a6 <_spi_interrupt_handler+0x92>
    1060:	7a63      	ldrb	r3, [r4, #9]
    1062:	2b00      	cmp	r3, #0
    1064:	d021      	beq.n	10aa <_spi_interrupt_handler+0x96>
    1066:	6ae1      	ldr	r1, [r4, #44]	; 0x2c
    1068:	6822      	ldr	r2, [r4, #0]
    106a:	1c48      	adds	r0, r1, #1
    106c:	780b      	ldrb	r3, [r1, #0]
    106e:	62e0      	str	r0, [r4, #44]	; 0x2c
    1070:	79a0      	ldrb	r0, [r4, #6]
    1072:	b2db      	uxtb	r3, r3
    1074:	2801      	cmp	r0, #1
    1076:	d100      	bne.n	107a <_spi_interrupt_handler+0x66>
    1078:	e074      	b.n	1164 <_spi_interrupt_handler+0x150>
    107a:	b29b      	uxth	r3, r3
    107c:	05db      	lsls	r3, r3, #23
    107e:	0ddb      	lsrs	r3, r3, #23
    1080:	6293      	str	r3, [r2, #40]	; 0x28
    1082:	8ea3      	ldrh	r3, [r4, #52]	; 0x34
    1084:	3b01      	subs	r3, #1
    1086:	b29b      	uxth	r3, r3
    1088:	86a3      	strh	r3, [r4, #52]	; 0x34
    108a:	8ea3      	ldrh	r3, [r4, #52]	; 0x34
    108c:	2b00      	cmp	r3, #0
    108e:	d10c      	bne.n	10aa <_spi_interrupt_handler+0x96>
    1090:	3301      	adds	r3, #1
    1092:	752b      	strb	r3, [r5, #20]
    1094:	7a63      	ldrb	r3, [r4, #9]
    1096:	2b01      	cmp	r3, #1
    1098:	d107      	bne.n	10aa <_spi_interrupt_handler+0x96>
    109a:	79e3      	ldrb	r3, [r4, #7]
    109c:	2b00      	cmp	r3, #0
    109e:	d104      	bne.n	10aa <_spi_interrupt_handler+0x96>
    10a0:	3302      	adds	r3, #2
    10a2:	75ab      	strb	r3, [r5, #22]
    10a4:	e001      	b.n	10aa <_spi_interrupt_handler+0x96>
    10a6:	2b00      	cmp	r3, #0
    10a8:	d0da      	beq.n	1060 <_spi_interrupt_handler+0x4c>
    10aa:	2104      	movs	r1, #4
    10ac:	420f      	tst	r7, r1
    10ae:	d015      	beq.n	10dc <_spi_interrupt_handler+0xc8>
    10b0:	8b6b      	ldrh	r3, [r5, #26]
    10b2:	420b      	tst	r3, r1
    10b4:	d05c      	beq.n	1170 <_spi_interrupt_handler+0x15c>
    10b6:	7a63      	ldrb	r3, [r4, #9]
    10b8:	2b01      	cmp	r3, #1
    10ba:	d00c      	beq.n	10d6 <_spi_interrupt_handler+0xc2>
    10bc:	0023      	movs	r3, r4
    10be:	221e      	movs	r2, #30
    10c0:	3338      	adds	r3, #56	; 0x38
    10c2:	701a      	strb	r2, [r3, #0]
    10c4:	2303      	movs	r3, #3
    10c6:	7263      	strb	r3, [r4, #9]
    10c8:	3302      	adds	r3, #2
    10ca:	752b      	strb	r3, [r5, #20]
    10cc:	0733      	lsls	r3, r6, #28
    10ce:	d502      	bpl.n	10d6 <_spi_interrupt_handler+0xc2>
    10d0:	0020      	movs	r0, r4
    10d2:	69a3      	ldr	r3, [r4, #24]
    10d4:	4798      	blx	r3
    10d6:	6aab      	ldr	r3, [r5, #40]	; 0x28
    10d8:	2304      	movs	r3, #4
    10da:	836b      	strh	r3, [r5, #26]
    10dc:	2202      	movs	r2, #2
    10de:	4217      	tst	r7, r2
    10e0:	d027      	beq.n	1132 <_spi_interrupt_handler+0x11e>
    10e2:	7963      	ldrb	r3, [r4, #5]
    10e4:	2b00      	cmp	r3, #0
    10e6:	d10e      	bne.n	1106 <_spi_interrupt_handler+0xf2>
    10e8:	2107      	movs	r1, #7
    10ea:	7529      	strb	r1, [r5, #20]
    10ec:	762a      	strb	r2, [r5, #24]
    10ee:	3201      	adds	r2, #1
    10f0:	7262      	strb	r2, [r4, #9]
    10f2:	0022      	movs	r2, r4
    10f4:	3238      	adds	r2, #56	; 0x38
    10f6:	86a3      	strh	r3, [r4, #52]	; 0x34
    10f8:	8623      	strh	r3, [r4, #48]	; 0x30
    10fa:	7013      	strb	r3, [r2, #0]
    10fc:	06f3      	lsls	r3, r6, #27
    10fe:	d502      	bpl.n	1106 <_spi_interrupt_handler+0xf2>
    1100:	0020      	movs	r0, r4
    1102:	69e3      	ldr	r3, [r4, #28]
    1104:	4798      	blx	r3
    1106:	7963      	ldrb	r3, [r4, #5]
    1108:	2b01      	cmp	r3, #1
    110a:	d112      	bne.n	1132 <_spi_interrupt_handler+0x11e>
    110c:	7a63      	ldrb	r3, [r4, #9]
    110e:	b2db      	uxtb	r3, r3
    1110:	2b01      	cmp	r3, #1
    1112:	d10e      	bne.n	1132 <_spi_interrupt_handler+0x11e>
    1114:	79e2      	ldrb	r2, [r4, #7]
    1116:	2a00      	cmp	r2, #0
    1118:	d10b      	bne.n	1132 <_spi_interrupt_handler+0x11e>
    111a:	2102      	movs	r1, #2
    111c:	7529      	strb	r1, [r5, #20]
    111e:	3101      	adds	r1, #1
    1120:	7261      	strb	r1, [r4, #9]
    1122:	0021      	movs	r1, r4
    1124:	3138      	adds	r1, #56	; 0x38
    1126:	700a      	strb	r2, [r1, #0]
    1128:	421e      	tst	r6, r3
    112a:	d002      	beq.n	1132 <_spi_interrupt_handler+0x11e>
    112c:	0020      	movs	r0, r4
    112e:	68e3      	ldr	r3, [r4, #12]
    1130:	4798      	blx	r3
    1132:	2308      	movs	r3, #8
    1134:	421f      	tst	r7, r3
    1136:	d009      	beq.n	114c <_spi_interrupt_handler+0x138>
    1138:	7962      	ldrb	r2, [r4, #5]
    113a:	2a00      	cmp	r2, #0
    113c:	d106      	bne.n	114c <_spi_interrupt_handler+0x138>
    113e:	752b      	strb	r3, [r5, #20]
    1140:	762b      	strb	r3, [r5, #24]
    1142:	06b3      	lsls	r3, r6, #26
    1144:	d502      	bpl.n	114c <_spi_interrupt_handler+0x138>
    1146:	0020      	movs	r0, r4
    1148:	6a23      	ldr	r3, [r4, #32]
    114a:	4798      	blx	r3
    114c:	b27f      	sxtb	r7, r7
    114e:	2f00      	cmp	r7, #0
    1150:	da07      	bge.n	1162 <_spi_interrupt_handler+0x14e>
    1152:	2380      	movs	r3, #128	; 0x80
    1154:	752b      	strb	r3, [r5, #20]
    1156:	762b      	strb	r3, [r5, #24]
    1158:	0673      	lsls	r3, r6, #25
    115a:	d502      	bpl.n	1162 <_spi_interrupt_handler+0x14e>
    115c:	6a63      	ldr	r3, [r4, #36]	; 0x24
    115e:	0020      	movs	r0, r4
    1160:	4798      	blx	r3
    1162:	bdf8      	pop	{r3, r4, r5, r6, r7, pc}
    1164:	7848      	ldrb	r0, [r1, #1]
    1166:	3102      	adds	r1, #2
    1168:	0200      	lsls	r0, r0, #8
    116a:	4303      	orrs	r3, r0
    116c:	62e1      	str	r1, [r4, #44]	; 0x2c
    116e:	e785      	b.n	107c <_spi_interrupt_handler+0x68>
    1170:	7a62      	ldrb	r2, [r4, #9]
    1172:	6823      	ldr	r3, [r4, #0]
    1174:	b2d2      	uxtb	r2, r2
    1176:	6a9b      	ldr	r3, [r3, #40]	; 0x28
    1178:	2a01      	cmp	r2, #1
    117a:	d113      	bne.n	11a4 <_spi_interrupt_handler+0x190>
    117c:	8e63      	ldrh	r3, [r4, #50]	; 0x32
    117e:	3b01      	subs	r3, #1
    1180:	b29b      	uxth	r3, r3
    1182:	8663      	strh	r3, [r4, #50]	; 0x32
    1184:	8e63      	ldrh	r3, [r4, #50]	; 0x32
    1186:	b29b      	uxth	r3, r3
    1188:	2b00      	cmp	r3, #0
    118a:	d1a7      	bne.n	10dc <_spi_interrupt_handler+0xc8>
    118c:	7529      	strb	r1, [r5, #20]
    118e:	0021      	movs	r1, r4
    1190:	3138      	adds	r1, #56	; 0x38
    1192:	700b      	strb	r3, [r1, #0]
    1194:	3303      	adds	r3, #3
    1196:	7263      	strb	r3, [r4, #9]
    1198:	4216      	tst	r6, r2
    119a:	d09f      	beq.n	10dc <_spi_interrupt_handler+0xc8>
    119c:	0020      	movs	r0, r4
    119e:	68e3      	ldr	r3, [r4, #12]
    11a0:	4798      	blx	r3
    11a2:	e79b      	b.n	10dc <_spi_interrupt_handler+0xc8>
    11a4:	05db      	lsls	r3, r3, #23
    11a6:	6aa1      	ldr	r1, [r4, #40]	; 0x28
    11a8:	0ddb      	lsrs	r3, r3, #23
    11aa:	b2da      	uxtb	r2, r3
    11ac:	700a      	strb	r2, [r1, #0]
    11ae:	6aa2      	ldr	r2, [r4, #40]	; 0x28
    11b0:	1c51      	adds	r1, r2, #1
    11b2:	62a1      	str	r1, [r4, #40]	; 0x28
    11b4:	79a1      	ldrb	r1, [r4, #6]
    11b6:	2901      	cmp	r1, #1
    11b8:	d104      	bne.n	11c4 <_spi_interrupt_handler+0x1b0>
    11ba:	0a1b      	lsrs	r3, r3, #8
    11bc:	7053      	strb	r3, [r2, #1]
    11be:	6aa3      	ldr	r3, [r4, #40]	; 0x28
    11c0:	3301      	adds	r3, #1
    11c2:	62a3      	str	r3, [r4, #40]	; 0x28
    11c4:	8e23      	ldrh	r3, [r4, #48]	; 0x30
    11c6:	3b01      	subs	r3, #1
    11c8:	b29b      	uxth	r3, r3
    11ca:	8623      	strh	r3, [r4, #48]	; 0x30
    11cc:	8e23      	ldrh	r3, [r4, #48]	; 0x30
    11ce:	b29b      	uxth	r3, r3
    11d0:	2b00      	cmp	r3, #0
    11d2:	d000      	beq.n	11d6 <_spi_interrupt_handler+0x1c2>
    11d4:	e782      	b.n	10dc <_spi_interrupt_handler+0xc8>
    11d6:	0022      	movs	r2, r4
    11d8:	3238      	adds	r2, #56	; 0x38
    11da:	7013      	strb	r3, [r2, #0]
    11dc:	3304      	adds	r3, #4
    11de:	752b      	strb	r3, [r5, #20]
    11e0:	7a62      	ldrb	r2, [r4, #9]
    11e2:	2a02      	cmp	r2, #2
    11e4:	d105      	bne.n	11f2 <_spi_interrupt_handler+0x1de>
    11e6:	421e      	tst	r6, r3
    11e8:	d100      	bne.n	11ec <_spi_interrupt_handler+0x1d8>
    11ea:	e777      	b.n	10dc <_spi_interrupt_handler+0xc8>
    11ec:	0020      	movs	r0, r4
    11ee:	6963      	ldr	r3, [r4, #20]
    11f0:	e7d6      	b.n	11a0 <_spi_interrupt_handler+0x18c>
    11f2:	7a63      	ldrb	r3, [r4, #9]
    11f4:	2b00      	cmp	r3, #0
    11f6:	d000      	beq.n	11fa <_spi_interrupt_handler+0x1e6>
    11f8:	e770      	b.n	10dc <_spi_interrupt_handler+0xc8>
    11fa:	07b3      	lsls	r3, r6, #30
    11fc:	d400      	bmi.n	1200 <_spi_interrupt_handler+0x1ec>
    11fe:	e76d      	b.n	10dc <_spi_interrupt_handler+0xc8>
    1200:	0020      	movs	r0, r4
    1202:	6923      	ldr	r3, [r4, #16]
    1204:	e7cc      	b.n	11a0 <_spi_interrupt_handler+0x18c>
    1206:	46c0      	nop			; (mov r8, r8)
    1208:	20000104 	.word	0x20000104
    120c:	2000011c 	.word	0x2000011c

00001210 <_usart_wait_for_sync>:
    1210:	6802      	ldr	r2, [r0, #0]
    1212:	69d3      	ldr	r3, [r2, #28]
    1214:	2b00      	cmp	r3, #0
    1216:	d1fc      	bne.n	1212 <_usart_wait_for_sync+0x2>
    1218:	4770      	bx	lr
	...

0000121c <usart_init>:
    121c:	b5f0      	push	{r4, r5, r6, r7, lr}
    121e:	0007      	movs	r7, r0
    1220:	b093      	sub	sp, #76	; 0x4c
    1222:	4ba0      	ldr	r3, [pc, #640]	; (14a4 <usart_init+0x288>)
    1224:	6039      	str	r1, [r7, #0]
    1226:	0008      	movs	r0, r1
    1228:	0016      	movs	r6, r2
    122a:	9104      	str	r1, [sp, #16]
    122c:	4798      	blx	r3
    122e:	2201      	movs	r2, #1
    1230:	9b04      	ldr	r3, [sp, #16]
    1232:	0005      	movs	r5, r0
    1234:	681b      	ldr	r3, [r3, #0]
    1236:	2005      	movs	r0, #5
    1238:	4213      	tst	r3, r2
    123a:	d000      	beq.n	123e <usart_init+0x22>
    123c:	e10f      	b.n	145e <usart_init+0x242>
    123e:	9b04      	ldr	r3, [sp, #16]
    1240:	3017      	adds	r0, #23
    1242:	681c      	ldr	r4, [r3, #0]
    1244:	2302      	movs	r3, #2
    1246:	401c      	ands	r4, r3
    1248:	d000      	beq.n	124c <usart_init+0x30>
    124a:	e108      	b.n	145e <usart_init+0x242>
    124c:	18eb      	adds	r3, r5, r3
    124e:	381b      	subs	r0, #27
    1250:	4098      	lsls	r0, r3
    1252:	0003      	movs	r3, r0
    1254:	4a94      	ldr	r2, [pc, #592]	; (14a8 <usart_init+0x28c>)
    1256:	3514      	adds	r5, #20
    1258:	6a11      	ldr	r1, [r2, #32]
    125a:	b2ed      	uxtb	r5, r5
    125c:	430b      	orrs	r3, r1
    125e:	6213      	str	r3, [r2, #32]
    1260:	0033      	movs	r3, r6
    1262:	332d      	adds	r3, #45	; 0x2d
    1264:	9302      	str	r3, [sp, #8]
    1266:	781b      	ldrb	r3, [r3, #0]
    1268:	a90c      	add	r1, sp, #48	; 0x30
    126a:	700b      	strb	r3, [r1, #0]
    126c:	0028      	movs	r0, r5
    126e:	4b8f      	ldr	r3, [pc, #572]	; (14ac <usart_init+0x290>)
    1270:	4798      	blx	r3
    1272:	0028      	movs	r0, r5
    1274:	4b8e      	ldr	r3, [pc, #568]	; (14b0 <usart_init+0x294>)
    1276:	4798      	blx	r3
    1278:	9b02      	ldr	r3, [sp, #8]
    127a:	0021      	movs	r1, r4
    127c:	7818      	ldrb	r0, [r3, #0]
    127e:	4b8d      	ldr	r3, [pc, #564]	; (14b4 <usart_init+0x298>)
    1280:	4798      	blx	r3
    1282:	7af3      	ldrb	r3, [r6, #11]
    1284:	2508      	movs	r5, #8
    1286:	717b      	strb	r3, [r7, #5]
    1288:	1d73      	adds	r3, r6, #5
    128a:	7fdb      	ldrb	r3, [r3, #31]
    128c:	71bb      	strb	r3, [r7, #6]
    128e:	1db3      	adds	r3, r6, #6
    1290:	7fdb      	ldrb	r3, [r3, #31]
    1292:	71fb      	strb	r3, [r7, #7]
    1294:	7ef3      	ldrb	r3, [r6, #27]
    1296:	723b      	strb	r3, [r7, #8]
    1298:	7f33      	ldrb	r3, [r6, #28]
    129a:	727b      	strb	r3, [r7, #9]
    129c:	683b      	ldr	r3, [r7, #0]
    129e:	9303      	str	r3, [sp, #12]
    12a0:	0018      	movs	r0, r3
    12a2:	4b80      	ldr	r3, [pc, #512]	; (14a4 <usart_init+0x288>)
    12a4:	4798      	blx	r3
    12a6:	ab0e      	add	r3, sp, #56	; 0x38
    12a8:	801c      	strh	r4, [r3, #0]
    12aa:	8a33      	ldrh	r3, [r6, #16]
    12ac:	3014      	adds	r0, #20
    12ae:	9302      	str	r3, [sp, #8]
    12b0:	2380      	movs	r3, #128	; 0x80
    12b2:	9a02      	ldr	r2, [sp, #8]
    12b4:	01db      	lsls	r3, r3, #7
    12b6:	429a      	cmp	r2, r3
    12b8:	d014      	beq.n	12e4 <usart_init+0xc8>
    12ba:	d808      	bhi.n	12ce <usart_init+0xb2>
    12bc:	2380      	movs	r3, #128	; 0x80
    12be:	2510      	movs	r5, #16
    12c0:	019b      	lsls	r3, r3, #6
    12c2:	429a      	cmp	r2, r3
    12c4:	d100      	bne.n	12c8 <usart_init+0xac>
    12c6:	e0cd      	b.n	1464 <usart_init+0x248>
    12c8:	2510      	movs	r5, #16
    12ca:	2400      	movs	r4, #0
    12cc:	e00a      	b.n	12e4 <usart_init+0xc8>
    12ce:	23c0      	movs	r3, #192	; 0xc0
    12d0:	9a02      	ldr	r2, [sp, #8]
    12d2:	01db      	lsls	r3, r3, #7
    12d4:	429a      	cmp	r2, r3
    12d6:	d100      	bne.n	12da <usart_init+0xbe>
    12d8:	e0c3      	b.n	1462 <usart_init+0x246>
    12da:	2380      	movs	r3, #128	; 0x80
    12dc:	2503      	movs	r5, #3
    12de:	021b      	lsls	r3, r3, #8
    12e0:	429a      	cmp	r2, r3
    12e2:	d1f1      	bne.n	12c8 <usart_init+0xac>
    12e4:	6833      	ldr	r3, [r6, #0]
    12e6:	9306      	str	r3, [sp, #24]
    12e8:	68f3      	ldr	r3, [r6, #12]
    12ea:	9307      	str	r3, [sp, #28]
    12ec:	6973      	ldr	r3, [r6, #20]
    12ee:	9308      	str	r3, [sp, #32]
    12f0:	7e33      	ldrb	r3, [r6, #24]
    12f2:	9309      	str	r3, [sp, #36]	; 0x24
    12f4:	1df3      	adds	r3, r6, #7
    12f6:	7fdb      	ldrb	r3, [r3, #31]
    12f8:	930a      	str	r3, [sp, #40]	; 0x28
    12fa:	6873      	ldr	r3, [r6, #4]
    12fc:	9305      	str	r3, [sp, #20]
    12fe:	0033      	movs	r3, r6
    1300:	9a05      	ldr	r2, [sp, #20]
    1302:	3308      	adds	r3, #8
    1304:	2a00      	cmp	r2, #0
    1306:	d100      	bne.n	130a <usart_init+0xee>
    1308:	e0ae      	b.n	1468 <usart_init+0x24c>
    130a:	2280      	movs	r2, #128	; 0x80
    130c:	9905      	ldr	r1, [sp, #20]
    130e:	0552      	lsls	r2, r2, #21
    1310:	4291      	cmp	r1, r2
    1312:	d10e      	bne.n	1332 <usart_init+0x116>
    1314:	7fdb      	ldrb	r3, [r3, #31]
    1316:	2b00      	cmp	r3, #0
    1318:	d10b      	bne.n	1332 <usart_init+0x116>
    131a:	4b67      	ldr	r3, [pc, #412]	; (14b8 <usart_init+0x29c>)
    131c:	b2c0      	uxtb	r0, r0
    131e:	6a34      	ldr	r4, [r6, #32]
    1320:	4798      	blx	r3
    1322:	aa0e      	add	r2, sp, #56	; 0x38
    1324:	0001      	movs	r1, r0
    1326:	4b65      	ldr	r3, [pc, #404]	; (14bc <usart_init+0x2a0>)
    1328:	0020      	movs	r0, r4
    132a:	4798      	blx	r3
    132c:	2800      	cmp	r0, #0
    132e:	d000      	beq.n	1332 <usart_init+0x116>
    1330:	e095      	b.n	145e <usart_init+0x242>
    1332:	7e73      	ldrb	r3, [r6, #25]
    1334:	2b00      	cmp	r3, #0
    1336:	d002      	beq.n	133e <usart_init+0x122>
    1338:	7eb3      	ldrb	r3, [r6, #26]
    133a:	9a03      	ldr	r2, [sp, #12]
    133c:	7393      	strb	r3, [r2, #14]
    133e:	4b60      	ldr	r3, [pc, #384]	; (14c0 <usart_init+0x2a4>)
    1340:	0038      	movs	r0, r7
    1342:	4798      	blx	r3
    1344:	ab0a      	add	r3, sp, #40	; 0x28
    1346:	8a1b      	ldrh	r3, [r3, #16]
    1348:	9a03      	ldr	r2, [sp, #12]
    134a:	9c06      	ldr	r4, [sp, #24]
    134c:	8193      	strh	r3, [r2, #12]
    134e:	9b07      	ldr	r3, [sp, #28]
    1350:	431c      	orrs	r4, r3
    1352:	9b08      	ldr	r3, [sp, #32]
    1354:	431c      	orrs	r4, r3
    1356:	9b05      	ldr	r3, [sp, #20]
    1358:	431c      	orrs	r4, r3
    135a:	9b02      	ldr	r3, [sp, #8]
    135c:	431c      	orrs	r4, r3
    135e:	9b09      	ldr	r3, [sp, #36]	; 0x24
    1360:	021b      	lsls	r3, r3, #8
    1362:	431c      	orrs	r4, r3
    1364:	9b0a      	ldr	r3, [sp, #40]	; 0x28
    1366:	075b      	lsls	r3, r3, #29
    1368:	431c      	orrs	r4, r3
    136a:	0033      	movs	r3, r6
    136c:	3308      	adds	r3, #8
    136e:	7fdb      	ldrb	r3, [r3, #31]
    1370:	2b00      	cmp	r3, #0
    1372:	d101      	bne.n	1378 <usart_init+0x15c>
    1374:	3304      	adds	r3, #4
    1376:	431c      	orrs	r4, r3
    1378:	7e75      	ldrb	r5, [r6, #25]
    137a:	7f33      	ldrb	r3, [r6, #28]
    137c:	02ad      	lsls	r5, r5, #10
    137e:	025b      	lsls	r3, r3, #9
    1380:	431d      	orrs	r5, r3
    1382:	7f73      	ldrb	r3, [r6, #29]
    1384:	7af2      	ldrb	r2, [r6, #11]
    1386:	021b      	lsls	r3, r3, #8
    1388:	431d      	orrs	r5, r3
    138a:	1d73      	adds	r3, r6, #5
    138c:	7fdb      	ldrb	r3, [r3, #31]
    138e:	045b      	lsls	r3, r3, #17
    1390:	431d      	orrs	r5, r3
    1392:	1db3      	adds	r3, r6, #6
    1394:	7fdb      	ldrb	r3, [r3, #31]
    1396:	041b      	lsls	r3, r3, #16
    1398:	432b      	orrs	r3, r5
    139a:	7ab5      	ldrb	r5, [r6, #10]
    139c:	4315      	orrs	r5, r2
    139e:	431d      	orrs	r5, r3
    13a0:	8933      	ldrh	r3, [r6, #8]
    13a2:	2bff      	cmp	r3, #255	; 0xff
    13a4:	d100      	bne.n	13a8 <usart_init+0x18c>
    13a6:	e075      	b.n	1494 <usart_init+0x278>
    13a8:	2280      	movs	r2, #128	; 0x80
    13aa:	0452      	lsls	r2, r2, #17
    13ac:	4314      	orrs	r4, r2
    13ae:	431d      	orrs	r5, r3
    13b0:	0033      	movs	r3, r6
    13b2:	332c      	adds	r3, #44	; 0x2c
    13b4:	781b      	ldrb	r3, [r3, #0]
    13b6:	2b00      	cmp	r3, #0
    13b8:	d103      	bne.n	13c2 <usart_init+0x1a6>
    13ba:	4b42      	ldr	r3, [pc, #264]	; (14c4 <usart_init+0x2a8>)
    13bc:	789b      	ldrb	r3, [r3, #2]
    13be:	079b      	lsls	r3, r3, #30
    13c0:	d501      	bpl.n	13c6 <usart_init+0x1aa>
    13c2:	2380      	movs	r3, #128	; 0x80
    13c4:	431c      	orrs	r4, r3
    13c6:	0038      	movs	r0, r7
    13c8:	4b3d      	ldr	r3, [pc, #244]	; (14c0 <usart_init+0x2a4>)
    13ca:	4798      	blx	r3
    13cc:	9b03      	ldr	r3, [sp, #12]
    13ce:	0038      	movs	r0, r7
    13d0:	605d      	str	r5, [r3, #4]
    13d2:	4b3b      	ldr	r3, [pc, #236]	; (14c0 <usart_init+0x2a4>)
    13d4:	4798      	blx	r3
    13d6:	9b03      	ldr	r3, [sp, #12]
    13d8:	2500      	movs	r5, #0
    13da:	601c      	str	r4, [r3, #0]
    13dc:	2380      	movs	r3, #128	; 0x80
    13de:	ac0d      	add	r4, sp, #52	; 0x34
    13e0:	7023      	strb	r3, [r4, #0]
    13e2:	6b33      	ldr	r3, [r6, #48]	; 0x30
    13e4:	7065      	strb	r5, [r4, #1]
    13e6:	930e      	str	r3, [sp, #56]	; 0x38
    13e8:	6b73      	ldr	r3, [r6, #52]	; 0x34
    13ea:	70e5      	strb	r5, [r4, #3]
    13ec:	930f      	str	r3, [sp, #60]	; 0x3c
    13ee:	6bb3      	ldr	r3, [r6, #56]	; 0x38
    13f0:	70a5      	strb	r5, [r4, #2]
    13f2:	9310      	str	r3, [sp, #64]	; 0x40
    13f4:	6bf3      	ldr	r3, [r6, #60]	; 0x3c
    13f6:	9302      	str	r3, [sp, #8]
    13f8:	9311      	str	r3, [sp, #68]	; 0x44
    13fa:	2010      	movs	r0, #16
    13fc:	aa0a      	add	r2, sp, #40	; 0x28
    13fe:	00ab      	lsls	r3, r5, #2
    1400:	1812      	adds	r2, r2, r0
    1402:	58d0      	ldr	r0, [r2, r3]
    1404:	b2e9      	uxtb	r1, r5
    1406:	2800      	cmp	r0, #0
    1408:	d102      	bne.n	1410 <usart_init+0x1f4>
    140a:	9804      	ldr	r0, [sp, #16]
    140c:	4b2e      	ldr	r3, [pc, #184]	; (14c8 <usart_init+0x2ac>)
    140e:	4798      	blx	r3
    1410:	1c43      	adds	r3, r0, #1
    1412:	d005      	beq.n	1420 <usart_init+0x204>
    1414:	7020      	strb	r0, [r4, #0]
    1416:	0c00      	lsrs	r0, r0, #16
    1418:	b2c0      	uxtb	r0, r0
    141a:	0021      	movs	r1, r4
    141c:	4b2b      	ldr	r3, [pc, #172]	; (14cc <usart_init+0x2b0>)
    141e:	4798      	blx	r3
    1420:	3501      	adds	r5, #1
    1422:	2d04      	cmp	r5, #4
    1424:	d1e9      	bne.n	13fa <usart_init+0x1de>
    1426:	003b      	movs	r3, r7
    1428:	2400      	movs	r4, #0
    142a:	3330      	adds	r3, #48	; 0x30
    142c:	85fc      	strh	r4, [r7, #46]	; 0x2e
    142e:	60fc      	str	r4, [r7, #12]
    1430:	613c      	str	r4, [r7, #16]
    1432:	617c      	str	r4, [r7, #20]
    1434:	61bc      	str	r4, [r7, #24]
    1436:	61fc      	str	r4, [r7, #28]
    1438:	623c      	str	r4, [r7, #32]
    143a:	62bc      	str	r4, [r7, #40]	; 0x28
    143c:	627c      	str	r4, [r7, #36]	; 0x24
    143e:	85bc      	strh	r4, [r7, #44]	; 0x2c
    1440:	709c      	strb	r4, [r3, #2]
    1442:	701c      	strb	r4, [r3, #0]
    1444:	705c      	strb	r4, [r3, #1]
    1446:	70dc      	strb	r4, [r3, #3]
    1448:	6838      	ldr	r0, [r7, #0]
    144a:	4b16      	ldr	r3, [pc, #88]	; (14a4 <usart_init+0x288>)
    144c:	4798      	blx	r3
    144e:	0005      	movs	r5, r0
    1450:	4b1f      	ldr	r3, [pc, #124]	; (14d0 <usart_init+0x2b4>)
    1452:	4920      	ldr	r1, [pc, #128]	; (14d4 <usart_init+0x2b8>)
    1454:	4798      	blx	r3
    1456:	0020      	movs	r0, r4
    1458:	4b1f      	ldr	r3, [pc, #124]	; (14d8 <usart_init+0x2bc>)
    145a:	00ad      	lsls	r5, r5, #2
    145c:	50ef      	str	r7, [r5, r3]
    145e:	b013      	add	sp, #76	; 0x4c
    1460:	bdf0      	pop	{r4, r5, r6, r7, pc}
    1462:	2508      	movs	r5, #8
    1464:	2401      	movs	r4, #1
    1466:	e73d      	b.n	12e4 <usart_init+0xc8>
    1468:	7fdb      	ldrb	r3, [r3, #31]
    146a:	2b00      	cmp	r3, #0
    146c:	d007      	beq.n	147e <usart_init+0x262>
    146e:	0023      	movs	r3, r4
    1470:	6ab1      	ldr	r1, [r6, #40]	; 0x28
    1472:	6a30      	ldr	r0, [r6, #32]
    1474:	9500      	str	r5, [sp, #0]
    1476:	aa0e      	add	r2, sp, #56	; 0x38
    1478:	4c18      	ldr	r4, [pc, #96]	; (14dc <usart_init+0x2c0>)
    147a:	47a0      	blx	r4
    147c:	e756      	b.n	132c <usart_init+0x110>
    147e:	6a33      	ldr	r3, [r6, #32]
    1480:	b2c0      	uxtb	r0, r0
    1482:	930b      	str	r3, [sp, #44]	; 0x2c
    1484:	4b0c      	ldr	r3, [pc, #48]	; (14b8 <usart_init+0x29c>)
    1486:	4798      	blx	r3
    1488:	9500      	str	r5, [sp, #0]
    148a:	0001      	movs	r1, r0
    148c:	0023      	movs	r3, r4
    148e:	aa0e      	add	r2, sp, #56	; 0x38
    1490:	980b      	ldr	r0, [sp, #44]	; 0x2c
    1492:	e7f1      	b.n	1478 <usart_init+0x25c>
    1494:	7ef3      	ldrb	r3, [r6, #27]
    1496:	2b00      	cmp	r3, #0
    1498:	d100      	bne.n	149c <usart_init+0x280>
    149a:	e789      	b.n	13b0 <usart_init+0x194>
    149c:	2380      	movs	r3, #128	; 0x80
    149e:	04db      	lsls	r3, r3, #19
    14a0:	431c      	orrs	r4, r3
    14a2:	e785      	b.n	13b0 <usart_init+0x194>
    14a4:	000009e5 	.word	0x000009e5
    14a8:	40000400 	.word	0x40000400
    14ac:	00001b05 	.word	0x00001b05
    14b0:	00001a7d 	.word	0x00001a7d
    14b4:	00000845 	.word	0x00000845
    14b8:	00001b21 	.word	0x00001b21
    14bc:	00000785 	.word	0x00000785
    14c0:	00001211 	.word	0x00001211
    14c4:	41002000 	.word	0x41002000
    14c8:	00000889 	.word	0x00000889
    14cc:	00001bd9 	.word	0x00001bd9
    14d0:	00000a19 	.word	0x00000a19
    14d4:	00001585 	.word	0x00001585
    14d8:	20000104 	.word	0x20000104
    14dc:	000007ad 	.word	0x000007ad

000014e0 <usart_write_wait>:
    14e0:	b570      	push	{r4, r5, r6, lr}
    14e2:	79c2      	ldrb	r2, [r0, #7]
    14e4:	000d      	movs	r5, r1
    14e6:	231c      	movs	r3, #28
    14e8:	2a00      	cmp	r2, #0
    14ea:	d00c      	beq.n	1506 <usart_write_wait+0x26>
    14ec:	8dc2      	ldrh	r2, [r0, #46]	; 0x2e
    14ee:	3b17      	subs	r3, #23
    14f0:	2a00      	cmp	r2, #0
    14f2:	d108      	bne.n	1506 <usart_write_wait+0x26>
    14f4:	4b05      	ldr	r3, [pc, #20]	; (150c <usart_write_wait+0x2c>)
    14f6:	6804      	ldr	r4, [r0, #0]
    14f8:	4798      	blx	r3
    14fa:	2302      	movs	r3, #2
    14fc:	8525      	strh	r5, [r4, #40]	; 0x28
    14fe:	7e22      	ldrb	r2, [r4, #24]
    1500:	421a      	tst	r2, r3
    1502:	d0fc      	beq.n	14fe <usart_write_wait+0x1e>
    1504:	2300      	movs	r3, #0
    1506:	0018      	movs	r0, r3
    1508:	bd70      	pop	{r4, r5, r6, pc}
    150a:	46c0      	nop			; (mov r8, r8)
    150c:	00001211 	.word	0x00001211

00001510 <usart_read_wait>:
    1510:	b570      	push	{r4, r5, r6, lr}
    1512:	7982      	ldrb	r2, [r0, #6]
    1514:	000e      	movs	r6, r1
    1516:	231c      	movs	r3, #28
    1518:	2a00      	cmp	r2, #0
    151a:	d013      	beq.n	1544 <usart_read_wait+0x34>
    151c:	8d82      	ldrh	r2, [r0, #44]	; 0x2c
    151e:	3b17      	subs	r3, #23
    1520:	2a00      	cmp	r2, #0
    1522:	d10f      	bne.n	1544 <usart_read_wait+0x34>
    1524:	2504      	movs	r5, #4
    1526:	6804      	ldr	r4, [r0, #0]
    1528:	7e22      	ldrb	r2, [r4, #24]
    152a:	422a      	tst	r2, r5
    152c:	d00a      	beq.n	1544 <usart_read_wait+0x34>
    152e:	4b14      	ldr	r3, [pc, #80]	; (1580 <usart_read_wait+0x70>)
    1530:	4798      	blx	r3
    1532:	8b63      	ldrh	r3, [r4, #26]
    1534:	b2db      	uxtb	r3, r3
    1536:	069a      	lsls	r2, r3, #26
    1538:	d01d      	beq.n	1576 <usart_read_wait+0x66>
    153a:	2202      	movs	r2, #2
    153c:	4213      	tst	r3, r2
    153e:	d003      	beq.n	1548 <usart_read_wait+0x38>
    1540:	231a      	movs	r3, #26
    1542:	8362      	strh	r2, [r4, #26]
    1544:	0018      	movs	r0, r3
    1546:	bd70      	pop	{r4, r5, r6, pc}
    1548:	422b      	tst	r3, r5
    154a:	d002      	beq.n	1552 <usart_read_wait+0x42>
    154c:	8365      	strh	r5, [r4, #26]
    154e:	231e      	movs	r3, #30
    1550:	e7f8      	b.n	1544 <usart_read_wait+0x34>
    1552:	2201      	movs	r2, #1
    1554:	4213      	tst	r3, r2
    1556:	d002      	beq.n	155e <usart_read_wait+0x4e>
    1558:	8362      	strh	r2, [r4, #26]
    155a:	2313      	movs	r3, #19
    155c:	e7f2      	b.n	1544 <usart_read_wait+0x34>
    155e:	2210      	movs	r2, #16
    1560:	4213      	tst	r3, r2
    1562:	d002      	beq.n	156a <usart_read_wait+0x5a>
    1564:	8362      	strh	r2, [r4, #26]
    1566:	2342      	movs	r3, #66	; 0x42
    1568:	e7ec      	b.n	1544 <usart_read_wait+0x34>
    156a:	2220      	movs	r2, #32
    156c:	4213      	tst	r3, r2
    156e:	d002      	beq.n	1576 <usart_read_wait+0x66>
    1570:	8362      	strh	r2, [r4, #26]
    1572:	2341      	movs	r3, #65	; 0x41
    1574:	e7e6      	b.n	1544 <usart_read_wait+0x34>
    1576:	8d23      	ldrh	r3, [r4, #40]	; 0x28
    1578:	8033      	strh	r3, [r6, #0]
    157a:	2300      	movs	r3, #0
    157c:	e7e2      	b.n	1544 <usart_read_wait+0x34>
    157e:	46c0      	nop			; (mov r8, r8)
    1580:	00001211 	.word	0x00001211

00001584 <_usart_interrupt_handler>:
    1584:	b5f8      	push	{r3, r4, r5, r6, r7, lr}
    1586:	4b58      	ldr	r3, [pc, #352]	; (16e8 <_usart_interrupt_handler+0x164>)
    1588:	0080      	lsls	r0, r0, #2
    158a:	58c4      	ldr	r4, [r0, r3]
    158c:	6825      	ldr	r5, [r4, #0]
    158e:	69eb      	ldr	r3, [r5, #28]
    1590:	2b00      	cmp	r3, #0
    1592:	d1fc      	bne.n	158e <_usart_interrupt_handler+0xa>
    1594:	7e2b      	ldrb	r3, [r5, #24]
    1596:	7daf      	ldrb	r7, [r5, #22]
    1598:	401f      	ands	r7, r3
    159a:	0023      	movs	r3, r4
    159c:	3330      	adds	r3, #48	; 0x30
    159e:	781a      	ldrb	r2, [r3, #0]
    15a0:	785e      	ldrb	r6, [r3, #1]
    15a2:	2301      	movs	r3, #1
    15a4:	4016      	ands	r6, r2
    15a6:	421f      	tst	r7, r3
    15a8:	d019      	beq.n	15de <_usart_interrupt_handler+0x5a>
    15aa:	8de2      	ldrh	r2, [r4, #46]	; 0x2e
    15ac:	2a00      	cmp	r2, #0
    15ae:	d100      	bne.n	15b2 <_usart_interrupt_handler+0x2e>
    15b0:	e072      	b.n	1698 <_usart_interrupt_handler+0x114>
    15b2:	6aa2      	ldr	r2, [r4, #40]	; 0x28
    15b4:	1c51      	adds	r1, r2, #1
    15b6:	7813      	ldrb	r3, [r2, #0]
    15b8:	62a1      	str	r1, [r4, #40]	; 0x28
    15ba:	7961      	ldrb	r1, [r4, #5]
    15bc:	b2db      	uxtb	r3, r3
    15be:	2901      	cmp	r1, #1
    15c0:	d064      	beq.n	168c <_usart_interrupt_handler+0x108>
    15c2:	b29b      	uxth	r3, r3
    15c4:	05db      	lsls	r3, r3, #23
    15c6:	0ddb      	lsrs	r3, r3, #23
    15c8:	852b      	strh	r3, [r5, #40]	; 0x28
    15ca:	8de3      	ldrh	r3, [r4, #46]	; 0x2e
    15cc:	3b01      	subs	r3, #1
    15ce:	b29b      	uxth	r3, r3
    15d0:	85e3      	strh	r3, [r4, #46]	; 0x2e
    15d2:	2b00      	cmp	r3, #0
    15d4:	d103      	bne.n	15de <_usart_interrupt_handler+0x5a>
    15d6:	3301      	adds	r3, #1
    15d8:	752b      	strb	r3, [r5, #20]
    15da:	3301      	adds	r3, #1
    15dc:	75ab      	strb	r3, [r5, #22]
    15de:	2302      	movs	r3, #2
    15e0:	421f      	tst	r7, r3
    15e2:	d009      	beq.n	15f8 <_usart_interrupt_handler+0x74>
    15e4:	752b      	strb	r3, [r5, #20]
    15e6:	0023      	movs	r3, r4
    15e8:	2200      	movs	r2, #0
    15ea:	3333      	adds	r3, #51	; 0x33
    15ec:	701a      	strb	r2, [r3, #0]
    15ee:	07f3      	lsls	r3, r6, #31
    15f0:	d502      	bpl.n	15f8 <_usart_interrupt_handler+0x74>
    15f2:	0020      	movs	r0, r4
    15f4:	68e3      	ldr	r3, [r4, #12]
    15f6:	4798      	blx	r3
    15f8:	2304      	movs	r3, #4
    15fa:	421f      	tst	r7, r3
    15fc:	d027      	beq.n	164e <_usart_interrupt_handler+0xca>
    15fe:	8da2      	ldrh	r2, [r4, #44]	; 0x2c
    1600:	2a00      	cmp	r2, #0
    1602:	d100      	bne.n	1606 <_usart_interrupt_handler+0x82>
    1604:	e06d      	b.n	16e2 <_usart_interrupt_handler+0x15e>
    1606:	8b6b      	ldrh	r3, [r5, #26]
    1608:	b2db      	uxtb	r3, r3
    160a:	071a      	lsls	r2, r3, #28
    160c:	d446      	bmi.n	169c <_usart_interrupt_handler+0x118>
    160e:	223f      	movs	r2, #63	; 0x3f
    1610:	4013      	ands	r3, r2
    1612:	d045      	beq.n	16a0 <_usart_interrupt_handler+0x11c>
    1614:	2202      	movs	r2, #2
    1616:	211a      	movs	r1, #26
    1618:	4213      	tst	r3, r2
    161a:	d10f      	bne.n	163c <_usart_interrupt_handler+0xb8>
    161c:	2204      	movs	r2, #4
    161e:	211e      	movs	r1, #30
    1620:	4213      	tst	r3, r2
    1622:	d10b      	bne.n	163c <_usart_interrupt_handler+0xb8>
    1624:	2201      	movs	r2, #1
    1626:	2113      	movs	r1, #19
    1628:	4213      	tst	r3, r2
    162a:	d107      	bne.n	163c <_usart_interrupt_handler+0xb8>
    162c:	2210      	movs	r2, #16
    162e:	2142      	movs	r1, #66	; 0x42
    1630:	4213      	tst	r3, r2
    1632:	d103      	bne.n	163c <_usart_interrupt_handler+0xb8>
    1634:	2220      	movs	r2, #32
    1636:	4213      	tst	r3, r2
    1638:	d004      	beq.n	1644 <_usart_interrupt_handler+0xc0>
    163a:	2141      	movs	r1, #65	; 0x41
    163c:	0023      	movs	r3, r4
    163e:	3332      	adds	r3, #50	; 0x32
    1640:	7019      	strb	r1, [r3, #0]
    1642:	836a      	strh	r2, [r5, #26]
    1644:	0773      	lsls	r3, r6, #29
    1646:	d502      	bpl.n	164e <_usart_interrupt_handler+0xca>
    1648:	0020      	movs	r0, r4
    164a:	6963      	ldr	r3, [r4, #20]
    164c:	4798      	blx	r3
    164e:	2310      	movs	r3, #16
    1650:	421f      	tst	r7, r3
    1652:	d006      	beq.n	1662 <_usart_interrupt_handler+0xde>
    1654:	752b      	strb	r3, [r5, #20]
    1656:	762b      	strb	r3, [r5, #24]
    1658:	421e      	tst	r6, r3
    165a:	d002      	beq.n	1662 <_usart_interrupt_handler+0xde>
    165c:	0020      	movs	r0, r4
    165e:	69e3      	ldr	r3, [r4, #28]
    1660:	4798      	blx	r3
    1662:	2320      	movs	r3, #32
    1664:	421f      	tst	r7, r3
    1666:	d006      	beq.n	1676 <_usart_interrupt_handler+0xf2>
    1668:	752b      	strb	r3, [r5, #20]
    166a:	762b      	strb	r3, [r5, #24]
    166c:	0733      	lsls	r3, r6, #28
    166e:	d502      	bpl.n	1676 <_usart_interrupt_handler+0xf2>
    1670:	0020      	movs	r0, r4
    1672:	69a3      	ldr	r3, [r4, #24]
    1674:	4798      	blx	r3
    1676:	2308      	movs	r3, #8
    1678:	421f      	tst	r7, r3
    167a:	d006      	beq.n	168a <_usart_interrupt_handler+0x106>
    167c:	752b      	strb	r3, [r5, #20]
    167e:	762b      	strb	r3, [r5, #24]
    1680:	06b3      	lsls	r3, r6, #26
    1682:	d502      	bpl.n	168a <_usart_interrupt_handler+0x106>
    1684:	6a23      	ldr	r3, [r4, #32]
    1686:	0020      	movs	r0, r4
    1688:	4798      	blx	r3
    168a:	bdf8      	pop	{r3, r4, r5, r6, r7, pc}
    168c:	7851      	ldrb	r1, [r2, #1]
    168e:	3202      	adds	r2, #2
    1690:	0209      	lsls	r1, r1, #8
    1692:	430b      	orrs	r3, r1
    1694:	62a2      	str	r2, [r4, #40]	; 0x28
    1696:	e795      	b.n	15c4 <_usart_interrupt_handler+0x40>
    1698:	752b      	strb	r3, [r5, #20]
    169a:	e7a0      	b.n	15de <_usart_interrupt_handler+0x5a>
    169c:	2237      	movs	r2, #55	; 0x37
    169e:	e7b7      	b.n	1610 <_usart_interrupt_handler+0x8c>
    16a0:	8d2b      	ldrh	r3, [r5, #40]	; 0x28
    16a2:	6a61      	ldr	r1, [r4, #36]	; 0x24
    16a4:	05db      	lsls	r3, r3, #23
    16a6:	0ddb      	lsrs	r3, r3, #23
    16a8:	b2da      	uxtb	r2, r3
    16aa:	700a      	strb	r2, [r1, #0]
    16ac:	6a62      	ldr	r2, [r4, #36]	; 0x24
    16ae:	1c51      	adds	r1, r2, #1
    16b0:	6261      	str	r1, [r4, #36]	; 0x24
    16b2:	7961      	ldrb	r1, [r4, #5]
    16b4:	2901      	cmp	r1, #1
    16b6:	d104      	bne.n	16c2 <_usart_interrupt_handler+0x13e>
    16b8:	0a1b      	lsrs	r3, r3, #8
    16ba:	7053      	strb	r3, [r2, #1]
    16bc:	6a63      	ldr	r3, [r4, #36]	; 0x24
    16be:	3301      	adds	r3, #1
    16c0:	6263      	str	r3, [r4, #36]	; 0x24
    16c2:	8da3      	ldrh	r3, [r4, #44]	; 0x2c
    16c4:	3b01      	subs	r3, #1
    16c6:	b29b      	uxth	r3, r3
    16c8:	85a3      	strh	r3, [r4, #44]	; 0x2c
    16ca:	2b00      	cmp	r3, #0
    16cc:	d1bf      	bne.n	164e <_usart_interrupt_handler+0xca>
    16ce:	2204      	movs	r2, #4
    16d0:	752a      	strb	r2, [r5, #20]
    16d2:	0022      	movs	r2, r4
    16d4:	3232      	adds	r2, #50	; 0x32
    16d6:	7013      	strb	r3, [r2, #0]
    16d8:	07b3      	lsls	r3, r6, #30
    16da:	d5b8      	bpl.n	164e <_usart_interrupt_handler+0xca>
    16dc:	0020      	movs	r0, r4
    16de:	6923      	ldr	r3, [r4, #16]
    16e0:	e7b4      	b.n	164c <_usart_interrupt_handler+0xc8>
    16e2:	752b      	strb	r3, [r5, #20]
    16e4:	e7b3      	b.n	164e <_usart_interrupt_handler+0xca>
    16e6:	46c0      	nop			; (mov r8, r8)
    16e8:	20000104 	.word	0x20000104

000016ec <_system_dfll_wait_for_sync>:
    16ec:	2310      	movs	r3, #16
    16ee:	4902      	ldr	r1, [pc, #8]	; (16f8 <_system_dfll_wait_for_sync+0xc>)
    16f0:	68ca      	ldr	r2, [r1, #12]
    16f2:	421a      	tst	r2, r3
    16f4:	d0fc      	beq.n	16f0 <_system_dfll_wait_for_sync+0x4>
    16f6:	4770      	bx	lr
    16f8:	40000800 	.word	0x40000800

000016fc <system_clock_source_get_hz>:
    16fc:	b570      	push	{r4, r5, r6, lr}
    16fe:	2808      	cmp	r0, #8
    1700:	d806      	bhi.n	1710 <system_clock_source_get_hz+0x14>
    1702:	f000 feab 	bl	245c <__gnu_thumb1_case_uqi>
    1706:	0508      	.short	0x0508
    1708:	122e2e05 	.word	0x122e2e05
    170c:	150b      	.short	0x150b
    170e:	26          	.byte	0x26
    170f:	00          	.byte	0x00
    1710:	2400      	movs	r4, #0
    1712:	0020      	movs	r0, r4
    1714:	bd70      	pop	{r4, r5, r6, pc}
    1716:	4b15      	ldr	r3, [pc, #84]	; (176c <system_clock_source_get_hz+0x70>)
    1718:	691c      	ldr	r4, [r3, #16]
    171a:	e7fa      	b.n	1712 <system_clock_source_get_hz+0x16>
    171c:	4b14      	ldr	r3, [pc, #80]	; (1770 <system_clock_source_get_hz+0x74>)
    171e:	4c15      	ldr	r4, [pc, #84]	; (1774 <system_clock_source_get_hz+0x78>)
    1720:	6a1b      	ldr	r3, [r3, #32]
    1722:	059b      	lsls	r3, r3, #22
    1724:	0f9b      	lsrs	r3, r3, #30
    1726:	40dc      	lsrs	r4, r3
    1728:	e7f3      	b.n	1712 <system_clock_source_get_hz+0x16>
    172a:	4b10      	ldr	r3, [pc, #64]	; (176c <system_clock_source_get_hz+0x70>)
    172c:	695c      	ldr	r4, [r3, #20]
    172e:	e7f0      	b.n	1712 <system_clock_source_get_hz+0x16>
    1730:	4d0e      	ldr	r5, [pc, #56]	; (176c <system_clock_source_get_hz+0x70>)
    1732:	2400      	movs	r4, #0
    1734:	682b      	ldr	r3, [r5, #0]
    1736:	079b      	lsls	r3, r3, #30
    1738:	d5eb      	bpl.n	1712 <system_clock_source_get_hz+0x16>
    173a:	4b0f      	ldr	r3, [pc, #60]	; (1778 <system_clock_source_get_hz+0x7c>)
    173c:	4798      	blx	r3
    173e:	682b      	ldr	r3, [r5, #0]
    1740:	075b      	lsls	r3, r3, #29
    1742:	d511      	bpl.n	1768 <system_clock_source_get_hz+0x6c>
    1744:	0020      	movs	r0, r4
    1746:	4b0d      	ldr	r3, [pc, #52]	; (177c <system_clock_source_get_hz+0x80>)
    1748:	4798      	blx	r3
    174a:	68ac      	ldr	r4, [r5, #8]
    174c:	b2a4      	uxth	r4, r4
    174e:	4344      	muls	r4, r0
    1750:	e7df      	b.n	1712 <system_clock_source_get_hz+0x16>
    1752:	4b0b      	ldr	r3, [pc, #44]	; (1780 <system_clock_source_get_hz+0x84>)
    1754:	2400      	movs	r4, #0
    1756:	781b      	ldrb	r3, [r3, #0]
    1758:	075b      	lsls	r3, r3, #29
    175a:	d5da      	bpl.n	1712 <system_clock_source_get_hz+0x16>
    175c:	4b03      	ldr	r3, [pc, #12]	; (176c <system_clock_source_get_hz+0x70>)
    175e:	68dc      	ldr	r4, [r3, #12]
    1760:	e7d7      	b.n	1712 <system_clock_source_get_hz+0x16>
    1762:	2480      	movs	r4, #128	; 0x80
    1764:	0224      	lsls	r4, r4, #8
    1766:	e7d4      	b.n	1712 <system_clock_source_get_hz+0x16>
    1768:	4c06      	ldr	r4, [pc, #24]	; (1784 <system_clock_source_get_hz+0x88>)
    176a:	e7d2      	b.n	1712 <system_clock_source_get_hz+0x16>
    176c:	200000ac 	.word	0x200000ac
    1770:	40000800 	.word	0x40000800
    1774:	007a1200 	.word	0x007a1200
    1778:	000016ed 	.word	0x000016ed
    177c:	00001b21 	.word	0x00001b21
    1780:	40000850 	.word	0x40000850
    1784:	02dc6c00 	.word	0x02dc6c00

00001788 <system_clock_source_osc8m_set_config>:
    1788:	b570      	push	{r4, r5, r6, lr}
    178a:	7884      	ldrb	r4, [r0, #2]
    178c:	7802      	ldrb	r2, [r0, #0]
    178e:	7845      	ldrb	r5, [r0, #1]
    1790:	2001      	movs	r0, #1
    1792:	2640      	movs	r6, #64	; 0x40
    1794:	4005      	ands	r5, r0
    1796:	4020      	ands	r0, r4
    1798:	2480      	movs	r4, #128	; 0x80
    179a:	4908      	ldr	r1, [pc, #32]	; (17bc <system_clock_source_osc8m_set_config+0x34>)
    179c:	01ad      	lsls	r5, r5, #6
    179e:	6a0b      	ldr	r3, [r1, #32]
    17a0:	01c0      	lsls	r0, r0, #7
    17a2:	43b3      	bics	r3, r6
    17a4:	432b      	orrs	r3, r5
    17a6:	43a3      	bics	r3, r4
    17a8:	4303      	orrs	r3, r0
    17aa:	2003      	movs	r0, #3
    17ac:	4002      	ands	r2, r0
    17ae:	4804      	ldr	r0, [pc, #16]	; (17c0 <system_clock_source_osc8m_set_config+0x38>)
    17b0:	0212      	lsls	r2, r2, #8
    17b2:	4003      	ands	r3, r0
    17b4:	4313      	orrs	r3, r2
    17b6:	620b      	str	r3, [r1, #32]
    17b8:	bd70      	pop	{r4, r5, r6, pc}
    17ba:	46c0      	nop			; (mov r8, r8)
    17bc:	40000800 	.word	0x40000800
    17c0:	fffffcff 	.word	0xfffffcff

000017c4 <system_clock_source_enable>:
    17c4:	b5f8      	push	{r3, r4, r5, r6, r7, lr}
    17c6:	2808      	cmp	r0, #8
    17c8:	d806      	bhi.n	17d8 <system_clock_source_enable+0x14>
    17ca:	f000 fe47 	bl	245c <__gnu_thumb1_case_uqi>
    17ce:	0514      	.short	0x0514
    17d0:	1a0e0c05 	.word	0x1a0e0c05
    17d4:	2007      	.short	0x2007
    17d6:	34          	.byte	0x34
    17d7:	00          	.byte	0x00
    17d8:	2017      	movs	r0, #23
    17da:	bdf8      	pop	{r3, r4, r5, r6, r7, pc}
    17dc:	2302      	movs	r3, #2
    17de:	4a19      	ldr	r2, [pc, #100]	; (1844 <system_clock_source_enable+0x80>)
    17e0:	6a11      	ldr	r1, [r2, #32]
    17e2:	430b      	orrs	r3, r1
    17e4:	6213      	str	r3, [r2, #32]
    17e6:	2000      	movs	r0, #0
    17e8:	e7f7      	b.n	17da <system_clock_source_enable+0x16>
    17ea:	2302      	movs	r3, #2
    17ec:	4a15      	ldr	r2, [pc, #84]	; (1844 <system_clock_source_enable+0x80>)
    17ee:	6991      	ldr	r1, [r2, #24]
    17f0:	430b      	orrs	r3, r1
    17f2:	6193      	str	r3, [r2, #24]
    17f4:	e7f7      	b.n	17e6 <system_clock_source_enable+0x22>
    17f6:	2302      	movs	r3, #2
    17f8:	4a12      	ldr	r2, [pc, #72]	; (1844 <system_clock_source_enable+0x80>)
    17fa:	8a11      	ldrh	r1, [r2, #16]
    17fc:	430b      	orrs	r3, r1
    17fe:	8213      	strh	r3, [r2, #16]
    1800:	e7f1      	b.n	17e6 <system_clock_source_enable+0x22>
    1802:	2302      	movs	r3, #2
    1804:	4a0f      	ldr	r2, [pc, #60]	; (1844 <system_clock_source_enable+0x80>)
    1806:	8a91      	ldrh	r1, [r2, #20]
    1808:	430b      	orrs	r3, r1
    180a:	8293      	strh	r3, [r2, #20]
    180c:	e7eb      	b.n	17e6 <system_clock_source_enable+0x22>
    180e:	2202      	movs	r2, #2
    1810:	2400      	movs	r4, #0
    1812:	4e0d      	ldr	r6, [pc, #52]	; (1848 <system_clock_source_enable+0x84>)
    1814:	4d0b      	ldr	r5, [pc, #44]	; (1844 <system_clock_source_enable+0x80>)
    1816:	6833      	ldr	r3, [r6, #0]
    1818:	4f0c      	ldr	r7, [pc, #48]	; (184c <system_clock_source_enable+0x88>)
    181a:	4313      	orrs	r3, r2
    181c:	6033      	str	r3, [r6, #0]
    181e:	84aa      	strh	r2, [r5, #36]	; 0x24
    1820:	47b8      	blx	r7
    1822:	68b3      	ldr	r3, [r6, #8]
    1824:	62eb      	str	r3, [r5, #44]	; 0x2c
    1826:	6873      	ldr	r3, [r6, #4]
    1828:	62ab      	str	r3, [r5, #40]	; 0x28
    182a:	84ac      	strh	r4, [r5, #36]	; 0x24
    182c:	47b8      	blx	r7
    182e:	6833      	ldr	r3, [r6, #0]
    1830:	b29b      	uxth	r3, r3
    1832:	84ab      	strh	r3, [r5, #36]	; 0x24
    1834:	e7d7      	b.n	17e6 <system_clock_source_enable+0x22>
    1836:	2302      	movs	r3, #2
    1838:	4a05      	ldr	r2, [pc, #20]	; (1850 <system_clock_source_enable+0x8c>)
    183a:	7811      	ldrb	r1, [r2, #0]
    183c:	430b      	orrs	r3, r1
    183e:	7013      	strb	r3, [r2, #0]
    1840:	e7d1      	b.n	17e6 <system_clock_source_enable+0x22>
    1842:	46c0      	nop			; (mov r8, r8)
    1844:	40000800 	.word	0x40000800
    1848:	200000ac 	.word	0x200000ac
    184c:	000016ed 	.word	0x000016ed
    1850:	40000844 	.word	0x40000844

00001854 <system_clock_init>:
    1854:	b57f      	push	{r0, r1, r2, r3, r4, r5, r6, lr}
    1856:	22c2      	movs	r2, #194	; 0xc2
    1858:	211e      	movs	r1, #30
    185a:	4b19      	ldr	r3, [pc, #100]	; (18c0 <system_clock_init+0x6c>)
    185c:	00d2      	lsls	r2, r2, #3
    185e:	609a      	str	r2, [r3, #8]
    1860:	4a18      	ldr	r2, [pc, #96]	; (18c4 <system_clock_init+0x70>)
    1862:	2400      	movs	r4, #0
    1864:	6853      	ldr	r3, [r2, #4]
    1866:	ad01      	add	r5, sp, #4
    1868:	438b      	bics	r3, r1
    186a:	6053      	str	r3, [r2, #4]
    186c:	2301      	movs	r3, #1
    186e:	702b      	strb	r3, [r5, #0]
    1870:	b2e0      	uxtb	r0, r4
    1872:	0029      	movs	r1, r5
    1874:	4b14      	ldr	r3, [pc, #80]	; (18c8 <system_clock_init+0x74>)
    1876:	3401      	adds	r4, #1
    1878:	4798      	blx	r3
    187a:	2c25      	cmp	r4, #37	; 0x25
    187c:	d1f8      	bne.n	1870 <system_clock_init+0x1c>
    187e:	2400      	movs	r4, #0
    1880:	466b      	mov	r3, sp
    1882:	2601      	movs	r6, #1
    1884:	705c      	strb	r4, [r3, #1]
    1886:	709e      	strb	r6, [r3, #2]
    1888:	701c      	strb	r4, [r3, #0]
    188a:	4668      	mov	r0, sp
    188c:	4b0f      	ldr	r3, [pc, #60]	; (18cc <system_clock_init+0x78>)
    188e:	4798      	blx	r3
    1890:	4b0f      	ldr	r3, [pc, #60]	; (18d0 <system_clock_init+0x7c>)
    1892:	2006      	movs	r0, #6
    1894:	4798      	blx	r3
    1896:	4b0f      	ldr	r3, [pc, #60]	; (18d4 <system_clock_init+0x80>)
    1898:	4798      	blx	r3
    189a:	4b0f      	ldr	r3, [pc, #60]	; (18d8 <system_clock_init+0x84>)
    189c:	0029      	movs	r1, r5
    189e:	721c      	strb	r4, [r3, #8]
    18a0:	725c      	strb	r4, [r3, #9]
    18a2:	729c      	strb	r4, [r3, #10]
    18a4:	72dc      	strb	r4, [r3, #11]
    18a6:	2306      	movs	r3, #6
    18a8:	0020      	movs	r0, r4
    18aa:	702b      	strb	r3, [r5, #0]
    18ac:	4b0b      	ldr	r3, [pc, #44]	; (18dc <system_clock_init+0x88>)
    18ae:	606e      	str	r6, [r5, #4]
    18b0:	706c      	strb	r4, [r5, #1]
    18b2:	722c      	strb	r4, [r5, #8]
    18b4:	726c      	strb	r4, [r5, #9]
    18b6:	4798      	blx	r3
    18b8:	0020      	movs	r0, r4
    18ba:	4b09      	ldr	r3, [pc, #36]	; (18e0 <system_clock_init+0x8c>)
    18bc:	4798      	blx	r3
    18be:	bd7f      	pop	{r0, r1, r2, r3, r4, r5, r6, pc}
    18c0:	40000800 	.word	0x40000800
    18c4:	41004000 	.word	0x41004000
    18c8:	00001b05 	.word	0x00001b05
    18cc:	00001789 	.word	0x00001789
    18d0:	000017c5 	.word	0x000017c5
    18d4:	000018f1 	.word	0x000018f1
    18d8:	40000400 	.word	0x40000400
    18dc:	00001911 	.word	0x00001911
    18e0:	000019b5 	.word	0x000019b5

000018e4 <system_gclk_is_syncing>:
    18e4:	4b01      	ldr	r3, [pc, #4]	; (18ec <system_gclk_is_syncing+0x8>)
    18e6:	7858      	ldrb	r0, [r3, #1]
    18e8:	09c0      	lsrs	r0, r0, #7
    18ea:	4770      	bx	lr
    18ec:	40000c00 	.word	0x40000c00

000018f0 <system_gclk_init>:
    18f0:	2308      	movs	r3, #8
    18f2:	4a05      	ldr	r2, [pc, #20]	; (1908 <system_gclk_init+0x18>)
    18f4:	6991      	ldr	r1, [r2, #24]
    18f6:	430b      	orrs	r3, r1
    18f8:	6193      	str	r3, [r2, #24]
    18fa:	2301      	movs	r3, #1
    18fc:	4a03      	ldr	r2, [pc, #12]	; (190c <system_gclk_init+0x1c>)
    18fe:	7013      	strb	r3, [r2, #0]
    1900:	7811      	ldrb	r1, [r2, #0]
    1902:	4219      	tst	r1, r3
    1904:	d1fc      	bne.n	1900 <system_gclk_init+0x10>
    1906:	4770      	bx	lr
    1908:	40000400 	.word	0x40000400
    190c:	40000c00 	.word	0x40000c00

00001910 <system_gclk_gen_set_config>:
    1910:	b5f8      	push	{r3, r4, r5, r6, r7, lr}
    1912:	780c      	ldrb	r4, [r1, #0]
    1914:	784b      	ldrb	r3, [r1, #1]
    1916:	0224      	lsls	r4, r4, #8
    1918:	0006      	movs	r6, r0
    191a:	0005      	movs	r5, r0
    191c:	4304      	orrs	r4, r0
    191e:	2b00      	cmp	r3, #0
    1920:	d002      	beq.n	1928 <system_gclk_gen_set_config+0x18>
    1922:	2380      	movs	r3, #128	; 0x80
    1924:	02db      	lsls	r3, r3, #11
    1926:	431c      	orrs	r4, r3
    1928:	7a4b      	ldrb	r3, [r1, #9]
    192a:	2b00      	cmp	r3, #0
    192c:	d002      	beq.n	1934 <system_gclk_gen_set_config+0x24>
    192e:	2380      	movs	r3, #128	; 0x80
    1930:	031b      	lsls	r3, r3, #12
    1932:	431c      	orrs	r4, r3
    1934:	684b      	ldr	r3, [r1, #4]
    1936:	2b01      	cmp	r3, #1
    1938:	d912      	bls.n	1960 <system_gclk_gen_set_config+0x50>
    193a:	1e5d      	subs	r5, r3, #1
    193c:	401d      	ands	r5, r3
    193e:	2202      	movs	r2, #2
    1940:	2d00      	cmp	r5, #0
    1942:	d006      	beq.n	1952 <system_gclk_gen_set_config+0x42>
    1944:	021d      	lsls	r5, r3, #8
    1946:	2380      	movs	r3, #128	; 0x80
    1948:	4335      	orrs	r5, r6
    194a:	029b      	lsls	r3, r3, #10
    194c:	e007      	b.n	195e <system_gclk_gen_set_config+0x4e>
    194e:	3501      	adds	r5, #1
    1950:	0052      	lsls	r2, r2, #1
    1952:	429a      	cmp	r2, r3
    1954:	d3fb      	bcc.n	194e <system_gclk_gen_set_config+0x3e>
    1956:	2380      	movs	r3, #128	; 0x80
    1958:	022d      	lsls	r5, r5, #8
    195a:	4335      	orrs	r5, r6
    195c:	035b      	lsls	r3, r3, #13
    195e:	431c      	orrs	r4, r3
    1960:	7a0b      	ldrb	r3, [r1, #8]
    1962:	2b00      	cmp	r3, #0
    1964:	d002      	beq.n	196c <system_gclk_gen_set_config+0x5c>
    1966:	2380      	movs	r3, #128	; 0x80
    1968:	039b      	lsls	r3, r3, #14
    196a:	431c      	orrs	r4, r3
    196c:	4f0c      	ldr	r7, [pc, #48]	; (19a0 <system_gclk_gen_set_config+0x90>)
    196e:	47b8      	blx	r7
    1970:	2800      	cmp	r0, #0
    1972:	d1fb      	bne.n	196c <system_gclk_gen_set_config+0x5c>
    1974:	4b0b      	ldr	r3, [pc, #44]	; (19a4 <system_gclk_gen_set_config+0x94>)
    1976:	4798      	blx	r3
    1978:	4b0b      	ldr	r3, [pc, #44]	; (19a8 <system_gclk_gen_set_config+0x98>)
    197a:	701e      	strb	r6, [r3, #0]
    197c:	47b8      	blx	r7
    197e:	2800      	cmp	r0, #0
    1980:	d1fc      	bne.n	197c <system_gclk_gen_set_config+0x6c>
    1982:	4b0a      	ldr	r3, [pc, #40]	; (19ac <system_gclk_gen_set_config+0x9c>)
    1984:	609d      	str	r5, [r3, #8]
    1986:	001d      	movs	r5, r3
    1988:	47b8      	blx	r7
    198a:	2800      	cmp	r0, #0
    198c:	d1fc      	bne.n	1988 <system_gclk_gen_set_config+0x78>
    198e:	2280      	movs	r2, #128	; 0x80
    1990:	686b      	ldr	r3, [r5, #4]
    1992:	0252      	lsls	r2, r2, #9
    1994:	4013      	ands	r3, r2
    1996:	431c      	orrs	r4, r3
    1998:	606c      	str	r4, [r5, #4]
    199a:	4b05      	ldr	r3, [pc, #20]	; (19b0 <system_gclk_gen_set_config+0xa0>)
    199c:	4798      	blx	r3
    199e:	bdf8      	pop	{r3, r4, r5, r6, r7, pc}
    19a0:	000018e5 	.word	0x000018e5
    19a4:	000006b5 	.word	0x000006b5
    19a8:	40000c08 	.word	0x40000c08
    19ac:	40000c00 	.word	0x40000c00
    19b0:	000006e9 	.word	0x000006e9

000019b4 <system_gclk_gen_enable>:
    19b4:	b570      	push	{r4, r5, r6, lr}
    19b6:	0005      	movs	r5, r0
    19b8:	4c09      	ldr	r4, [pc, #36]	; (19e0 <system_gclk_gen_enable+0x2c>)
    19ba:	47a0      	blx	r4
    19bc:	2800      	cmp	r0, #0
    19be:	d1fb      	bne.n	19b8 <system_gclk_gen_enable+0x4>
    19c0:	4b08      	ldr	r3, [pc, #32]	; (19e4 <system_gclk_gen_enable+0x30>)
    19c2:	4798      	blx	r3
    19c4:	4b08      	ldr	r3, [pc, #32]	; (19e8 <system_gclk_gen_enable+0x34>)
    19c6:	701d      	strb	r5, [r3, #0]
    19c8:	47a0      	blx	r4
    19ca:	2800      	cmp	r0, #0
    19cc:	d1fc      	bne.n	19c8 <system_gclk_gen_enable+0x14>
    19ce:	2380      	movs	r3, #128	; 0x80
    19d0:	4a06      	ldr	r2, [pc, #24]	; (19ec <system_gclk_gen_enable+0x38>)
    19d2:	025b      	lsls	r3, r3, #9
    19d4:	6851      	ldr	r1, [r2, #4]
    19d6:	430b      	orrs	r3, r1
    19d8:	6053      	str	r3, [r2, #4]
    19da:	4b05      	ldr	r3, [pc, #20]	; (19f0 <system_gclk_gen_enable+0x3c>)
    19dc:	4798      	blx	r3
    19de:	bd70      	pop	{r4, r5, r6, pc}
    19e0:	000018e5 	.word	0x000018e5
    19e4:	000006b5 	.word	0x000006b5
    19e8:	40000c04 	.word	0x40000c04
    19ec:	40000c00 	.word	0x40000c00
    19f0:	000006e9 	.word	0x000006e9

000019f4 <system_gclk_gen_get_hz>:
    19f4:	b5f7      	push	{r0, r1, r2, r4, r5, r6, r7, lr}
    19f6:	0007      	movs	r7, r0
    19f8:	4e18      	ldr	r6, [pc, #96]	; (1a5c <system_gclk_gen_get_hz+0x68>)
    19fa:	47b0      	blx	r6
    19fc:	2800      	cmp	r0, #0
    19fe:	d1fb      	bne.n	19f8 <system_gclk_gen_get_hz+0x4>
    1a00:	4b17      	ldr	r3, [pc, #92]	; (1a60 <system_gclk_gen_get_hz+0x6c>)
    1a02:	4798      	blx	r3
    1a04:	4b17      	ldr	r3, [pc, #92]	; (1a64 <system_gclk_gen_get_hz+0x70>)
    1a06:	701f      	strb	r7, [r3, #0]
    1a08:	9301      	str	r3, [sp, #4]
    1a0a:	47b0      	blx	r6
    1a0c:	2800      	cmp	r0, #0
    1a0e:	d1fc      	bne.n	1a0a <system_gclk_gen_get_hz+0x16>
    1a10:	4d15      	ldr	r5, [pc, #84]	; (1a68 <system_gclk_gen_get_hz+0x74>)
    1a12:	4b16      	ldr	r3, [pc, #88]	; (1a6c <system_gclk_gen_get_hz+0x78>)
    1a14:	6868      	ldr	r0, [r5, #4]
    1a16:	04c0      	lsls	r0, r0, #19
    1a18:	0ec0      	lsrs	r0, r0, #27
    1a1a:	4798      	blx	r3
    1a1c:	0004      	movs	r4, r0
    1a1e:	9b01      	ldr	r3, [sp, #4]
    1a20:	701f      	strb	r7, [r3, #0]
    1a22:	686b      	ldr	r3, [r5, #4]
    1a24:	02db      	lsls	r3, r3, #11
    1a26:	0fdb      	lsrs	r3, r3, #31
    1a28:	9301      	str	r3, [sp, #4]
    1a2a:	4b11      	ldr	r3, [pc, #68]	; (1a70 <system_gclk_gen_get_hz+0x7c>)
    1a2c:	701f      	strb	r7, [r3, #0]
    1a2e:	47b0      	blx	r6
    1a30:	2800      	cmp	r0, #0
    1a32:	d1fc      	bne.n	1a2e <system_gclk_gen_get_hz+0x3a>
    1a34:	68ad      	ldr	r5, [r5, #8]
    1a36:	4b0f      	ldr	r3, [pc, #60]	; (1a74 <system_gclk_gen_get_hz+0x80>)
    1a38:	4798      	blx	r3
    1a3a:	9b01      	ldr	r3, [sp, #4]
    1a3c:	022d      	lsls	r5, r5, #8
    1a3e:	0c2d      	lsrs	r5, r5, #16
    1a40:	2b00      	cmp	r3, #0
    1a42:	d108      	bne.n	1a56 <system_gclk_gen_get_hz+0x62>
    1a44:	2d01      	cmp	r5, #1
    1a46:	d904      	bls.n	1a52 <system_gclk_gen_get_hz+0x5e>
    1a48:	0020      	movs	r0, r4
    1a4a:	0029      	movs	r1, r5
    1a4c:	4b0a      	ldr	r3, [pc, #40]	; (1a78 <system_gclk_gen_get_hz+0x84>)
    1a4e:	4798      	blx	r3
    1a50:	0004      	movs	r4, r0
    1a52:	0020      	movs	r0, r4
    1a54:	bdfe      	pop	{r1, r2, r3, r4, r5, r6, r7, pc}
    1a56:	3501      	adds	r5, #1
    1a58:	40ec      	lsrs	r4, r5
    1a5a:	e7fa      	b.n	1a52 <system_gclk_gen_get_hz+0x5e>
    1a5c:	000018e5 	.word	0x000018e5
    1a60:	000006b5 	.word	0x000006b5
    1a64:	40000c04 	.word	0x40000c04
    1a68:	40000c00 	.word	0x40000c00
    1a6c:	000016fd 	.word	0x000016fd
    1a70:	40000c08 	.word	0x40000c08
    1a74:	000006e9 	.word	0x000006e9
    1a78:	00002471 	.word	0x00002471

00001a7c <system_gclk_chan_enable>:
    1a7c:	b510      	push	{r4, lr}
    1a7e:	0004      	movs	r4, r0
    1a80:	4b06      	ldr	r3, [pc, #24]	; (1a9c <system_gclk_chan_enable+0x20>)
    1a82:	4798      	blx	r3
    1a84:	4b06      	ldr	r3, [pc, #24]	; (1aa0 <system_gclk_chan_enable+0x24>)
    1a86:	4a07      	ldr	r2, [pc, #28]	; (1aa4 <system_gclk_chan_enable+0x28>)
    1a88:	701c      	strb	r4, [r3, #0]
    1a8a:	2380      	movs	r3, #128	; 0x80
    1a8c:	8851      	ldrh	r1, [r2, #2]
    1a8e:	01db      	lsls	r3, r3, #7
    1a90:	430b      	orrs	r3, r1
    1a92:	8053      	strh	r3, [r2, #2]
    1a94:	4b04      	ldr	r3, [pc, #16]	; (1aa8 <system_gclk_chan_enable+0x2c>)
    1a96:	4798      	blx	r3
    1a98:	bd10      	pop	{r4, pc}
    1a9a:	46c0      	nop			; (mov r8, r8)
    1a9c:	000006b5 	.word	0x000006b5
    1aa0:	40000c02 	.word	0x40000c02
    1aa4:	40000c00 	.word	0x40000c00
    1aa8:	000006e9 	.word	0x000006e9

00001aac <system_gclk_chan_disable>:
    1aac:	b510      	push	{r4, lr}
    1aae:	0004      	movs	r4, r0
    1ab0:	4b0e      	ldr	r3, [pc, #56]	; (1aec <system_gclk_chan_disable+0x40>)
    1ab2:	4798      	blx	r3
    1ab4:	4b0e      	ldr	r3, [pc, #56]	; (1af0 <system_gclk_chan_disable+0x44>)
    1ab6:	4a0f      	ldr	r2, [pc, #60]	; (1af4 <system_gclk_chan_disable+0x48>)
    1ab8:	701c      	strb	r4, [r3, #0]
    1aba:	4b0f      	ldr	r3, [pc, #60]	; (1af8 <system_gclk_chan_disable+0x4c>)
    1abc:	4c0f      	ldr	r4, [pc, #60]	; (1afc <system_gclk_chan_disable+0x50>)
    1abe:	8858      	ldrh	r0, [r3, #2]
    1ac0:	8859      	ldrh	r1, [r3, #2]
    1ac2:	0500      	lsls	r0, r0, #20
    1ac4:	4011      	ands	r1, r2
    1ac6:	8059      	strh	r1, [r3, #2]
    1ac8:	8859      	ldrh	r1, [r3, #2]
    1aca:	0f00      	lsrs	r0, r0, #28
    1acc:	4021      	ands	r1, r4
    1ace:	8059      	strh	r1, [r3, #2]
    1ad0:	0011      	movs	r1, r2
    1ad2:	2280      	movs	r2, #128	; 0x80
    1ad4:	01d2      	lsls	r2, r2, #7
    1ad6:	885c      	ldrh	r4, [r3, #2]
    1ad8:	4214      	tst	r4, r2
    1ada:	d1fc      	bne.n	1ad6 <system_gclk_chan_disable+0x2a>
    1adc:	885a      	ldrh	r2, [r3, #2]
    1ade:	0200      	lsls	r0, r0, #8
    1ae0:	400a      	ands	r2, r1
    1ae2:	4302      	orrs	r2, r0
    1ae4:	805a      	strh	r2, [r3, #2]
    1ae6:	4b06      	ldr	r3, [pc, #24]	; (1b00 <system_gclk_chan_disable+0x54>)
    1ae8:	4798      	blx	r3
    1aea:	bd10      	pop	{r4, pc}
    1aec:	000006b5 	.word	0x000006b5
    1af0:	40000c02 	.word	0x40000c02
    1af4:	fffff0ff 	.word	0xfffff0ff
    1af8:	40000c00 	.word	0x40000c00
    1afc:	ffffbfff 	.word	0xffffbfff
    1b00:	000006e9 	.word	0x000006e9

00001b04 <system_gclk_chan_set_config>:
    1b04:	b510      	push	{r4, lr}
    1b06:	780c      	ldrb	r4, [r1, #0]
    1b08:	4b03      	ldr	r3, [pc, #12]	; (1b18 <system_gclk_chan_set_config+0x14>)
    1b0a:	0224      	lsls	r4, r4, #8
    1b0c:	4304      	orrs	r4, r0
    1b0e:	4798      	blx	r3
    1b10:	4b02      	ldr	r3, [pc, #8]	; (1b1c <system_gclk_chan_set_config+0x18>)
    1b12:	b2a4      	uxth	r4, r4
    1b14:	805c      	strh	r4, [r3, #2]
    1b16:	bd10      	pop	{r4, pc}
    1b18:	00001aad 	.word	0x00001aad
    1b1c:	40000c00 	.word	0x40000c00

00001b20 <system_gclk_chan_get_hz>:
    1b20:	b510      	push	{r4, lr}
    1b22:	0004      	movs	r4, r0
    1b24:	4b06      	ldr	r3, [pc, #24]	; (1b40 <system_gclk_chan_get_hz+0x20>)
    1b26:	4798      	blx	r3
    1b28:	4b06      	ldr	r3, [pc, #24]	; (1b44 <system_gclk_chan_get_hz+0x24>)
    1b2a:	701c      	strb	r4, [r3, #0]
    1b2c:	4b06      	ldr	r3, [pc, #24]	; (1b48 <system_gclk_chan_get_hz+0x28>)
    1b2e:	885c      	ldrh	r4, [r3, #2]
    1b30:	4b06      	ldr	r3, [pc, #24]	; (1b4c <system_gclk_chan_get_hz+0x2c>)
    1b32:	0524      	lsls	r4, r4, #20
    1b34:	0f24      	lsrs	r4, r4, #28
    1b36:	4798      	blx	r3
    1b38:	0020      	movs	r0, r4
    1b3a:	4b05      	ldr	r3, [pc, #20]	; (1b50 <system_gclk_chan_get_hz+0x30>)
    1b3c:	4798      	blx	r3
    1b3e:	bd10      	pop	{r4, pc}
    1b40:	000006b5 	.word	0x000006b5
    1b44:	40000c02 	.word	0x40000c02
    1b48:	40000c00 	.word	0x40000c00
    1b4c:	000006e9 	.word	0x000006e9
    1b50:	000019f5 	.word	0x000019f5

00001b54 <_system_pinmux_config>:
    1b54:	78d3      	ldrb	r3, [r2, #3]
    1b56:	b530      	push	{r4, r5, lr}
    1b58:	2b00      	cmp	r3, #0
    1b5a:	d135      	bne.n	1bc8 <_system_pinmux_config+0x74>
    1b5c:	7814      	ldrb	r4, [r2, #0]
    1b5e:	2c80      	cmp	r4, #128	; 0x80
    1b60:	d003      	beq.n	1b6a <_system_pinmux_config+0x16>
    1b62:	2380      	movs	r3, #128	; 0x80
    1b64:	0624      	lsls	r4, r4, #24
    1b66:	025b      	lsls	r3, r3, #9
    1b68:	4323      	orrs	r3, r4
    1b6a:	2502      	movs	r5, #2
    1b6c:	7854      	ldrb	r4, [r2, #1]
    1b6e:	43ac      	bics	r4, r5
    1b70:	d106      	bne.n	1b80 <_system_pinmux_config+0x2c>
    1b72:	7894      	ldrb	r4, [r2, #2]
    1b74:	2c00      	cmp	r4, #0
    1b76:	d124      	bne.n	1bc2 <_system_pinmux_config+0x6e>
    1b78:	2480      	movs	r4, #128	; 0x80
    1b7a:	02a4      	lsls	r4, r4, #10
    1b7c:	4323      	orrs	r3, r4
    1b7e:	6041      	str	r1, [r0, #4]
    1b80:	7854      	ldrb	r4, [r2, #1]
    1b82:	3c01      	subs	r4, #1
    1b84:	2c01      	cmp	r4, #1
    1b86:	d801      	bhi.n	1b8c <_system_pinmux_config+0x38>
    1b88:	4c12      	ldr	r4, [pc, #72]	; (1bd4 <_system_pinmux_config+0x80>)
    1b8a:	4023      	ands	r3, r4
    1b8c:	24a0      	movs	r4, #160	; 0xa0
    1b8e:	b28d      	uxth	r5, r1
    1b90:	05e4      	lsls	r4, r4, #23
    1b92:	432c      	orrs	r4, r5
    1b94:	431c      	orrs	r4, r3
    1b96:	6284      	str	r4, [r0, #40]	; 0x28
    1b98:	24d0      	movs	r4, #208	; 0xd0
    1b9a:	0c0d      	lsrs	r5, r1, #16
    1b9c:	0624      	lsls	r4, r4, #24
    1b9e:	432c      	orrs	r4, r5
    1ba0:	431c      	orrs	r4, r3
    1ba2:	6284      	str	r4, [r0, #40]	; 0x28
    1ba4:	78d4      	ldrb	r4, [r2, #3]
    1ba6:	2c00      	cmp	r4, #0
    1ba8:	d10a      	bne.n	1bc0 <_system_pinmux_config+0x6c>
    1baa:	035b      	lsls	r3, r3, #13
    1bac:	d503      	bpl.n	1bb6 <_system_pinmux_config+0x62>
    1bae:	7893      	ldrb	r3, [r2, #2]
    1bb0:	2b01      	cmp	r3, #1
    1bb2:	d10c      	bne.n	1bce <_system_pinmux_config+0x7a>
    1bb4:	6181      	str	r1, [r0, #24]
    1bb6:	7853      	ldrb	r3, [r2, #1]
    1bb8:	3b01      	subs	r3, #1
    1bba:	2b01      	cmp	r3, #1
    1bbc:	d800      	bhi.n	1bc0 <_system_pinmux_config+0x6c>
    1bbe:	6081      	str	r1, [r0, #8]
    1bc0:	bd30      	pop	{r4, r5, pc}
    1bc2:	24c0      	movs	r4, #192	; 0xc0
    1bc4:	02e4      	lsls	r4, r4, #11
    1bc6:	e7d9      	b.n	1b7c <_system_pinmux_config+0x28>
    1bc8:	6041      	str	r1, [r0, #4]
    1bca:	2300      	movs	r3, #0
    1bcc:	e7de      	b.n	1b8c <_system_pinmux_config+0x38>
    1bce:	6141      	str	r1, [r0, #20]
    1bd0:	e7f1      	b.n	1bb6 <_system_pinmux_config+0x62>
    1bd2:	46c0      	nop			; (mov r8, r8)
    1bd4:	fffbffff 	.word	0xfffbffff

00001bd8 <system_pinmux_pin_set_config>:
    1bd8:	b510      	push	{r4, lr}
    1bda:	0003      	movs	r3, r0
    1bdc:	000a      	movs	r2, r1
    1bde:	0944      	lsrs	r4, r0, #5
    1be0:	09c1      	lsrs	r1, r0, #7
    1be2:	2000      	movs	r0, #0
    1be4:	4281      	cmp	r1, r0
    1be6:	d102      	bne.n	1bee <system_pinmux_pin_set_config+0x16>
    1be8:	4904      	ldr	r1, [pc, #16]	; (1bfc <system_pinmux_pin_set_config+0x24>)
    1bea:	01e0      	lsls	r0, r4, #7
    1bec:	1840      	adds	r0, r0, r1
    1bee:	211f      	movs	r1, #31
    1bf0:	400b      	ands	r3, r1
    1bf2:	391e      	subs	r1, #30
    1bf4:	4099      	lsls	r1, r3
    1bf6:	4b02      	ldr	r3, [pc, #8]	; (1c00 <system_pinmux_pin_set_config+0x28>)
    1bf8:	4798      	blx	r3
    1bfa:	bd10      	pop	{r4, pc}
    1bfc:	41004400 	.word	0x41004400
    1c00:	00001b55 	.word	0x00001b55

00001c04 <_system_dummy_init>:
    1c04:	4770      	bx	lr
	...

00001c08 <system_init>:
    1c08:	b510      	push	{r4, lr}
    1c0a:	4b05      	ldr	r3, [pc, #20]	; (1c20 <system_init+0x18>)
    1c0c:	4798      	blx	r3
    1c0e:	4b05      	ldr	r3, [pc, #20]	; (1c24 <system_init+0x1c>)
    1c10:	4798      	blx	r3
    1c12:	4b05      	ldr	r3, [pc, #20]	; (1c28 <system_init+0x20>)
    1c14:	4798      	blx	r3
    1c16:	4b05      	ldr	r3, [pc, #20]	; (1c2c <system_init+0x24>)
    1c18:	4798      	blx	r3
    1c1a:	4b05      	ldr	r3, [pc, #20]	; (1c30 <system_init+0x28>)
    1c1c:	4798      	blx	r3
    1c1e:	bd10      	pop	{r4, pc}
    1c20:	00001855 	.word	0x00001855
    1c24:	000006b1 	.word	0x000006b1
    1c28:	00001c05 	.word	0x00001c05
    1c2c:	00001c05 	.word	0x00001c05
    1c30:	00001c05 	.word	0x00001c05

00001c34 <WDT_Handler>:
    1c34:	2201      	movs	r2, #1
    1c36:	b510      	push	{r4, lr}
    1c38:	4b03      	ldr	r3, [pc, #12]	; (1c48 <WDT_Handler+0x14>)
    1c3a:	719a      	strb	r2, [r3, #6]
    1c3c:	4b03      	ldr	r3, [pc, #12]	; (1c4c <WDT_Handler+0x18>)
    1c3e:	681b      	ldr	r3, [r3, #0]
    1c40:	2b00      	cmp	r3, #0
    1c42:	d000      	beq.n	1c46 <WDT_Handler+0x12>
    1c44:	4798      	blx	r3
    1c46:	bd10      	pop	{r4, pc}
    1c48:	40001000 	.word	0x40001000
    1c4c:	20000120 	.word	0x20000120

00001c50 <Dummy_Handler>:
    1c50:	e7fe      	b.n	1c50 <Dummy_Handler>
	...

00001c54 <Reset_Handler>:
    1c54:	4821      	ldr	r0, [pc, #132]	; (1cdc <Reset_Handler+0x88>)
    1c56:	4922      	ldr	r1, [pc, #136]	; (1ce0 <Reset_Handler+0x8c>)
    1c58:	b570      	push	{r4, r5, r6, lr}
    1c5a:	4288      	cmp	r0, r1
    1c5c:	d004      	beq.n	1c68 <Reset_Handler+0x14>
    1c5e:	2300      	movs	r3, #0
    1c60:	4c20      	ldr	r4, [pc, #128]	; (1ce4 <Reset_Handler+0x90>)
    1c62:	18ca      	adds	r2, r1, r3
    1c64:	42a2      	cmp	r2, r4
    1c66:	d332      	bcc.n	1cce <Reset_Handler+0x7a>
    1c68:	2100      	movs	r1, #0
    1c6a:	4b1f      	ldr	r3, [pc, #124]	; (1ce8 <Reset_Handler+0x94>)
    1c6c:	4a1f      	ldr	r2, [pc, #124]	; (1cec <Reset_Handler+0x98>)
    1c6e:	4293      	cmp	r3, r2
    1c70:	d331      	bcc.n	1cd6 <Reset_Handler+0x82>
    1c72:	21ff      	movs	r1, #255	; 0xff
    1c74:	4b1e      	ldr	r3, [pc, #120]	; (1cf0 <Reset_Handler+0x9c>)
    1c76:	4a1f      	ldr	r2, [pc, #124]	; (1cf4 <Reset_Handler+0xa0>)
    1c78:	438b      	bics	r3, r1
    1c7a:	6093      	str	r3, [r2, #8]
    1c7c:	2202      	movs	r2, #2
    1c7e:	250c      	movs	r5, #12
    1c80:	2408      	movs	r4, #8
    1c82:	2630      	movs	r6, #48	; 0x30
    1c84:	4b1c      	ldr	r3, [pc, #112]	; (1cf8 <Reset_Handler+0xa4>)
    1c86:	481d      	ldr	r0, [pc, #116]	; (1cfc <Reset_Handler+0xa8>)
    1c88:	625a      	str	r2, [r3, #36]	; 0x24
    1c8a:	78c3      	ldrb	r3, [r0, #3]
    1c8c:	39fc      	subs	r1, #252	; 0xfc
    1c8e:	438b      	bics	r3, r1
    1c90:	4313      	orrs	r3, r2
    1c92:	70c3      	strb	r3, [r0, #3]
    1c94:	78c3      	ldrb	r3, [r0, #3]
    1c96:	43ab      	bics	r3, r5
    1c98:	4323      	orrs	r3, r4
    1c9a:	70c3      	strb	r3, [r0, #3]
    1c9c:	4b18      	ldr	r3, [pc, #96]	; (1d00 <Reset_Handler+0xac>)
    1c9e:	7b98      	ldrb	r0, [r3, #14]
    1ca0:	43b0      	bics	r0, r6
    1ca2:	0006      	movs	r6, r0
    1ca4:	2020      	movs	r0, #32
    1ca6:	4330      	orrs	r0, r6
    1ca8:	7398      	strb	r0, [r3, #14]
    1caa:	7b98      	ldrb	r0, [r3, #14]
    1cac:	43a8      	bics	r0, r5
    1cae:	4304      	orrs	r4, r0
    1cb0:	739c      	strb	r4, [r3, #14]
    1cb2:	7b98      	ldrb	r0, [r3, #14]
    1cb4:	4388      	bics	r0, r1
    1cb6:	4302      	orrs	r2, r0
    1cb8:	739a      	strb	r2, [r3, #14]
    1cba:	2380      	movs	r3, #128	; 0x80
    1cbc:	4a11      	ldr	r2, [pc, #68]	; (1d04 <Reset_Handler+0xb0>)
    1cbe:	6851      	ldr	r1, [r2, #4]
    1cc0:	430b      	orrs	r3, r1
    1cc2:	6053      	str	r3, [r2, #4]
    1cc4:	4b10      	ldr	r3, [pc, #64]	; (1d08 <Reset_Handler+0xb4>)
    1cc6:	4798      	blx	r3
    1cc8:	4b10      	ldr	r3, [pc, #64]	; (1d0c <Reset_Handler+0xb8>)
    1cca:	4798      	blx	r3
    1ccc:	e7fe      	b.n	1ccc <Reset_Handler+0x78>
    1cce:	58c5      	ldr	r5, [r0, r3]
    1cd0:	3304      	adds	r3, #4
    1cd2:	6015      	str	r5, [r2, #0]
    1cd4:	e7c5      	b.n	1c62 <Reset_Handler+0xe>
    1cd6:	c302      	stmia	r3!, {r1}
    1cd8:	e7c9      	b.n	1c6e <Reset_Handler+0x1a>
    1cda:	46c0      	nop			; (mov r8, r8)
    1cdc:	00003a54 	.word	0x00003a54
    1ce0:	20000000 	.word	0x20000000
    1ce4:	20000068 	.word	0x20000068
    1ce8:	20000068 	.word	0x20000068
    1cec:	20000178 	.word	0x20000178
    1cf0:	00000000 	.word	0x00000000
    1cf4:	e000ed00 	.word	0xe000ed00
    1cf8:	410070fc 	.word	0x410070fc
    1cfc:	41005000 	.word	0x41005000
    1d00:	41004800 	.word	0x41004800
    1d04:	41004000 	.word	0x41004000
    1d08:	000025f5 	.word	0x000025f5
    1d0c:	00002171 	.word	0x00002171

00001d10 <_read>:
    1d10:	b570      	push	{r4, r5, r6, lr}
    1d12:	000e      	movs	r6, r1
    1d14:	0014      	movs	r4, r2
    1d16:	0015      	movs	r5, r2
    1d18:	2800      	cmp	r0, #0
    1d1a:	d008      	beq.n	1d2e <_read+0x1e>
    1d1c:	2001      	movs	r0, #1
    1d1e:	4240      	negs	r0, r0
    1d20:	e00c      	b.n	1d3c <_read+0x2c>
    1d22:	4b07      	ldr	r3, [pc, #28]	; (1d40 <_read+0x30>)
    1d24:	3d01      	subs	r5, #1
    1d26:	6818      	ldr	r0, [r3, #0]
    1d28:	4b06      	ldr	r3, [pc, #24]	; (1d44 <_read+0x34>)
    1d2a:	681b      	ldr	r3, [r3, #0]
    1d2c:	4798      	blx	r3
    1d2e:	1b61      	subs	r1, r4, r5
    1d30:	1871      	adds	r1, r6, r1
    1d32:	2d00      	cmp	r5, #0
    1d34:	dcf5      	bgt.n	1d22 <_read+0x12>
    1d36:	43e0      	mvns	r0, r4
    1d38:	17c0      	asrs	r0, r0, #31
    1d3a:	4020      	ands	r0, r4
    1d3c:	bd70      	pop	{r4, r5, r6, pc}
    1d3e:	46c0      	nop			; (mov r8, r8)
    1d40:	2000012c 	.word	0x2000012c
    1d44:	20000124 	.word	0x20000124

00001d48 <_write>:
    1d48:	3801      	subs	r0, #1
    1d4a:	b570      	push	{r4, r5, r6, lr}
    1d4c:	000e      	movs	r6, r1
    1d4e:	2802      	cmp	r0, #2
    1d50:	d80d      	bhi.n	1d6e <_write+0x26>
    1d52:	000c      	movs	r4, r1
    1d54:	188d      	adds	r5, r1, r2
    1d56:	1ba0      	subs	r0, r4, r6
    1d58:	42ac      	cmp	r4, r5
    1d5a:	d00a      	beq.n	1d72 <_write+0x2a>
    1d5c:	4b05      	ldr	r3, [pc, #20]	; (1d74 <_write+0x2c>)
    1d5e:	7821      	ldrb	r1, [r4, #0]
    1d60:	6818      	ldr	r0, [r3, #0]
    1d62:	4b05      	ldr	r3, [pc, #20]	; (1d78 <_write+0x30>)
    1d64:	3401      	adds	r4, #1
    1d66:	681b      	ldr	r3, [r3, #0]
    1d68:	4798      	blx	r3
    1d6a:	2800      	cmp	r0, #0
    1d6c:	daf3      	bge.n	1d56 <_write+0xe>
    1d6e:	2001      	movs	r0, #1
    1d70:	4240      	negs	r0, r0
    1d72:	bd70      	pop	{r4, r5, r6, pc}
    1d74:	2000012c 	.word	0x2000012c
    1d78:	20000128 	.word	0x20000128

00001d7c <_sbrk>:
    1d7c:	4b05      	ldr	r3, [pc, #20]	; (1d94 <_sbrk+0x18>)
    1d7e:	0002      	movs	r2, r0
    1d80:	6819      	ldr	r1, [r3, #0]
    1d82:	2900      	cmp	r1, #0
    1d84:	d101      	bne.n	1d8a <_sbrk+0xe>
    1d86:	4904      	ldr	r1, [pc, #16]	; (1d98 <_sbrk+0x1c>)
    1d88:	6019      	str	r1, [r3, #0]
    1d8a:	6818      	ldr	r0, [r3, #0]
    1d8c:	1882      	adds	r2, r0, r2
    1d8e:	601a      	str	r2, [r3, #0]
    1d90:	4770      	bx	lr
    1d92:	46c0      	nop			; (mov r8, r8)
    1d94:	200000c4 	.word	0x200000c4
    1d98:	20002178 	.word	0x20002178

00001d9c <_close>:
    1d9c:	2001      	movs	r0, #1
    1d9e:	4240      	negs	r0, r0
    1da0:	4770      	bx	lr

00001da2 <_fstat>:
    1da2:	2380      	movs	r3, #128	; 0x80
    1da4:	019b      	lsls	r3, r3, #6
    1da6:	2000      	movs	r0, #0
    1da8:	604b      	str	r3, [r1, #4]
    1daa:	4770      	bx	lr

00001dac <_isatty>:
    1dac:	2001      	movs	r0, #1
    1dae:	4770      	bx	lr

00001db0 <_lseek>:
    1db0:	2000      	movs	r0, #0
    1db2:	4770      	bx	lr

00001db4 <usart_serial_getchar>:
    1db4:	b573      	push	{r0, r1, r4, r5, r6, lr}
    1db6:	466b      	mov	r3, sp
    1db8:	1d9c      	adds	r4, r3, #6
    1dba:	2300      	movs	r3, #0
    1dbc:	0006      	movs	r6, r0
    1dbe:	000d      	movs	r5, r1
    1dc0:	8023      	strh	r3, [r4, #0]
    1dc2:	0021      	movs	r1, r4
    1dc4:	0030      	movs	r0, r6
    1dc6:	4b03      	ldr	r3, [pc, #12]	; (1dd4 <usart_serial_getchar+0x20>)
    1dc8:	4798      	blx	r3
    1dca:	2800      	cmp	r0, #0
    1dcc:	d1f9      	bne.n	1dc2 <usart_serial_getchar+0xe>
    1dce:	8823      	ldrh	r3, [r4, #0]
    1dd0:	702b      	strb	r3, [r5, #0]
    1dd2:	bd73      	pop	{r0, r1, r4, r5, r6, pc}
    1dd4:	00001511 	.word	0x00001511

00001dd8 <usart_serial_putchar>:
    1dd8:	b570      	push	{r4, r5, r6, lr}
    1dda:	0004      	movs	r4, r0
    1ddc:	000d      	movs	r5, r1
    1dde:	b2a9      	uxth	r1, r5
    1de0:	0020      	movs	r0, r4
    1de2:	4b02      	ldr	r3, [pc, #8]	; (1dec <usart_serial_putchar+0x14>)
    1de4:	4798      	blx	r3
    1de6:	2800      	cmp	r0, #0
    1de8:	d1f9      	bne.n	1dde <usart_serial_putchar+0x6>
    1dea:	bd70      	pop	{r4, r5, r6, pc}
    1dec:	000014e1 	.word	0x000014e1

00001df0 <nvm_init>:
    1df0:	b507      	push	{r0, r1, r2, lr}
    1df2:	2200      	movs	r2, #0
    1df4:	466b      	mov	r3, sp
    1df6:	4669      	mov	r1, sp
    1df8:	701a      	strb	r2, [r3, #0]
    1dfa:	4b06      	ldr	r3, [pc, #24]	; (1e14 <nvm_init+0x24>)
    1dfc:	4668      	mov	r0, sp
    1dfe:	685b      	ldr	r3, [r3, #4]
    1e00:	06db      	lsls	r3, r3, #27
    1e02:	0f1b      	lsrs	r3, r3, #28
    1e04:	708b      	strb	r3, [r1, #2]
    1e06:	4b04      	ldr	r3, [pc, #16]	; (1e18 <nvm_init+0x28>)
    1e08:	70ca      	strb	r2, [r1, #3]
    1e0a:	710a      	strb	r2, [r1, #4]
    1e0c:	704a      	strb	r2, [r1, #1]
    1e0e:	4798      	blx	r3
    1e10:	bd07      	pop	{r0, r1, r2, pc}
    1e12:	46c0      	nop			; (mov r8, r8)
    1e14:	41004000 	.word	0x41004000
    1e18:	00000361 	.word	0x00000361

00001e1c <application_jump>:
    1e1c:	2380      	movs	r3, #128	; 0x80
    1e1e:	b5f7      	push	{r0, r1, r2, r4, r5, r6, r7, lr}
    1e20:	01db      	lsls	r3, r3, #7
    1e22:	af00      	add	r7, sp, #0
    1e24:	681a      	ldr	r2, [r3, #0]
    1e26:	f382 8808 	msr	MSP, r2
    1e2a:	4a18      	ldr	r2, [pc, #96]	; (1e8c <application_jump+0x70>)
    1e2c:	4e18      	ldr	r6, [pc, #96]	; (1e90 <application_jump+0x74>)
    1e2e:	6093      	str	r3, [r2, #8]
    1e30:	4b18      	ldr	r3, [pc, #96]	; (1e94 <application_jump+0x78>)
    1e32:	6834      	ldr	r4, [r6, #0]
    1e34:	681b      	ldr	r3, [r3, #0]
    1e36:	0020      	movs	r0, r4
    1e38:	607b      	str	r3, [r7, #4]
    1e3a:	4b17      	ldr	r3, [pc, #92]	; (1e98 <application_jump+0x7c>)
    1e3c:	4798      	blx	r3
    1e3e:	231f      	movs	r3, #31
    1e40:	4018      	ands	r0, r3
    1e42:	3b1e      	subs	r3, #30
    1e44:	4083      	lsls	r3, r0
    1e46:	4d15      	ldr	r5, [pc, #84]	; (1e9c <application_jump+0x80>)
    1e48:	67eb      	str	r3, [r5, #124]	; 0x7c
    1e4a:	6832      	ldr	r2, [r6, #0]
    1e4c:	69d3      	ldr	r3, [r2, #28]
    1e4e:	2b00      	cmp	r3, #0
    1e50:	d1fc      	bne.n	1e4c <application_jump+0x30>
    1e52:	2202      	movs	r2, #2
    1e54:	6823      	ldr	r3, [r4, #0]
    1e56:	4e12      	ldr	r6, [pc, #72]	; (1ea0 <application_jump+0x84>)
    1e58:	4393      	bics	r3, r2
    1e5a:	6023      	str	r3, [r4, #0]
    1e5c:	6834      	ldr	r4, [r6, #0]
    1e5e:	4b0e      	ldr	r3, [pc, #56]	; (1e98 <application_jump+0x7c>)
    1e60:	0020      	movs	r0, r4
    1e62:	4798      	blx	r3
    1e64:	231f      	movs	r3, #31
    1e66:	4018      	ands	r0, r3
    1e68:	3b1e      	subs	r3, #30
    1e6a:	4083      	lsls	r3, r0
    1e6c:	67eb      	str	r3, [r5, #124]	; 0x7c
    1e6e:	6832      	ldr	r2, [r6, #0]
    1e70:	69d3      	ldr	r3, [r2, #28]
    1e72:	2b00      	cmp	r3, #0
    1e74:	d1fc      	bne.n	1e70 <application_jump+0x54>
    1e76:	2202      	movs	r2, #2
    1e78:	338f      	adds	r3, #143	; 0x8f
    1e7a:	7523      	strb	r3, [r4, #20]
    1e7c:	7623      	strb	r3, [r4, #24]
    1e7e:	6823      	ldr	r3, [r4, #0]
    1e80:	4393      	bics	r3, r2
    1e82:	6023      	str	r3, [r4, #0]
    1e84:	687b      	ldr	r3, [r7, #4]
    1e86:	4798      	blx	r3
    1e88:	46bd      	mov	sp, r7
    1e8a:	bdf7      	pop	{r0, r1, r2, r4, r5, r6, r7, pc}
    1e8c:	e000ed00 	.word	0xe000ed00
    1e90:	200000c8 	.word	0x200000c8
    1e94:	00004004 	.word	0x00004004
    1e98:	00000a51 	.word	0x00000a51
    1e9c:	e000e104 	.word	0xe000e104
    1ea0:	20000138 	.word	0x20000138

00001ea4 <dd_nvm_row_read>:
    1ea4:	b570      	push	{r4, r5, r6, lr}
    1ea6:	000d      	movs	r5, r1
    1ea8:	0016      	movs	r6, r2
    1eaa:	0204      	lsls	r4, r0, #8
    1eac:	b2b2      	uxth	r2, r6
    1eae:	0029      	movs	r1, r5
    1eb0:	0020      	movs	r0, r4
    1eb2:	4b02      	ldr	r3, [pc, #8]	; (1ebc <dd_nvm_row_read+0x18>)
    1eb4:	4798      	blx	r3
    1eb6:	2805      	cmp	r0, #5
    1eb8:	d0f8      	beq.n	1eac <dd_nvm_row_read+0x8>
    1eba:	bd70      	pop	{r4, r5, r6, pc}
    1ebc:	00000529 	.word	0x00000529

00001ec0 <dd_nvm_row_write>:
    1ec0:	b5f8      	push	{r3, r4, r5, r6, r7, lr}
    1ec2:	000f      	movs	r7, r1
    1ec4:	0206      	lsls	r6, r0, #8
    1ec6:	0001      	movs	r1, r0
    1ec8:	4b09      	ldr	r3, [pc, #36]	; (1ef0 <dd_nvm_row_write+0x30>)
    1eca:	480a      	ldr	r0, [pc, #40]	; (1ef4 <dd_nvm_row_write+0x34>)
    1ecc:	0015      	movs	r5, r2
    1ece:	4798      	blx	r3
    1ed0:	0030      	movs	r0, r6
    1ed2:	4b09      	ldr	r3, [pc, #36]	; (1ef8 <dd_nvm_row_write+0x38>)
    1ed4:	4798      	blx	r3
    1ed6:	0004      	movs	r4, r0
    1ed8:	2805      	cmp	r0, #5
    1eda:	d0f9      	beq.n	1ed0 <dd_nvm_row_write+0x10>
    1edc:	2800      	cmp	r0, #0
    1ede:	d104      	bne.n	1eea <dd_nvm_row_write+0x2a>
    1ee0:	b2aa      	uxth	r2, r5
    1ee2:	0039      	movs	r1, r7
    1ee4:	0030      	movs	r0, r6
    1ee6:	4b05      	ldr	r3, [pc, #20]	; (1efc <dd_nvm_row_write+0x3c>)
    1ee8:	4798      	blx	r3
    1eea:	0020      	movs	r0, r4
    1eec:	bdf8      	pop	{r3, r4, r5, r6, r7, pc}
    1eee:	46c0      	nop			; (mov r8, r8)
    1ef0:	0000264d 	.word	0x0000264d
    1ef4:	0000374c 	.word	0x0000374c
    1ef8:	00000591 	.word	0x00000591
    1efc:	0000048d 	.word	0x0000048d

00001f00 <get_boot_status>:
    1f00:	b510      	push	{r4, lr}
    1f02:	0001      	movs	r1, r0
    1f04:	2210      	movs	r2, #16
    1f06:	4802      	ldr	r0, [pc, #8]	; (1f10 <get_boot_status+0x10>)
    1f08:	4b02      	ldr	r3, [pc, #8]	; (1f14 <get_boot_status+0x14>)
    1f0a:	4798      	blx	r3
    1f0c:	bd10      	pop	{r4, pc}
    1f0e:	46c0      	nop			; (mov r8, r8)
    1f10:	000003f6 	.word	0x000003f6
    1f14:	00001ea5 	.word	0x00001ea5

00001f18 <set_boot_status>:
    1f18:	b510      	push	{r4, lr}
    1f1a:	0001      	movs	r1, r0
    1f1c:	2210      	movs	r2, #16
    1f1e:	4802      	ldr	r0, [pc, #8]	; (1f28 <set_boot_status+0x10>)
    1f20:	4b02      	ldr	r3, [pc, #8]	; (1f2c <set_boot_status+0x14>)
    1f22:	4798      	blx	r3
    1f24:	bd10      	pop	{r4, pc}
    1f26:	46c0      	nop			; (mov r8, r8)
    1f28:	000003f6 	.word	0x000003f6
    1f2c:	00001ec1 	.word	0x00001ec1

00001f30 <get_boot_status_default>:
    1f30:	23dd      	movs	r3, #221	; 0xdd
    1f32:	7003      	strb	r3, [r0, #0]
    1f34:	3b30      	subs	r3, #48	; 0x30
    1f36:	7043      	strb	r3, [r0, #1]
    1f38:	3b8d      	subs	r3, #141	; 0x8d
    1f3a:	7083      	strb	r3, [r0, #2]
    1f3c:	3b08      	subs	r3, #8
    1f3e:	70c3      	strb	r3, [r0, #3]
    1f40:	2300      	movs	r3, #0
    1f42:	7103      	strb	r3, [r0, #4]
    1f44:	7143      	strb	r3, [r0, #5]
    1f46:	7183      	strb	r3, [r0, #6]
    1f48:	7203      	strb	r3, [r0, #8]
    1f4a:	7243      	strb	r3, [r0, #9]
    1f4c:	2380      	movs	r3, #128	; 0x80
    1f4e:	2201      	movs	r2, #1
    1f50:	01db      	lsls	r3, r3, #7
    1f52:	71c2      	strb	r2, [r0, #7]
    1f54:	60c3      	str	r3, [r0, #12]
    1f56:	4770      	bx	lr

00001f58 <check_signature>:
    1f58:	2300      	movs	r3, #0
    1f5a:	b510      	push	{r4, lr}
    1f5c:	4906      	ldr	r1, [pc, #24]	; (1f78 <check_signature+0x20>)
    1f5e:	001a      	movs	r2, r3
    1f60:	5c84      	ldrb	r4, [r0, r2]
    1f62:	5c52      	ldrb	r2, [r2, r1]
    1f64:	3301      	adds	r3, #1
    1f66:	4294      	cmp	r4, r2
    1f68:	d103      	bne.n	1f72 <check_signature+0x1a>
    1f6a:	2b08      	cmp	r3, #8
    1f6c:	d1f7      	bne.n	1f5e <check_signature+0x6>
    1f6e:	2001      	movs	r0, #1
    1f70:	bd10      	pop	{r4, pc}
    1f72:	2000      	movs	r0, #0
    1f74:	e7fc      	b.n	1f70 <check_signature+0x18>
    1f76:	46c0      	nop			; (mov r8, r8)
    1f78:	00003744 	.word	0x00003744

00001f7c <restart>:
    1f7c:	b510      	push	{r4, lr}
    1f7e:	4802      	ldr	r0, [pc, #8]	; (1f88 <restart+0xc>)
    1f80:	4b02      	ldr	r3, [pc, #8]	; (1f8c <restart+0x10>)
    1f82:	4798      	blx	r3
    1f84:	e7fe      	b.n	1f84 <restart+0x8>
    1f86:	46c0      	nop			; (mov r8, r8)
    1f88:	00003948 	.word	0x00003948
    1f8c:	0000264d 	.word	0x0000264d

00001f90 <dd_flash_read_data>:
    1f90:	b5f8      	push	{r3, r4, r5, r6, r7, lr}
    1f92:	4c0a      	ldr	r4, [pc, #40]	; (1fbc <dd_flash_read_data+0x2c>)
    1f94:	0006      	movs	r6, r0
    1f96:	4b0a      	ldr	r3, [pc, #40]	; (1fc0 <dd_flash_read_data+0x30>)
    1f98:	0020      	movs	r0, r4
    1f9a:	000f      	movs	r7, r1
    1f9c:	0015      	movs	r5, r2
    1f9e:	4798      	blx	r3
    1fa0:	2800      	cmp	r0, #0
    1fa2:	d10a      	bne.n	1fba <dd_flash_read_data+0x2a>
    1fa4:	b2ab      	uxth	r3, r5
    1fa6:	003a      	movs	r2, r7
    1fa8:	0031      	movs	r1, r6
    1faa:	0020      	movs	r0, r4
    1fac:	4d05      	ldr	r5, [pc, #20]	; (1fc4 <dd_flash_read_data+0x34>)
    1fae:	47a8      	blx	r5
    1fb0:	2800      	cmp	r0, #0
    1fb2:	d102      	bne.n	1fba <dd_flash_read_data+0x2a>
    1fb4:	0020      	movs	r0, r4
    1fb6:	4b04      	ldr	r3, [pc, #16]	; (1fc8 <dd_flash_read_data+0x38>)
    1fb8:	4798      	blx	r3
    1fba:	bdf8      	pop	{r3, r4, r5, r6, r7, pc}
    1fbc:	20000130 	.word	0x20000130
    1fc0:	00000299 	.word	0x00000299
    1fc4:	00000219 	.word	0x00000219
    1fc8:	00000269 	.word	0x00000269

00001fcc <get_application_metadata_addr>:
    1fcc:	b57f      	push	{r0, r1, r2, r3, r4, r5, r6, lr}
    1fce:	ad01      	add	r5, sp, #4
    1fd0:	0004      	movs	r4, r0
    1fd2:	000e      	movs	r6, r1
    1fd4:	220c      	movs	r2, #12
    1fd6:	0029      	movs	r1, r5
    1fd8:	2000      	movs	r0, #0
    1fda:	4b04      	ldr	r3, [pc, #16]	; (1fec <get_application_metadata_addr+0x20>)
    1fdc:	4798      	blx	r3
    1fde:	2800      	cmp	r0, #0
    1fe0:	d102      	bne.n	1fe8 <get_application_metadata_addr+0x1c>
    1fe2:	00a4      	lsls	r4, r4, #2
    1fe4:	5963      	ldr	r3, [r4, r5]
    1fe6:	6033      	str	r3, [r6, #0]
    1fe8:	b004      	add	sp, #16
    1fea:	bd70      	pop	{r4, r5, r6, pc}
    1fec:	00001f91 	.word	0x00001f91

00001ff0 <get_application_metadata>:
    1ff0:	b513      	push	{r0, r1, r4, lr}
    1ff2:	4b06      	ldr	r3, [pc, #24]	; (200c <STACK_SIZE+0xc>)
    1ff4:	000c      	movs	r4, r1
    1ff6:	a901      	add	r1, sp, #4
    1ff8:	4798      	blx	r3
    1ffa:	2800      	cmp	r0, #0
    1ffc:	d104      	bne.n	2008 <STACK_SIZE+0x8>
    1ffe:	2210      	movs	r2, #16
    2000:	0021      	movs	r1, r4
    2002:	9801      	ldr	r0, [sp, #4]
    2004:	4b02      	ldr	r3, [pc, #8]	; (2010 <STACK_SIZE+0x10>)
    2006:	4798      	blx	r3
    2008:	bd16      	pop	{r1, r2, r4, pc}
    200a:	46c0      	nop			; (mov r8, r8)
    200c:	00001fcd 	.word	0x00001fcd
    2010:	00001f91 	.word	0x00001f91

00002014 <check_nvm_application_crc>:
    2014:	b5f0      	push	{r4, r5, r6, r7, lr}
    2016:	0006      	movs	r6, r0
    2018:	000d      	movs	r5, r1
    201a:	0017      	movs	r7, r2
    201c:	000c      	movs	r4, r1
    201e:	b0c3      	sub	sp, #268	; 0x10c
    2020:	1b63      	subs	r3, r4, r5
    2022:	429f      	cmp	r7, r3
    2024:	d805      	bhi.n	2032 <check_nvm_application_crc+0x1e>
    2026:	9b01      	ldr	r3, [sp, #4]
    2028:	1b9e      	subs	r6, r3, r6
    202a:	4270      	negs	r0, r6
    202c:	4170      	adcs	r0, r6
    202e:	b2c0      	uxtb	r0, r0
    2030:	e008      	b.n	2044 <check_nvm_application_crc+0x30>
    2032:	2280      	movs	r2, #128	; 0x80
    2034:	a902      	add	r1, sp, #8
    2036:	0052      	lsls	r2, r2, #1
    2038:	0020      	movs	r0, r4
    203a:	4b09      	ldr	r3, [pc, #36]	; (2060 <check_nvm_application_crc+0x4c>)
    203c:	4798      	blx	r3
    203e:	2800      	cmp	r0, #0
    2040:	d002      	beq.n	2048 <check_nvm_application_crc+0x34>
    2042:	2000      	movs	r0, #0
    2044:	b043      	add	sp, #268	; 0x10c
    2046:	bdf0      	pop	{r4, r5, r6, r7, pc}
    2048:	2180      	movs	r1, #128	; 0x80
    204a:	aa01      	add	r2, sp, #4
    204c:	0049      	lsls	r1, r1, #1
    204e:	a802      	add	r0, sp, #8
    2050:	4b04      	ldr	r3, [pc, #16]	; (2064 <check_nvm_application_crc+0x50>)
    2052:	4798      	blx	r3
    2054:	3401      	adds	r4, #1
    2056:	34ff      	adds	r4, #255	; 0xff
    2058:	2800      	cmp	r0, #0
    205a:	d0e1      	beq.n	2020 <check_nvm_application_crc+0xc>
    205c:	e7f1      	b.n	2042 <check_nvm_application_crc+0x2e>
    205e:	46c0      	nop			; (mov r8, r8)
    2060:	00001ea5 	.word	0x00001ea5
    2064:	000002c9 	.word	0x000002c9

00002068 <write_application_to_nvm>:
    2068:	b5f0      	push	{r4, r5, r6, r7, lr}
    206a:	b0c3      	sub	sp, #268	; 0x10c
    206c:	9001      	str	r0, [sp, #4]
    206e:	4e15      	ldr	r6, [pc, #84]	; (20c4 <write_application_to_nvm+0x5c>)
    2070:	4815      	ldr	r0, [pc, #84]	; (20c8 <write_application_to_nvm+0x60>)
    2072:	000f      	movs	r7, r1
    2074:	2500      	movs	r5, #0
    2076:	47b0      	blx	r6
    2078:	42bd      	cmp	r5, r7
    207a:	d301      	bcc.n	2080 <write_application_to_nvm+0x18>
    207c:	2400      	movs	r4, #0
    207e:	e00b      	b.n	2098 <write_application_to_nvm+0x30>
    2080:	2280      	movs	r2, #128	; 0x80
    2082:	9b01      	ldr	r3, [sp, #4]
    2084:	0052      	lsls	r2, r2, #1
    2086:	18e8      	adds	r0, r5, r3
    2088:	a902      	add	r1, sp, #8
    208a:	4b10      	ldr	r3, [pc, #64]	; (20cc <write_application_to_nvm+0x64>)
    208c:	4798      	blx	r3
    208e:	1e04      	subs	r4, r0, #0
    2090:	d005      	beq.n	209e <write_application_to_nvm+0x36>
    2092:	0001      	movs	r1, r0
    2094:	480e      	ldr	r0, [pc, #56]	; (20d0 <write_application_to_nvm+0x68>)
    2096:	47b0      	blx	r6
    2098:	0020      	movs	r0, r4
    209a:	b043      	add	sp, #268	; 0x10c
    209c:	bdf0      	pop	{r4, r5, r6, r7, pc}
    209e:	2280      	movs	r2, #128	; 0x80
    20a0:	0a28      	lsrs	r0, r5, #8
    20a2:	3040      	adds	r0, #64	; 0x40
    20a4:	0052      	lsls	r2, r2, #1
    20a6:	a902      	add	r1, sp, #8
    20a8:	4b0a      	ldr	r3, [pc, #40]	; (20d4 <write_application_to_nvm+0x6c>)
    20aa:	4798      	blx	r3
    20ac:	1e04      	subs	r4, r0, #0
    20ae:	d005      	beq.n	20bc <write_application_to_nvm+0x54>
    20b0:	0001      	movs	r1, r0
    20b2:	4809      	ldr	r0, [pc, #36]	; (20d8 <write_application_to_nvm+0x70>)
    20b4:	47b0      	blx	r6
    20b6:	0029      	movs	r1, r5
    20b8:	4808      	ldr	r0, [pc, #32]	; (20dc <write_application_to_nvm+0x74>)
    20ba:	e7ec      	b.n	2096 <write_application_to_nvm+0x2e>
    20bc:	3501      	adds	r5, #1
    20be:	35ff      	adds	r5, #255	; 0xff
    20c0:	e7da      	b.n	2078 <write_application_to_nvm+0x10>
    20c2:	46c0      	nop			; (mov r8, r8)
    20c4:	0000264d 	.word	0x0000264d
    20c8:	00003956 	.word	0x00003956
    20cc:	00001f91 	.word	0x00001f91
    20d0:	00003964 	.word	0x00003964
    20d4:	00001ec1 	.word	0x00001ec1
    20d8:	0000397d 	.word	0x0000397d
    20dc:	00003995 	.word	0x00003995

000020e0 <do_fw_update>:
    20e0:	b530      	push	{r4, r5, lr}
    20e2:	b085      	sub	sp, #20
    20e4:	0005      	movs	r5, r0
    20e6:	4669      	mov	r1, sp
    20e8:	7a40      	ldrb	r0, [r0, #9]
    20ea:	4b0e      	ldr	r3, [pc, #56]	; (2124 <do_fw_update+0x44>)
    20ec:	4798      	blx	r3
    20ee:	1e04      	subs	r4, r0, #0
    20f0:	d108      	bne.n	2104 <do_fw_update+0x24>
    20f2:	9903      	ldr	r1, [sp, #12]
    20f4:	9802      	ldr	r0, [sp, #8]
    20f6:	4b0c      	ldr	r3, [pc, #48]	; (2128 <do_fw_update+0x48>)
    20f8:	4798      	blx	r3
    20fa:	1e04      	subs	r4, r0, #0
    20fc:	d005      	beq.n	210a <do_fw_update+0x2a>
    20fe:	480b      	ldr	r0, [pc, #44]	; (212c <do_fw_update+0x4c>)
    2100:	4b0b      	ldr	r3, [pc, #44]	; (2130 <do_fw_update+0x50>)
    2102:	4798      	blx	r3
    2104:	0020      	movs	r0, r4
    2106:	b005      	add	sp, #20
    2108:	bd30      	pop	{r4, r5, pc}
    210a:	2210      	movs	r2, #16
    210c:	4669      	mov	r1, sp
    210e:	4809      	ldr	r0, [pc, #36]	; (2134 <do_fw_update+0x54>)
    2110:	4b09      	ldr	r3, [pc, #36]	; (2138 <do_fw_update+0x58>)
    2112:	4798      	blx	r3
    2114:	1e04      	subs	r4, r0, #0
    2116:	d1f5      	bne.n	2104 <do_fw_update+0x24>
    2118:	7228      	strb	r0, [r5, #8]
    211a:	4b08      	ldr	r3, [pc, #32]	; (213c <do_fw_update+0x5c>)
    211c:	0028      	movs	r0, r5
    211e:	4798      	blx	r3
    2120:	0004      	movs	r4, r0
    2122:	e7ef      	b.n	2104 <do_fw_update+0x24>
    2124:	00001ff1 	.word	0x00001ff1
    2128:	00002069 	.word	0x00002069
    212c:	00003764 	.word	0x00003764
    2130:	00002741 	.word	0x00002741
    2134:	000003fe 	.word	0x000003fe
    2138:	00001ec1 	.word	0x00001ec1
    213c:	00001f19 	.word	0x00001f19

00002140 <loaded_fw_valid>:
    2140:	b51f      	push	{r0, r1, r2, r3, r4, lr}
    2142:	4b08      	ldr	r3, [pc, #32]	; (2164 <loaded_fw_valid+0x24>)
    2144:	2210      	movs	r2, #16
    2146:	4669      	mov	r1, sp
    2148:	4807      	ldr	r0, [pc, #28]	; (2168 <loaded_fw_valid+0x28>)
    214a:	4798      	blx	r3
    214c:	0003      	movs	r3, r0
    214e:	2001      	movs	r0, #1
    2150:	2b00      	cmp	r3, #0
    2152:	d104      	bne.n	215e <loaded_fw_valid+0x1e>
    2154:	9a03      	ldr	r2, [sp, #12]
    2156:	2140      	movs	r1, #64	; 0x40
    2158:	9801      	ldr	r0, [sp, #4]
    215a:	4b04      	ldr	r3, [pc, #16]	; (216c <loaded_fw_valid+0x2c>)
    215c:	4798      	blx	r3
    215e:	b005      	add	sp, #20
    2160:	bd00      	pop	{pc}
    2162:	46c0      	nop			; (mov r8, r8)
    2164:	00001ea5 	.word	0x00001ea5
    2168:	000003fe 	.word	0x000003fe
    216c:	00002015 	.word	0x00002015

00002170 <main>:
    2170:	b5f0      	push	{r4, r5, r6, r7, lr}
    2172:	4b84      	ldr	r3, [pc, #528]	; (2384 <main+0x214>)
    2174:	b097      	sub	sp, #92	; 0x5c
    2176:	4798      	blx	r3
    2178:	4b83      	ldr	r3, [pc, #524]	; (2388 <main+0x218>)
    217a:	4798      	blx	r3
    217c:	2301      	movs	r3, #1
    217e:	2234      	movs	r2, #52	; 0x34
    2180:	2100      	movs	r1, #0
    2182:	ac06      	add	r4, sp, #24
    2184:	7023      	strb	r3, [r4, #0]
    2186:	74a3      	strb	r3, [r4, #18]
    2188:	74e3      	strb	r3, [r4, #19]
    218a:	ab02      	add	r3, sp, #8
    218c:	189b      	adds	r3, r3, r2
    218e:	7019      	strb	r1, [r3, #0]
    2190:	3a28      	subs	r2, #40	; 0x28
    2192:	4b7e      	ldr	r3, [pc, #504]	; (238c <main+0x21c>)
    2194:	a80c      	add	r0, sp, #48	; 0x30
    2196:	6061      	str	r1, [r4, #4]
    2198:	60a1      	str	r1, [r4, #8]
    219a:	7421      	strb	r1, [r4, #16]
    219c:	7461      	strb	r1, [r4, #17]
    219e:	7521      	strb	r1, [r4, #20]
    21a0:	4798      	blx	r3
    21a2:	4b7b      	ldr	r3, [pc, #492]	; (2390 <main+0x220>)
    21a4:	4e7b      	ldr	r6, [pc, #492]	; (2394 <main+0x224>)
    21a6:	61a3      	str	r3, [r4, #24]
    21a8:	2380      	movs	r3, #128	; 0x80
    21aa:	025b      	lsls	r3, r3, #9
    21ac:	60e3      	str	r3, [r4, #12]
    21ae:	4b7a      	ldr	r3, [pc, #488]	; (2398 <main+0x228>)
    21b0:	0022      	movs	r2, r4
    21b2:	62a3      	str	r3, [r4, #40]	; 0x28
    21b4:	2301      	movs	r3, #1
    21b6:	425b      	negs	r3, r3
    21b8:	62e3      	str	r3, [r4, #44]	; 0x2c
    21ba:	4b78      	ldr	r3, [pc, #480]	; (239c <main+0x22c>)
    21bc:	4978      	ldr	r1, [pc, #480]	; (23a0 <main+0x230>)
    21be:	6323      	str	r3, [r4, #48]	; 0x30
    21c0:	4b78      	ldr	r3, [pc, #480]	; (23a4 <main+0x234>)
    21c2:	0030      	movs	r0, r6
    21c4:	6363      	str	r3, [r4, #52]	; 0x34
    21c6:	4b78      	ldr	r3, [pc, #480]	; (23a8 <main+0x238>)
    21c8:	4798      	blx	r3
    21ca:	2800      	cmp	r0, #0
    21cc:	d002      	beq.n	21d4 <main+0x64>
    21ce:	4877      	ldr	r0, [pc, #476]	; (23ac <main+0x23c>)
    21d0:	4b77      	ldr	r3, [pc, #476]	; (23b0 <main+0x240>)
    21d2:	4798      	blx	r3
    21d4:	6835      	ldr	r5, [r6, #0]
    21d6:	4b77      	ldr	r3, [pc, #476]	; (23b4 <main+0x244>)
    21d8:	0028      	movs	r0, r5
    21da:	4798      	blx	r3
    21dc:	231f      	movs	r3, #31
    21de:	4018      	ands	r0, r3
    21e0:	3b1e      	subs	r3, #30
    21e2:	4083      	lsls	r3, r0
    21e4:	4a74      	ldr	r2, [pc, #464]	; (23b8 <main+0x248>)
    21e6:	6013      	str	r3, [r2, #0]
    21e8:	6833      	ldr	r3, [r6, #0]
    21ea:	9201      	str	r2, [sp, #4]
    21ec:	69df      	ldr	r7, [r3, #28]
    21ee:	2f00      	cmp	r7, #0
    21f0:	d1fc      	bne.n	21ec <main+0x7c>
    21f2:	2302      	movs	r3, #2
    21f4:	682a      	ldr	r2, [r5, #0]
    21f6:	4e71      	ldr	r6, [pc, #452]	; (23bc <main+0x24c>)
    21f8:	4313      	orrs	r3, r2
    21fa:	602b      	str	r3, [r5, #0]
    21fc:	2304      	movs	r3, #4
    21fe:	2201      	movs	r2, #1
    2200:	7133      	strb	r3, [r6, #4]
    2202:	4b64      	ldr	r3, [pc, #400]	; (2394 <main+0x224>)
    2204:	2007      	movs	r0, #7
    2206:	6033      	str	r3, [r6, #0]
    2208:	ab02      	add	r3, sp, #8
    220a:	705a      	strb	r2, [r3, #1]
    220c:	2201      	movs	r2, #1
    220e:	709f      	strb	r7, [r3, #2]
    2210:	701a      	strb	r2, [r3, #0]
    2212:	0019      	movs	r1, r3
    2214:	4b6a      	ldr	r3, [pc, #424]	; (23c0 <main+0x250>)
    2216:	7170      	strb	r0, [r6, #5]
    2218:	4798      	blx	r3
    221a:	7972      	ldrb	r2, [r6, #5]
    221c:	0953      	lsrs	r3, r2, #5
    221e:	09d5      	lsrs	r5, r2, #7
    2220:	d000      	beq.n	2224 <main+0xb4>
    2222:	e0ad      	b.n	2380 <main+0x210>
    2224:	211f      	movs	r1, #31
    2226:	400a      	ands	r2, r1
    2228:	391e      	subs	r1, #30
    222a:	4091      	lsls	r1, r2
    222c:	000a      	movs	r2, r1
    222e:	4965      	ldr	r1, [pc, #404]	; (23c4 <main+0x254>)
    2230:	01db      	lsls	r3, r3, #7
    2232:	185b      	adds	r3, r3, r1
    2234:	619a      	str	r2, [r3, #24]
    2236:	0030      	movs	r0, r6
    2238:	4b63      	ldr	r3, [pc, #396]	; (23c8 <main+0x258>)
    223a:	4798      	blx	r3
    223c:	0030      	movs	r0, r6
    223e:	4b63      	ldr	r3, [pc, #396]	; (23cc <main+0x25c>)
    2240:	4798      	blx	r3
    2242:	4b63      	ldr	r3, [pc, #396]	; (23d0 <main+0x260>)
    2244:	a802      	add	r0, sp, #8
    2246:	4798      	blx	r3
    2248:	2380      	movs	r3, #128	; 0x80
    224a:	05db      	lsls	r3, r3, #23
    224c:	9306      	str	r3, [sp, #24]
    224e:	23ff      	movs	r3, #255	; 0xff
    2250:	2234      	movs	r2, #52	; 0x34
    2252:	8123      	strh	r3, [r4, #8]
    2254:	ab02      	add	r3, sp, #8
    2256:	189b      	adds	r3, r3, r2
    2258:	3a33      	subs	r2, #51	; 0x33
    225a:	701a      	strb	r2, [r3, #0]
    225c:	2316      	movs	r3, #22
    225e:	aa02      	add	r2, sp, #8
    2260:	189b      	adds	r3, r3, r2
    2262:	2201      	movs	r2, #1
    2264:	77da      	strb	r2, [r3, #31]
    2266:	2317      	movs	r3, #23
    2268:	aa02      	add	r2, sp, #8
    226a:	189b      	adds	r3, r3, r2
    226c:	77dd      	strb	r5, [r3, #31]
    226e:	ab08      	add	r3, sp, #32
    2270:	77dd      	strb	r5, [r3, #31]
    2272:	ab11      	add	r3, sp, #68	; 0x44
    2274:	701d      	strb	r5, [r3, #0]
    2276:	233d      	movs	r3, #61	; 0x3d
    2278:	189b      	adds	r3, r3, r2
    227a:	701d      	strb	r5, [r3, #0]
    227c:	2313      	movs	r3, #19
    227e:	76a3      	strb	r3, [r4, #26]
    2280:	23c4      	movs	r3, #196	; 0xc4
    2282:	039b      	lsls	r3, r3, #14
    2284:	60e3      	str	r3, [r4, #12]
    2286:	2301      	movs	r3, #1
    2288:	425b      	negs	r3, r3
    228a:	6323      	str	r3, [r4, #48]	; 0x30
    228c:	6363      	str	r3, [r4, #52]	; 0x34
    228e:	4b51      	ldr	r3, [pc, #324]	; (23d4 <main+0x264>)
    2290:	4e51      	ldr	r6, [pc, #324]	; (23d8 <main+0x268>)
    2292:	63a3      	str	r3, [r4, #56]	; 0x38
    2294:	4b51      	ldr	r3, [pc, #324]	; (23dc <main+0x26c>)
    2296:	4a52      	ldr	r2, [pc, #328]	; (23e0 <main+0x270>)
    2298:	63e3      	str	r3, [r4, #60]	; 0x3c
    229a:	23e1      	movs	r3, #225	; 0xe1
    229c:	025b      	lsls	r3, r3, #9
    229e:	6223      	str	r3, [r4, #32]
    22a0:	4b50      	ldr	r3, [pc, #320]	; (23e4 <main+0x274>)
    22a2:	6065      	str	r5, [r4, #4]
    22a4:	601e      	str	r6, [r3, #0]
    22a6:	4b50      	ldr	r3, [pc, #320]	; (23e8 <main+0x278>)
    22a8:	72a5      	strb	r5, [r4, #10]
    22aa:	72e5      	strb	r5, [r4, #11]
    22ac:	62a5      	str	r5, [r4, #40]	; 0x28
    22ae:	6165      	str	r5, [r4, #20]
    22b0:	8225      	strh	r5, [r4, #16]
    22b2:	76e5      	strb	r5, [r4, #27]
    22b4:	7625      	strb	r5, [r4, #24]
    22b6:	7725      	strb	r5, [r4, #28]
    22b8:	7665      	strb	r5, [r4, #25]
    22ba:	7765      	strb	r5, [r4, #29]
    22bc:	601a      	str	r2, [r3, #0]
    22be:	4a4b      	ldr	r2, [pc, #300]	; (23ec <main+0x27c>)
    22c0:	4b4b      	ldr	r3, [pc, #300]	; (23f0 <main+0x280>)
    22c2:	494c      	ldr	r1, [pc, #304]	; (23f4 <main+0x284>)
    22c4:	601a      	str	r2, [r3, #0]
    22c6:	0030      	movs	r0, r6
    22c8:	0022      	movs	r2, r4
    22ca:	4b4b      	ldr	r3, [pc, #300]	; (23f8 <main+0x288>)
    22cc:	4798      	blx	r3
    22ce:	4f4b      	ldr	r7, [pc, #300]	; (23fc <main+0x28c>)
    22d0:	4c4b      	ldr	r4, [pc, #300]	; (2400 <main+0x290>)
    22d2:	683b      	ldr	r3, [r7, #0]
    22d4:	0029      	movs	r1, r5
    22d6:	6898      	ldr	r0, [r3, #8]
    22d8:	47a0      	blx	r4
    22da:	683b      	ldr	r3, [r7, #0]
    22dc:	0029      	movs	r1, r5
    22de:	6858      	ldr	r0, [r3, #4]
    22e0:	47a0      	blx	r4
    22e2:	6834      	ldr	r4, [r6, #0]
    22e4:	4b33      	ldr	r3, [pc, #204]	; (23b4 <main+0x244>)
    22e6:	0020      	movs	r0, r4
    22e8:	4798      	blx	r3
    22ea:	231f      	movs	r3, #31
    22ec:	4018      	ands	r0, r3
    22ee:	3b1e      	subs	r3, #30
    22f0:	4083      	lsls	r3, r0
    22f2:	9a01      	ldr	r2, [sp, #4]
    22f4:	6013      	str	r3, [r2, #0]
    22f6:	6832      	ldr	r2, [r6, #0]
    22f8:	69d3      	ldr	r3, [r2, #28]
    22fa:	2b00      	cmp	r3, #0
    22fc:	d1fc      	bne.n	22f8 <main+0x188>
    22fe:	6822      	ldr	r2, [r4, #0]
    2300:	3302      	adds	r3, #2
    2302:	4313      	orrs	r3, r2
    2304:	6023      	str	r3, [r4, #0]
    2306:	483f      	ldr	r0, [pc, #252]	; (2404 <main+0x294>)
    2308:	4c29      	ldr	r4, [pc, #164]	; (23b0 <main+0x240>)
    230a:	47a0      	blx	r4
    230c:	4a3e      	ldr	r2, [pc, #248]	; (2408 <main+0x298>)
    230e:	493f      	ldr	r1, [pc, #252]	; (240c <main+0x29c>)
    2310:	483f      	ldr	r0, [pc, #252]	; (2410 <main+0x2a0>)
    2312:	4d40      	ldr	r5, [pc, #256]	; (2414 <main+0x2a4>)
    2314:	47a8      	blx	r5
    2316:	4840      	ldr	r0, [pc, #256]	; (2418 <main+0x2a8>)
    2318:	47a0      	blx	r4
    231a:	a802      	add	r0, sp, #8
    231c:	4b3f      	ldr	r3, [pc, #252]	; (241c <main+0x2ac>)
    231e:	4798      	blx	r3
    2320:	2800      	cmp	r0, #0
    2322:	d114      	bne.n	234e <main+0x1de>
    2324:	483e      	ldr	r0, [pc, #248]	; (2420 <main+0x2b0>)
    2326:	47a0      	blx	r4
    2328:	483e      	ldr	r0, [pc, #248]	; (2424 <main+0x2b4>)
    232a:	47a0      	blx	r4
    232c:	4b3e      	ldr	r3, [pc, #248]	; (2428 <main+0x2b8>)
    232e:	4798      	blx	r3
    2330:	4d3e      	ldr	r5, [pc, #248]	; (242c <main+0x2bc>)
    2332:	2800      	cmp	r0, #0
    2334:	d008      	beq.n	2348 <main+0x1d8>
    2336:	483e      	ldr	r0, [pc, #248]	; (2430 <main+0x2c0>)
    2338:	47a0      	blx	r4
    233a:	a802      	add	r0, sp, #8
    233c:	4b3d      	ldr	r3, [pc, #244]	; (2434 <main+0x2c4>)
    233e:	4798      	blx	r3
    2340:	a802      	add	r0, sp, #8
    2342:	4b3d      	ldr	r3, [pc, #244]	; (2438 <main+0x2c8>)
    2344:	4798      	blx	r3
    2346:	47a8      	blx	r5
    2348:	483c      	ldr	r0, [pc, #240]	; (243c <main+0x2cc>)
    234a:	47a0      	blx	r4
    234c:	e7fb      	b.n	2346 <main+0x1d6>
    234e:	483c      	ldr	r0, [pc, #240]	; (2440 <main+0x2d0>)
    2350:	47a0      	blx	r4
    2352:	ab02      	add	r3, sp, #8
    2354:	7a1b      	ldrb	r3, [r3, #8]
    2356:	2bff      	cmp	r3, #255	; 0xff
    2358:	d10d      	bne.n	2376 <main+0x206>
    235a:	483a      	ldr	r0, [pc, #232]	; (2444 <main+0x2d4>)
    235c:	47a0      	blx	r4
    235e:	a802      	add	r0, sp, #8
    2360:	4b39      	ldr	r3, [pc, #228]	; (2448 <main+0x2d8>)
    2362:	4798      	blx	r3
    2364:	2800      	cmp	r0, #0
    2366:	d002      	beq.n	236e <main+0x1fe>
    2368:	4838      	ldr	r0, [pc, #224]	; (244c <main+0x2dc>)
    236a:	47a8      	blx	r5
    236c:	e7fe      	b.n	236c <main+0x1fc>
    236e:	4838      	ldr	r0, [pc, #224]	; (2450 <main+0x2e0>)
    2370:	47a0      	blx	r4
    2372:	4b2e      	ldr	r3, [pc, #184]	; (242c <main+0x2bc>)
    2374:	4798      	blx	r3
    2376:	4837      	ldr	r0, [pc, #220]	; (2454 <main+0x2e4>)
    2378:	47a0      	blx	r4
    237a:	4b37      	ldr	r3, [pc, #220]	; (2458 <main+0x2e8>)
    237c:	4798      	blx	r3
    237e:	e7fe      	b.n	237e <main+0x20e>
    2380:	61bf      	str	r7, [r7, #24]
    2382:	deff      	udf	#255	; 0xff
    2384:	00001c09 	.word	0x00001c09
    2388:	00001df1 	.word	0x00001df1
    238c:	0000263d 	.word	0x0000263d
    2390:	0001d4c0 	.word	0x0001d4c0
    2394:	20000138 	.word	0x20000138
    2398:	00100002 	.word	0x00100002
    239c:	00120002 	.word	0x00120002
    23a0:	42000c00 	.word	0x42000c00
    23a4:	00130002 	.word	0x00130002
    23a8:	00000b59 	.word	0x00000b59
    23ac:	00003788 	.word	0x00003788
    23b0:	00002741 	.word	0x00002741
    23b4:	00000a51 	.word	0x00000a51
    23b8:	e000e100 	.word	0xe000e100
    23bc:	20000130 	.word	0x20000130
    23c0:	00000691 	.word	0x00000691
    23c4:	41004400 	.word	0x41004400
    23c8:	00000299 	.word	0x00000299
    23cc:	00000269 	.word	0x00000269
    23d0:	00001f01 	.word	0x00001f01
    23d4:	002a0003 	.word	0x002a0003
    23d8:	200000c8 	.word	0x200000c8
    23dc:	002b0003 	.word	0x002b0003
    23e0:	00001dd9 	.word	0x00001dd9
    23e4:	2000012c 	.word	0x2000012c
    23e8:	20000128 	.word	0x20000128
    23ec:	00001db5 	.word	0x00001db5
    23f0:	20000124 	.word	0x20000124
    23f4:	42001800 	.word	0x42001800
    23f8:	0000121d 	.word	0x0000121d
    23fc:	20000004 	.word	0x20000004
    2400:	00002755 	.word	0x00002755
    2404:	000037b0 	.word	0x000037b0
    2408:	000037d1 	.word	0x000037d1
    240c:	000037dd 	.word	0x000037dd
    2410:	000037e6 	.word	0x000037e6
    2414:	0000264d 	.word	0x0000264d
    2418:	000037f7 	.word	0x000037f7
    241c:	00001f59 	.word	0x00001f59
    2420:	00003810 	.word	0x00003810
    2424:	00003848 	.word	0x00003848
    2428:	00002141 	.word	0x00002141
    242c:	00001f7d 	.word	0x00001f7d
    2430:	00003865 	.word	0x00003865
    2434:	00001f31 	.word	0x00001f31
    2438:	00001f19 	.word	0x00001f19
    243c:	0000389a 	.word	0x0000389a
    2440:	000038c7 	.word	0x000038c7
    2444:	000038de 	.word	0x000038de
    2448:	000020e1 	.word	0x000020e1
    244c:	00003901 	.word	0x00003901
    2450:	00003913 	.word	0x00003913
    2454:	00003930 	.word	0x00003930
    2458:	00001e1d 	.word	0x00001e1d

0000245c <__gnu_thumb1_case_uqi>:
    245c:	b402      	push	{r1}
    245e:	4671      	mov	r1, lr
    2460:	0849      	lsrs	r1, r1, #1
    2462:	0049      	lsls	r1, r1, #1
    2464:	5c09      	ldrb	r1, [r1, r0]
    2466:	0049      	lsls	r1, r1, #1
    2468:	448e      	add	lr, r1
    246a:	bc02      	pop	{r1}
    246c:	4770      	bx	lr
    246e:	46c0      	nop			; (mov r8, r8)

00002470 <__udivsi3>:
    2470:	2200      	movs	r2, #0
    2472:	0843      	lsrs	r3, r0, #1
    2474:	428b      	cmp	r3, r1
    2476:	d374      	bcc.n	2562 <__udivsi3+0xf2>
    2478:	0903      	lsrs	r3, r0, #4
    247a:	428b      	cmp	r3, r1
    247c:	d35f      	bcc.n	253e <__udivsi3+0xce>
    247e:	0a03      	lsrs	r3, r0, #8
    2480:	428b      	cmp	r3, r1
    2482:	d344      	bcc.n	250e <__udivsi3+0x9e>
    2484:	0b03      	lsrs	r3, r0, #12
    2486:	428b      	cmp	r3, r1
    2488:	d328      	bcc.n	24dc <__udivsi3+0x6c>
    248a:	0c03      	lsrs	r3, r0, #16
    248c:	428b      	cmp	r3, r1
    248e:	d30d      	bcc.n	24ac <__udivsi3+0x3c>
    2490:	22ff      	movs	r2, #255	; 0xff
    2492:	0209      	lsls	r1, r1, #8
    2494:	ba12      	rev	r2, r2
    2496:	0c03      	lsrs	r3, r0, #16
    2498:	428b      	cmp	r3, r1
    249a:	d302      	bcc.n	24a2 <__udivsi3+0x32>
    249c:	1212      	asrs	r2, r2, #8
    249e:	0209      	lsls	r1, r1, #8
    24a0:	d065      	beq.n	256e <__udivsi3+0xfe>
    24a2:	0b03      	lsrs	r3, r0, #12
    24a4:	428b      	cmp	r3, r1
    24a6:	d319      	bcc.n	24dc <__udivsi3+0x6c>
    24a8:	e000      	b.n	24ac <__udivsi3+0x3c>
    24aa:	0a09      	lsrs	r1, r1, #8
    24ac:	0bc3      	lsrs	r3, r0, #15
    24ae:	428b      	cmp	r3, r1
    24b0:	d301      	bcc.n	24b6 <__udivsi3+0x46>
    24b2:	03cb      	lsls	r3, r1, #15
    24b4:	1ac0      	subs	r0, r0, r3
    24b6:	4152      	adcs	r2, r2
    24b8:	0b83      	lsrs	r3, r0, #14
    24ba:	428b      	cmp	r3, r1
    24bc:	d301      	bcc.n	24c2 <__udivsi3+0x52>
    24be:	038b      	lsls	r3, r1, #14
    24c0:	1ac0      	subs	r0, r0, r3
    24c2:	4152      	adcs	r2, r2
    24c4:	0b43      	lsrs	r3, r0, #13
    24c6:	428b      	cmp	r3, r1
    24c8:	d301      	bcc.n	24ce <__udivsi3+0x5e>
    24ca:	034b      	lsls	r3, r1, #13
    24cc:	1ac0      	subs	r0, r0, r3
    24ce:	4152      	adcs	r2, r2
    24d0:	0b03      	lsrs	r3, r0, #12
    24d2:	428b      	cmp	r3, r1
    24d4:	d301      	bcc.n	24da <__udivsi3+0x6a>
    24d6:	030b      	lsls	r3, r1, #12
    24d8:	1ac0      	subs	r0, r0, r3
    24da:	4152      	adcs	r2, r2
    24dc:	0ac3      	lsrs	r3, r0, #11
    24de:	428b      	cmp	r3, r1
    24e0:	d301      	bcc.n	24e6 <__udivsi3+0x76>
    24e2:	02cb      	lsls	r3, r1, #11
    24e4:	1ac0      	subs	r0, r0, r3
    24e6:	4152      	adcs	r2, r2
    24e8:	0a83      	lsrs	r3, r0, #10
    24ea:	428b      	cmp	r3, r1
    24ec:	d301      	bcc.n	24f2 <__udivsi3+0x82>
    24ee:	028b      	lsls	r3, r1, #10
    24f0:	1ac0      	subs	r0, r0, r3
    24f2:	4152      	adcs	r2, r2
    24f4:	0a43      	lsrs	r3, r0, #9
    24f6:	428b      	cmp	r3, r1
    24f8:	d301      	bcc.n	24fe <__udivsi3+0x8e>
    24fa:	024b      	lsls	r3, r1, #9
    24fc:	1ac0      	subs	r0, r0, r3
    24fe:	4152      	adcs	r2, r2
    2500:	0a03      	lsrs	r3, r0, #8
    2502:	428b      	cmp	r3, r1
    2504:	d301      	bcc.n	250a <__udivsi3+0x9a>
    2506:	020b      	lsls	r3, r1, #8
    2508:	1ac0      	subs	r0, r0, r3
    250a:	4152      	adcs	r2, r2
    250c:	d2cd      	bcs.n	24aa <__udivsi3+0x3a>
    250e:	09c3      	lsrs	r3, r0, #7
    2510:	428b      	cmp	r3, r1
    2512:	d301      	bcc.n	2518 <__udivsi3+0xa8>
    2514:	01cb      	lsls	r3, r1, #7
    2516:	1ac0      	subs	r0, r0, r3
    2518:	4152      	adcs	r2, r2
    251a:	0983      	lsrs	r3, r0, #6
    251c:	428b      	cmp	r3, r1
    251e:	d301      	bcc.n	2524 <__udivsi3+0xb4>
    2520:	018b      	lsls	r3, r1, #6
    2522:	1ac0      	subs	r0, r0, r3
    2524:	4152      	adcs	r2, r2
    2526:	0943      	lsrs	r3, r0, #5
    2528:	428b      	cmp	r3, r1
    252a:	d301      	bcc.n	2530 <__udivsi3+0xc0>
    252c:	014b      	lsls	r3, r1, #5
    252e:	1ac0      	subs	r0, r0, r3
    2530:	4152      	adcs	r2, r2
    2532:	0903      	lsrs	r3, r0, #4
    2534:	428b      	cmp	r3, r1
    2536:	d301      	bcc.n	253c <__udivsi3+0xcc>
    2538:	010b      	lsls	r3, r1, #4
    253a:	1ac0      	subs	r0, r0, r3
    253c:	4152      	adcs	r2, r2
    253e:	08c3      	lsrs	r3, r0, #3
    2540:	428b      	cmp	r3, r1
    2542:	d301      	bcc.n	2548 <__udivsi3+0xd8>
    2544:	00cb      	lsls	r3, r1, #3
    2546:	1ac0      	subs	r0, r0, r3
    2548:	4152      	adcs	r2, r2
    254a:	0883      	lsrs	r3, r0, #2
    254c:	428b      	cmp	r3, r1
    254e:	d301      	bcc.n	2554 <__udivsi3+0xe4>
    2550:	008b      	lsls	r3, r1, #2
    2552:	1ac0      	subs	r0, r0, r3
    2554:	4152      	adcs	r2, r2
    2556:	0843      	lsrs	r3, r0, #1
    2558:	428b      	cmp	r3, r1
    255a:	d301      	bcc.n	2560 <__udivsi3+0xf0>
    255c:	004b      	lsls	r3, r1, #1
    255e:	1ac0      	subs	r0, r0, r3
    2560:	4152      	adcs	r2, r2
    2562:	1a41      	subs	r1, r0, r1
    2564:	d200      	bcs.n	2568 <__udivsi3+0xf8>
    2566:	4601      	mov	r1, r0
    2568:	4152      	adcs	r2, r2
    256a:	4610      	mov	r0, r2
    256c:	4770      	bx	lr
    256e:	e7ff      	b.n	2570 <__udivsi3+0x100>
    2570:	b501      	push	{r0, lr}
    2572:	2000      	movs	r0, #0
    2574:	f000 f806 	bl	2584 <__aeabi_idiv0>
    2578:	bd02      	pop	{r1, pc}
    257a:	46c0      	nop			; (mov r8, r8)

0000257c <__aeabi_uidivmod>:
    257c:	2900      	cmp	r1, #0
    257e:	d0f7      	beq.n	2570 <__udivsi3+0x100>
    2580:	e776      	b.n	2470 <__udivsi3>
    2582:	4770      	bx	lr

00002584 <__aeabi_idiv0>:
    2584:	4770      	bx	lr
    2586:	46c0      	nop			; (mov r8, r8)

00002588 <__aeabi_llsl>:
    2588:	4091      	lsls	r1, r2
    258a:	1c03      	adds	r3, r0, #0
    258c:	4090      	lsls	r0, r2
    258e:	469c      	mov	ip, r3
    2590:	3a20      	subs	r2, #32
    2592:	4093      	lsls	r3, r2
    2594:	4319      	orrs	r1, r3
    2596:	4252      	negs	r2, r2
    2598:	4663      	mov	r3, ip
    259a:	40d3      	lsrs	r3, r2
    259c:	4319      	orrs	r1, r3
    259e:	4770      	bx	lr

000025a0 <__aeabi_lmul>:
    25a0:	b5f0      	push	{r4, r5, r6, r7, lr}
    25a2:	46ce      	mov	lr, r9
    25a4:	4647      	mov	r7, r8
    25a6:	0415      	lsls	r5, r2, #16
    25a8:	0c2d      	lsrs	r5, r5, #16
    25aa:	002e      	movs	r6, r5
    25ac:	b580      	push	{r7, lr}
    25ae:	0407      	lsls	r7, r0, #16
    25b0:	0c14      	lsrs	r4, r2, #16
    25b2:	0c3f      	lsrs	r7, r7, #16
    25b4:	4699      	mov	r9, r3
    25b6:	0c03      	lsrs	r3, r0, #16
    25b8:	437e      	muls	r6, r7
    25ba:	435d      	muls	r5, r3
    25bc:	4367      	muls	r7, r4
    25be:	4363      	muls	r3, r4
    25c0:	197f      	adds	r7, r7, r5
    25c2:	0c34      	lsrs	r4, r6, #16
    25c4:	19e4      	adds	r4, r4, r7
    25c6:	469c      	mov	ip, r3
    25c8:	42a5      	cmp	r5, r4
    25ca:	d903      	bls.n	25d4 <__aeabi_lmul+0x34>
    25cc:	2380      	movs	r3, #128	; 0x80
    25ce:	025b      	lsls	r3, r3, #9
    25d0:	4698      	mov	r8, r3
    25d2:	44c4      	add	ip, r8
    25d4:	464b      	mov	r3, r9
    25d6:	4351      	muls	r1, r2
    25d8:	4343      	muls	r3, r0
    25da:	0436      	lsls	r6, r6, #16
    25dc:	0c36      	lsrs	r6, r6, #16
    25de:	0c25      	lsrs	r5, r4, #16
    25e0:	0424      	lsls	r4, r4, #16
    25e2:	4465      	add	r5, ip
    25e4:	19a4      	adds	r4, r4, r6
    25e6:	1859      	adds	r1, r3, r1
    25e8:	1949      	adds	r1, r1, r5
    25ea:	0020      	movs	r0, r4
    25ec:	bc0c      	pop	{r2, r3}
    25ee:	4690      	mov	r8, r2
    25f0:	4699      	mov	r9, r3
    25f2:	bdf0      	pop	{r4, r5, r6, r7, pc}

000025f4 <__libc_init_array>:
    25f4:	b570      	push	{r4, r5, r6, lr}
    25f6:	2600      	movs	r6, #0
    25f8:	4d0c      	ldr	r5, [pc, #48]	; (262c <__libc_init_array+0x38>)
    25fa:	4c0d      	ldr	r4, [pc, #52]	; (2630 <__libc_init_array+0x3c>)
    25fc:	1b64      	subs	r4, r4, r5
    25fe:	10a4      	asrs	r4, r4, #2
    2600:	42a6      	cmp	r6, r4
    2602:	d109      	bne.n	2618 <__libc_init_array+0x24>
    2604:	2600      	movs	r6, #0
    2606:	f001 fa15 	bl	3a34 <_init>
    260a:	4d0a      	ldr	r5, [pc, #40]	; (2634 <__libc_init_array+0x40>)
    260c:	4c0a      	ldr	r4, [pc, #40]	; (2638 <__libc_init_array+0x44>)
    260e:	1b64      	subs	r4, r4, r5
    2610:	10a4      	asrs	r4, r4, #2
    2612:	42a6      	cmp	r6, r4
    2614:	d105      	bne.n	2622 <__libc_init_array+0x2e>
    2616:	bd70      	pop	{r4, r5, r6, pc}
    2618:	00b3      	lsls	r3, r6, #2
    261a:	58eb      	ldr	r3, [r5, r3]
    261c:	4798      	blx	r3
    261e:	3601      	adds	r6, #1
    2620:	e7ee      	b.n	2600 <__libc_init_array+0xc>
    2622:	00b3      	lsls	r3, r6, #2
    2624:	58eb      	ldr	r3, [r5, r3]
    2626:	4798      	blx	r3
    2628:	3601      	adds	r6, #1
    262a:	e7f2      	b.n	2612 <__libc_init_array+0x1e>
    262c:	00003a40 	.word	0x00003a40
    2630:	00003a40 	.word	0x00003a40
    2634:	00003a40 	.word	0x00003a40
    2638:	00003a44 	.word	0x00003a44

0000263c <memset>:
    263c:	0003      	movs	r3, r0
    263e:	1882      	adds	r2, r0, r2
    2640:	4293      	cmp	r3, r2
    2642:	d100      	bne.n	2646 <memset+0xa>
    2644:	4770      	bx	lr
    2646:	7019      	strb	r1, [r3, #0]
    2648:	3301      	adds	r3, #1
    264a:	e7f9      	b.n	2640 <memset+0x4>

0000264c <iprintf>:
    264c:	b40f      	push	{r0, r1, r2, r3}
    264e:	4b0b      	ldr	r3, [pc, #44]	; (267c <iprintf+0x30>)
    2650:	b513      	push	{r0, r1, r4, lr}
    2652:	681c      	ldr	r4, [r3, #0]
    2654:	2c00      	cmp	r4, #0
    2656:	d005      	beq.n	2664 <iprintf+0x18>
    2658:	69a3      	ldr	r3, [r4, #24]
    265a:	2b00      	cmp	r3, #0
    265c:	d102      	bne.n	2664 <iprintf+0x18>
    265e:	0020      	movs	r0, r4
    2660:	f000 faf2 	bl	2c48 <__sinit>
    2664:	ab05      	add	r3, sp, #20
    2666:	9a04      	ldr	r2, [sp, #16]
    2668:	68a1      	ldr	r1, [r4, #8]
    266a:	0020      	movs	r0, r4
    266c:	9301      	str	r3, [sp, #4]
    266e:	f000 fcc7 	bl	3000 <_vfiprintf_r>
    2672:	bc16      	pop	{r1, r2, r4}
    2674:	bc08      	pop	{r3}
    2676:	b004      	add	sp, #16
    2678:	4718      	bx	r3
    267a:	46c0      	nop			; (mov r8, r8)
    267c:	20000004 	.word	0x20000004

00002680 <_puts_r>:
    2680:	b570      	push	{r4, r5, r6, lr}
    2682:	0005      	movs	r5, r0
    2684:	000e      	movs	r6, r1
    2686:	2800      	cmp	r0, #0
    2688:	d004      	beq.n	2694 <_puts_r+0x14>
    268a:	6983      	ldr	r3, [r0, #24]
    268c:	2b00      	cmp	r3, #0
    268e:	d101      	bne.n	2694 <_puts_r+0x14>
    2690:	f000 fada 	bl	2c48 <__sinit>
    2694:	69ab      	ldr	r3, [r5, #24]
    2696:	68ac      	ldr	r4, [r5, #8]
    2698:	2b00      	cmp	r3, #0
    269a:	d102      	bne.n	26a2 <_puts_r+0x22>
    269c:	0028      	movs	r0, r5
    269e:	f000 fad3 	bl	2c48 <__sinit>
    26a2:	4b24      	ldr	r3, [pc, #144]	; (2734 <_puts_r+0xb4>)
    26a4:	429c      	cmp	r4, r3
    26a6:	d10f      	bne.n	26c8 <_puts_r+0x48>
    26a8:	686c      	ldr	r4, [r5, #4]
    26aa:	89a3      	ldrh	r3, [r4, #12]
    26ac:	071b      	lsls	r3, r3, #28
    26ae:	d502      	bpl.n	26b6 <_puts_r+0x36>
    26b0:	6923      	ldr	r3, [r4, #16]
    26b2:	2b00      	cmp	r3, #0
    26b4:	d120      	bne.n	26f8 <_puts_r+0x78>
    26b6:	0021      	movs	r1, r4
    26b8:	0028      	movs	r0, r5
    26ba:	f000 f957 	bl	296c <__swsetup_r>
    26be:	2800      	cmp	r0, #0
    26c0:	d01a      	beq.n	26f8 <_puts_r+0x78>
    26c2:	2001      	movs	r0, #1
    26c4:	4240      	negs	r0, r0
    26c6:	bd70      	pop	{r4, r5, r6, pc}
    26c8:	4b1b      	ldr	r3, [pc, #108]	; (2738 <_puts_r+0xb8>)
    26ca:	429c      	cmp	r4, r3
    26cc:	d101      	bne.n	26d2 <_puts_r+0x52>
    26ce:	68ac      	ldr	r4, [r5, #8]
    26d0:	e7eb      	b.n	26aa <_puts_r+0x2a>
    26d2:	4b1a      	ldr	r3, [pc, #104]	; (273c <_puts_r+0xbc>)
    26d4:	429c      	cmp	r4, r3
    26d6:	d1e8      	bne.n	26aa <_puts_r+0x2a>
    26d8:	68ec      	ldr	r4, [r5, #12]
    26da:	e7e6      	b.n	26aa <_puts_r+0x2a>
    26dc:	3b01      	subs	r3, #1
    26de:	3601      	adds	r6, #1
    26e0:	60a3      	str	r3, [r4, #8]
    26e2:	2b00      	cmp	r3, #0
    26e4:	da04      	bge.n	26f0 <_puts_r+0x70>
    26e6:	69a2      	ldr	r2, [r4, #24]
    26e8:	4293      	cmp	r3, r2
    26ea:	db16      	blt.n	271a <_puts_r+0x9a>
    26ec:	290a      	cmp	r1, #10
    26ee:	d014      	beq.n	271a <_puts_r+0x9a>
    26f0:	6823      	ldr	r3, [r4, #0]
    26f2:	1c5a      	adds	r2, r3, #1
    26f4:	6022      	str	r2, [r4, #0]
    26f6:	7019      	strb	r1, [r3, #0]
    26f8:	7831      	ldrb	r1, [r6, #0]
    26fa:	68a3      	ldr	r3, [r4, #8]
    26fc:	2900      	cmp	r1, #0
    26fe:	d1ed      	bne.n	26dc <_puts_r+0x5c>
    2700:	3b01      	subs	r3, #1
    2702:	60a3      	str	r3, [r4, #8]
    2704:	2b00      	cmp	r3, #0
    2706:	da0f      	bge.n	2728 <_puts_r+0xa8>
    2708:	0022      	movs	r2, r4
    270a:	310a      	adds	r1, #10
    270c:	0028      	movs	r0, r5
    270e:	f000 f8d7 	bl	28c0 <__swbuf_r>
    2712:	1c43      	adds	r3, r0, #1
    2714:	d0d5      	beq.n	26c2 <_puts_r+0x42>
    2716:	200a      	movs	r0, #10
    2718:	e7d5      	b.n	26c6 <_puts_r+0x46>
    271a:	0022      	movs	r2, r4
    271c:	0028      	movs	r0, r5
    271e:	f000 f8cf 	bl	28c0 <__swbuf_r>
    2722:	1c43      	adds	r3, r0, #1
    2724:	d1e8      	bne.n	26f8 <_puts_r+0x78>
    2726:	e7cc      	b.n	26c2 <_puts_r+0x42>
    2728:	200a      	movs	r0, #10
    272a:	6823      	ldr	r3, [r4, #0]
    272c:	1c5a      	adds	r2, r3, #1
    272e:	6022      	str	r2, [r4, #0]
    2730:	7018      	strb	r0, [r3, #0]
    2732:	e7c8      	b.n	26c6 <_puts_r+0x46>
    2734:	000039c0 	.word	0x000039c0
    2738:	000039e0 	.word	0x000039e0
    273c:	000039a0 	.word	0x000039a0

00002740 <puts>:
    2740:	b510      	push	{r4, lr}
    2742:	4b03      	ldr	r3, [pc, #12]	; (2750 <puts+0x10>)
    2744:	0001      	movs	r1, r0
    2746:	6818      	ldr	r0, [r3, #0]
    2748:	f7ff ff9a 	bl	2680 <_puts_r>
    274c:	bd10      	pop	{r4, pc}
    274e:	46c0      	nop			; (mov r8, r8)
    2750:	20000004 	.word	0x20000004

00002754 <setbuf>:
    2754:	424a      	negs	r2, r1
    2756:	414a      	adcs	r2, r1
    2758:	2380      	movs	r3, #128	; 0x80
    275a:	b510      	push	{r4, lr}
    275c:	0052      	lsls	r2, r2, #1
    275e:	00db      	lsls	r3, r3, #3
    2760:	f000 f802 	bl	2768 <setvbuf>
    2764:	bd10      	pop	{r4, pc}
	...

00002768 <setvbuf>:
    2768:	b5f0      	push	{r4, r5, r6, r7, lr}
    276a:	001d      	movs	r5, r3
    276c:	4b4f      	ldr	r3, [pc, #316]	; (28ac <setvbuf+0x144>)
    276e:	b085      	sub	sp, #20
    2770:	681e      	ldr	r6, [r3, #0]
    2772:	0004      	movs	r4, r0
    2774:	000f      	movs	r7, r1
    2776:	9200      	str	r2, [sp, #0]
    2778:	2e00      	cmp	r6, #0
    277a:	d005      	beq.n	2788 <setvbuf+0x20>
    277c:	69b3      	ldr	r3, [r6, #24]
    277e:	2b00      	cmp	r3, #0
    2780:	d102      	bne.n	2788 <setvbuf+0x20>
    2782:	0030      	movs	r0, r6
    2784:	f000 fa60 	bl	2c48 <__sinit>
    2788:	4b49      	ldr	r3, [pc, #292]	; (28b0 <setvbuf+0x148>)
    278a:	429c      	cmp	r4, r3
    278c:	d150      	bne.n	2830 <setvbuf+0xc8>
    278e:	6874      	ldr	r4, [r6, #4]
    2790:	9b00      	ldr	r3, [sp, #0]
    2792:	2b02      	cmp	r3, #2
    2794:	d005      	beq.n	27a2 <setvbuf+0x3a>
    2796:	2b01      	cmp	r3, #1
    2798:	d900      	bls.n	279c <setvbuf+0x34>
    279a:	e084      	b.n	28a6 <setvbuf+0x13e>
    279c:	2d00      	cmp	r5, #0
    279e:	da00      	bge.n	27a2 <setvbuf+0x3a>
    27a0:	e081      	b.n	28a6 <setvbuf+0x13e>
    27a2:	0021      	movs	r1, r4
    27a4:	0030      	movs	r0, r6
    27a6:	f000 f9e1 	bl	2b6c <_fflush_r>
    27aa:	6b61      	ldr	r1, [r4, #52]	; 0x34
    27ac:	2900      	cmp	r1, #0
    27ae:	d008      	beq.n	27c2 <setvbuf+0x5a>
    27b0:	0023      	movs	r3, r4
    27b2:	3344      	adds	r3, #68	; 0x44
    27b4:	4299      	cmp	r1, r3
    27b6:	d002      	beq.n	27be <setvbuf+0x56>
    27b8:	0030      	movs	r0, r6
    27ba:	f000 fb51 	bl	2e60 <_free_r>
    27be:	2300      	movs	r3, #0
    27c0:	6363      	str	r3, [r4, #52]	; 0x34
    27c2:	2300      	movs	r3, #0
    27c4:	61a3      	str	r3, [r4, #24]
    27c6:	6063      	str	r3, [r4, #4]
    27c8:	89a3      	ldrh	r3, [r4, #12]
    27ca:	061b      	lsls	r3, r3, #24
    27cc:	d503      	bpl.n	27d6 <setvbuf+0x6e>
    27ce:	6921      	ldr	r1, [r4, #16]
    27d0:	0030      	movs	r0, r6
    27d2:	f000 fb45 	bl	2e60 <_free_r>
    27d6:	89a3      	ldrh	r3, [r4, #12]
    27d8:	4a36      	ldr	r2, [pc, #216]	; (28b4 <setvbuf+0x14c>)
    27da:	4013      	ands	r3, r2
    27dc:	81a3      	strh	r3, [r4, #12]
    27de:	9b00      	ldr	r3, [sp, #0]
    27e0:	2b02      	cmp	r3, #2
    27e2:	d05a      	beq.n	289a <setvbuf+0x132>
    27e4:	ab03      	add	r3, sp, #12
    27e6:	aa02      	add	r2, sp, #8
    27e8:	0021      	movs	r1, r4
    27ea:	0030      	movs	r0, r6
    27ec:	f000 fac2 	bl	2d74 <__swhatbuf_r>
    27f0:	89a3      	ldrh	r3, [r4, #12]
    27f2:	4318      	orrs	r0, r3
    27f4:	81a0      	strh	r0, [r4, #12]
    27f6:	2d00      	cmp	r5, #0
    27f8:	d124      	bne.n	2844 <setvbuf+0xdc>
    27fa:	9d02      	ldr	r5, [sp, #8]
    27fc:	0028      	movs	r0, r5
    27fe:	f000 fb25 	bl	2e4c <malloc>
    2802:	9501      	str	r5, [sp, #4]
    2804:	1e07      	subs	r7, r0, #0
    2806:	d142      	bne.n	288e <setvbuf+0x126>
    2808:	9b02      	ldr	r3, [sp, #8]
    280a:	9301      	str	r3, [sp, #4]
    280c:	42ab      	cmp	r3, r5
    280e:	d139      	bne.n	2884 <setvbuf+0x11c>
    2810:	2001      	movs	r0, #1
    2812:	4240      	negs	r0, r0
    2814:	2302      	movs	r3, #2
    2816:	89a2      	ldrh	r2, [r4, #12]
    2818:	4313      	orrs	r3, r2
    281a:	81a3      	strh	r3, [r4, #12]
    281c:	2300      	movs	r3, #0
    281e:	60a3      	str	r3, [r4, #8]
    2820:	0023      	movs	r3, r4
    2822:	3347      	adds	r3, #71	; 0x47
    2824:	6023      	str	r3, [r4, #0]
    2826:	6123      	str	r3, [r4, #16]
    2828:	2301      	movs	r3, #1
    282a:	6163      	str	r3, [r4, #20]
    282c:	b005      	add	sp, #20
    282e:	bdf0      	pop	{r4, r5, r6, r7, pc}
    2830:	4b21      	ldr	r3, [pc, #132]	; (28b8 <setvbuf+0x150>)
    2832:	429c      	cmp	r4, r3
    2834:	d101      	bne.n	283a <setvbuf+0xd2>
    2836:	68b4      	ldr	r4, [r6, #8]
    2838:	e7aa      	b.n	2790 <setvbuf+0x28>
    283a:	4b20      	ldr	r3, [pc, #128]	; (28bc <setvbuf+0x154>)
    283c:	429c      	cmp	r4, r3
    283e:	d1a7      	bne.n	2790 <setvbuf+0x28>
    2840:	68f4      	ldr	r4, [r6, #12]
    2842:	e7a5      	b.n	2790 <setvbuf+0x28>
    2844:	2f00      	cmp	r7, #0
    2846:	d0d9      	beq.n	27fc <setvbuf+0x94>
    2848:	69b3      	ldr	r3, [r6, #24]
    284a:	2b00      	cmp	r3, #0
    284c:	d102      	bne.n	2854 <setvbuf+0xec>
    284e:	0030      	movs	r0, r6
    2850:	f000 f9fa 	bl	2c48 <__sinit>
    2854:	9b00      	ldr	r3, [sp, #0]
    2856:	2b01      	cmp	r3, #1
    2858:	d103      	bne.n	2862 <setvbuf+0xfa>
    285a:	89a3      	ldrh	r3, [r4, #12]
    285c:	9a00      	ldr	r2, [sp, #0]
    285e:	431a      	orrs	r2, r3
    2860:	81a2      	strh	r2, [r4, #12]
    2862:	2008      	movs	r0, #8
    2864:	89a3      	ldrh	r3, [r4, #12]
    2866:	6027      	str	r7, [r4, #0]
    2868:	6127      	str	r7, [r4, #16]
    286a:	6165      	str	r5, [r4, #20]
    286c:	4018      	ands	r0, r3
    286e:	d018      	beq.n	28a2 <setvbuf+0x13a>
    2870:	2001      	movs	r0, #1
    2872:	4018      	ands	r0, r3
    2874:	2300      	movs	r3, #0
    2876:	4298      	cmp	r0, r3
    2878:	d011      	beq.n	289e <setvbuf+0x136>
    287a:	426d      	negs	r5, r5
    287c:	60a3      	str	r3, [r4, #8]
    287e:	61a5      	str	r5, [r4, #24]
    2880:	0018      	movs	r0, r3
    2882:	e7d3      	b.n	282c <setvbuf+0xc4>
    2884:	9801      	ldr	r0, [sp, #4]
    2886:	f000 fae1 	bl	2e4c <malloc>
    288a:	1e07      	subs	r7, r0, #0
    288c:	d0c0      	beq.n	2810 <setvbuf+0xa8>
    288e:	2380      	movs	r3, #128	; 0x80
    2890:	89a2      	ldrh	r2, [r4, #12]
    2892:	9d01      	ldr	r5, [sp, #4]
    2894:	4313      	orrs	r3, r2
    2896:	81a3      	strh	r3, [r4, #12]
    2898:	e7d6      	b.n	2848 <setvbuf+0xe0>
    289a:	2000      	movs	r0, #0
    289c:	e7ba      	b.n	2814 <setvbuf+0xac>
    289e:	60a5      	str	r5, [r4, #8]
    28a0:	e7c4      	b.n	282c <setvbuf+0xc4>
    28a2:	60a0      	str	r0, [r4, #8]
    28a4:	e7c2      	b.n	282c <setvbuf+0xc4>
    28a6:	2001      	movs	r0, #1
    28a8:	4240      	negs	r0, r0
    28aa:	e7bf      	b.n	282c <setvbuf+0xc4>
    28ac:	20000004 	.word	0x20000004
    28b0:	000039c0 	.word	0x000039c0
    28b4:	fffff35c 	.word	0xfffff35c
    28b8:	000039e0 	.word	0x000039e0
    28bc:	000039a0 	.word	0x000039a0

000028c0 <__swbuf_r>:
    28c0:	b5f8      	push	{r3, r4, r5, r6, r7, lr}
    28c2:	0005      	movs	r5, r0
    28c4:	000e      	movs	r6, r1
    28c6:	0014      	movs	r4, r2
    28c8:	2800      	cmp	r0, #0
    28ca:	d004      	beq.n	28d6 <__swbuf_r+0x16>
    28cc:	6983      	ldr	r3, [r0, #24]
    28ce:	2b00      	cmp	r3, #0
    28d0:	d101      	bne.n	28d6 <__swbuf_r+0x16>
    28d2:	f000 f9b9 	bl	2c48 <__sinit>
    28d6:	4b22      	ldr	r3, [pc, #136]	; (2960 <__swbuf_r+0xa0>)
    28d8:	429c      	cmp	r4, r3
    28da:	d12d      	bne.n	2938 <__swbuf_r+0x78>
    28dc:	686c      	ldr	r4, [r5, #4]
    28de:	69a3      	ldr	r3, [r4, #24]
    28e0:	60a3      	str	r3, [r4, #8]
    28e2:	89a3      	ldrh	r3, [r4, #12]
    28e4:	071b      	lsls	r3, r3, #28
    28e6:	d531      	bpl.n	294c <__swbuf_r+0x8c>
    28e8:	6923      	ldr	r3, [r4, #16]
    28ea:	2b00      	cmp	r3, #0
    28ec:	d02e      	beq.n	294c <__swbuf_r+0x8c>
    28ee:	6823      	ldr	r3, [r4, #0]
    28f0:	6922      	ldr	r2, [r4, #16]
    28f2:	b2f7      	uxtb	r7, r6
    28f4:	1a98      	subs	r0, r3, r2
    28f6:	6963      	ldr	r3, [r4, #20]
    28f8:	b2f6      	uxtb	r6, r6
    28fa:	4298      	cmp	r0, r3
    28fc:	db05      	blt.n	290a <__swbuf_r+0x4a>
    28fe:	0021      	movs	r1, r4
    2900:	0028      	movs	r0, r5
    2902:	f000 f933 	bl	2b6c <_fflush_r>
    2906:	2800      	cmp	r0, #0
    2908:	d126      	bne.n	2958 <__swbuf_r+0x98>
    290a:	68a3      	ldr	r3, [r4, #8]
    290c:	3001      	adds	r0, #1
    290e:	3b01      	subs	r3, #1
    2910:	60a3      	str	r3, [r4, #8]
    2912:	6823      	ldr	r3, [r4, #0]
    2914:	1c5a      	adds	r2, r3, #1
    2916:	6022      	str	r2, [r4, #0]
    2918:	701f      	strb	r7, [r3, #0]
    291a:	6963      	ldr	r3, [r4, #20]
    291c:	4298      	cmp	r0, r3
    291e:	d004      	beq.n	292a <__swbuf_r+0x6a>
    2920:	89a3      	ldrh	r3, [r4, #12]
    2922:	07db      	lsls	r3, r3, #31
    2924:	d51a      	bpl.n	295c <__swbuf_r+0x9c>
    2926:	2e0a      	cmp	r6, #10
    2928:	d118      	bne.n	295c <__swbuf_r+0x9c>
    292a:	0021      	movs	r1, r4
    292c:	0028      	movs	r0, r5
    292e:	f000 f91d 	bl	2b6c <_fflush_r>
    2932:	2800      	cmp	r0, #0
    2934:	d012      	beq.n	295c <__swbuf_r+0x9c>
    2936:	e00f      	b.n	2958 <__swbuf_r+0x98>
    2938:	4b0a      	ldr	r3, [pc, #40]	; (2964 <__swbuf_r+0xa4>)
    293a:	429c      	cmp	r4, r3
    293c:	d101      	bne.n	2942 <__swbuf_r+0x82>
    293e:	68ac      	ldr	r4, [r5, #8]
    2940:	e7cd      	b.n	28de <__swbuf_r+0x1e>
    2942:	4b09      	ldr	r3, [pc, #36]	; (2968 <__swbuf_r+0xa8>)
    2944:	429c      	cmp	r4, r3
    2946:	d1ca      	bne.n	28de <__swbuf_r+0x1e>
    2948:	68ec      	ldr	r4, [r5, #12]
    294a:	e7c8      	b.n	28de <__swbuf_r+0x1e>
    294c:	0021      	movs	r1, r4
    294e:	0028      	movs	r0, r5
    2950:	f000 f80c 	bl	296c <__swsetup_r>
    2954:	2800      	cmp	r0, #0
    2956:	d0ca      	beq.n	28ee <__swbuf_r+0x2e>
    2958:	2601      	movs	r6, #1
    295a:	4276      	negs	r6, r6
    295c:	0030      	movs	r0, r6
    295e:	bdf8      	pop	{r3, r4, r5, r6, r7, pc}
    2960:	000039c0 	.word	0x000039c0
    2964:	000039e0 	.word	0x000039e0
    2968:	000039a0 	.word	0x000039a0

0000296c <__swsetup_r>:
    296c:	4b36      	ldr	r3, [pc, #216]	; (2a48 <__swsetup_r+0xdc>)
    296e:	b570      	push	{r4, r5, r6, lr}
    2970:	681d      	ldr	r5, [r3, #0]
    2972:	0006      	movs	r6, r0
    2974:	000c      	movs	r4, r1
    2976:	2d00      	cmp	r5, #0
    2978:	d005      	beq.n	2986 <__swsetup_r+0x1a>
    297a:	69ab      	ldr	r3, [r5, #24]
    297c:	2b00      	cmp	r3, #0
    297e:	d102      	bne.n	2986 <__swsetup_r+0x1a>
    2980:	0028      	movs	r0, r5
    2982:	f000 f961 	bl	2c48 <__sinit>
    2986:	4b31      	ldr	r3, [pc, #196]	; (2a4c <__swsetup_r+0xe0>)
    2988:	429c      	cmp	r4, r3
    298a:	d10f      	bne.n	29ac <__swsetup_r+0x40>
    298c:	686c      	ldr	r4, [r5, #4]
    298e:	230c      	movs	r3, #12
    2990:	5ee2      	ldrsh	r2, [r4, r3]
    2992:	b293      	uxth	r3, r2
    2994:	0719      	lsls	r1, r3, #28
    2996:	d42d      	bmi.n	29f4 <__swsetup_r+0x88>
    2998:	06d9      	lsls	r1, r3, #27
    299a:	d411      	bmi.n	29c0 <__swsetup_r+0x54>
    299c:	2309      	movs	r3, #9
    299e:	2001      	movs	r0, #1
    29a0:	6033      	str	r3, [r6, #0]
    29a2:	3337      	adds	r3, #55	; 0x37
    29a4:	4313      	orrs	r3, r2
    29a6:	81a3      	strh	r3, [r4, #12]
    29a8:	4240      	negs	r0, r0
    29aa:	bd70      	pop	{r4, r5, r6, pc}
    29ac:	4b28      	ldr	r3, [pc, #160]	; (2a50 <__swsetup_r+0xe4>)
    29ae:	429c      	cmp	r4, r3
    29b0:	d101      	bne.n	29b6 <__swsetup_r+0x4a>
    29b2:	68ac      	ldr	r4, [r5, #8]
    29b4:	e7eb      	b.n	298e <__swsetup_r+0x22>
    29b6:	4b27      	ldr	r3, [pc, #156]	; (2a54 <__swsetup_r+0xe8>)
    29b8:	429c      	cmp	r4, r3
    29ba:	d1e8      	bne.n	298e <__swsetup_r+0x22>
    29bc:	68ec      	ldr	r4, [r5, #12]
    29be:	e7e6      	b.n	298e <__swsetup_r+0x22>
    29c0:	075b      	lsls	r3, r3, #29
    29c2:	d513      	bpl.n	29ec <__swsetup_r+0x80>
    29c4:	6b61      	ldr	r1, [r4, #52]	; 0x34
    29c6:	2900      	cmp	r1, #0
    29c8:	d008      	beq.n	29dc <__swsetup_r+0x70>
    29ca:	0023      	movs	r3, r4
    29cc:	3344      	adds	r3, #68	; 0x44
    29ce:	4299      	cmp	r1, r3
    29d0:	d002      	beq.n	29d8 <__swsetup_r+0x6c>
    29d2:	0030      	movs	r0, r6
    29d4:	f000 fa44 	bl	2e60 <_free_r>
    29d8:	2300      	movs	r3, #0
    29da:	6363      	str	r3, [r4, #52]	; 0x34
    29dc:	2224      	movs	r2, #36	; 0x24
    29de:	89a3      	ldrh	r3, [r4, #12]
    29e0:	4393      	bics	r3, r2
    29e2:	81a3      	strh	r3, [r4, #12]
    29e4:	2300      	movs	r3, #0
    29e6:	6063      	str	r3, [r4, #4]
    29e8:	6923      	ldr	r3, [r4, #16]
    29ea:	6023      	str	r3, [r4, #0]
    29ec:	2308      	movs	r3, #8
    29ee:	89a2      	ldrh	r2, [r4, #12]
    29f0:	4313      	orrs	r3, r2
    29f2:	81a3      	strh	r3, [r4, #12]
    29f4:	6923      	ldr	r3, [r4, #16]
    29f6:	2b00      	cmp	r3, #0
    29f8:	d10b      	bne.n	2a12 <__swsetup_r+0xa6>
    29fa:	21a0      	movs	r1, #160	; 0xa0
    29fc:	2280      	movs	r2, #128	; 0x80
    29fe:	89a3      	ldrh	r3, [r4, #12]
    2a00:	0089      	lsls	r1, r1, #2
    2a02:	0092      	lsls	r2, r2, #2
    2a04:	400b      	ands	r3, r1
    2a06:	4293      	cmp	r3, r2
    2a08:	d003      	beq.n	2a12 <__swsetup_r+0xa6>
    2a0a:	0021      	movs	r1, r4
    2a0c:	0030      	movs	r0, r6
    2a0e:	f000 f9d9 	bl	2dc4 <__smakebuf_r>
    2a12:	2301      	movs	r3, #1
    2a14:	89a2      	ldrh	r2, [r4, #12]
    2a16:	4013      	ands	r3, r2
    2a18:	d011      	beq.n	2a3e <__swsetup_r+0xd2>
    2a1a:	2300      	movs	r3, #0
    2a1c:	60a3      	str	r3, [r4, #8]
    2a1e:	6963      	ldr	r3, [r4, #20]
    2a20:	425b      	negs	r3, r3
    2a22:	61a3      	str	r3, [r4, #24]
    2a24:	2000      	movs	r0, #0
    2a26:	6923      	ldr	r3, [r4, #16]
    2a28:	4283      	cmp	r3, r0
    2a2a:	d1be      	bne.n	29aa <__swsetup_r+0x3e>
    2a2c:	230c      	movs	r3, #12
    2a2e:	5ee2      	ldrsh	r2, [r4, r3]
    2a30:	0613      	lsls	r3, r2, #24
    2a32:	d5ba      	bpl.n	29aa <__swsetup_r+0x3e>
    2a34:	2340      	movs	r3, #64	; 0x40
    2a36:	4313      	orrs	r3, r2
    2a38:	81a3      	strh	r3, [r4, #12]
    2a3a:	3801      	subs	r0, #1
    2a3c:	e7b5      	b.n	29aa <__swsetup_r+0x3e>
    2a3e:	0792      	lsls	r2, r2, #30
    2a40:	d400      	bmi.n	2a44 <__swsetup_r+0xd8>
    2a42:	6963      	ldr	r3, [r4, #20]
    2a44:	60a3      	str	r3, [r4, #8]
    2a46:	e7ed      	b.n	2a24 <__swsetup_r+0xb8>
    2a48:	20000004 	.word	0x20000004
    2a4c:	000039c0 	.word	0x000039c0
    2a50:	000039e0 	.word	0x000039e0
    2a54:	000039a0 	.word	0x000039a0

00002a58 <__sflush_r>:
    2a58:	b5f7      	push	{r0, r1, r2, r4, r5, r6, r7, lr}
    2a5a:	898a      	ldrh	r2, [r1, #12]
    2a5c:	0005      	movs	r5, r0
    2a5e:	000c      	movs	r4, r1
    2a60:	0713      	lsls	r3, r2, #28
    2a62:	d460      	bmi.n	2b26 <__sflush_r+0xce>
    2a64:	684b      	ldr	r3, [r1, #4]
    2a66:	2b00      	cmp	r3, #0
    2a68:	dc04      	bgt.n	2a74 <__sflush_r+0x1c>
    2a6a:	6c0b      	ldr	r3, [r1, #64]	; 0x40
    2a6c:	2b00      	cmp	r3, #0
    2a6e:	dc01      	bgt.n	2a74 <__sflush_r+0x1c>
    2a70:	2000      	movs	r0, #0
    2a72:	bdfe      	pop	{r1, r2, r3, r4, r5, r6, r7, pc}
    2a74:	6ae7      	ldr	r7, [r4, #44]	; 0x2c
    2a76:	2f00      	cmp	r7, #0
    2a78:	d0fa      	beq.n	2a70 <__sflush_r+0x18>
    2a7a:	2300      	movs	r3, #0
    2a7c:	682e      	ldr	r6, [r5, #0]
    2a7e:	602b      	str	r3, [r5, #0]
    2a80:	2380      	movs	r3, #128	; 0x80
    2a82:	015b      	lsls	r3, r3, #5
    2a84:	401a      	ands	r2, r3
    2a86:	d034      	beq.n	2af2 <__sflush_r+0x9a>
    2a88:	6d60      	ldr	r0, [r4, #84]	; 0x54
    2a8a:	89a3      	ldrh	r3, [r4, #12]
    2a8c:	075b      	lsls	r3, r3, #29
    2a8e:	d506      	bpl.n	2a9e <__sflush_r+0x46>
    2a90:	6863      	ldr	r3, [r4, #4]
    2a92:	1ac0      	subs	r0, r0, r3
    2a94:	6b63      	ldr	r3, [r4, #52]	; 0x34
    2a96:	2b00      	cmp	r3, #0
    2a98:	d001      	beq.n	2a9e <__sflush_r+0x46>
    2a9a:	6c23      	ldr	r3, [r4, #64]	; 0x40
    2a9c:	1ac0      	subs	r0, r0, r3
    2a9e:	0002      	movs	r2, r0
    2aa0:	6a21      	ldr	r1, [r4, #32]
    2aa2:	2300      	movs	r3, #0
    2aa4:	0028      	movs	r0, r5
    2aa6:	6ae7      	ldr	r7, [r4, #44]	; 0x2c
    2aa8:	47b8      	blx	r7
    2aaa:	89a1      	ldrh	r1, [r4, #12]
    2aac:	1c43      	adds	r3, r0, #1
    2aae:	d106      	bne.n	2abe <__sflush_r+0x66>
    2ab0:	682b      	ldr	r3, [r5, #0]
    2ab2:	2b1d      	cmp	r3, #29
    2ab4:	d831      	bhi.n	2b1a <__sflush_r+0xc2>
    2ab6:	4a2c      	ldr	r2, [pc, #176]	; (2b68 <__sflush_r+0x110>)
    2ab8:	40da      	lsrs	r2, r3
    2aba:	07d3      	lsls	r3, r2, #31
    2abc:	d52d      	bpl.n	2b1a <__sflush_r+0xc2>
    2abe:	2300      	movs	r3, #0
    2ac0:	6063      	str	r3, [r4, #4]
    2ac2:	6923      	ldr	r3, [r4, #16]
    2ac4:	6023      	str	r3, [r4, #0]
    2ac6:	04cb      	lsls	r3, r1, #19
    2ac8:	d505      	bpl.n	2ad6 <__sflush_r+0x7e>
    2aca:	1c43      	adds	r3, r0, #1
    2acc:	d102      	bne.n	2ad4 <__sflush_r+0x7c>
    2ace:	682b      	ldr	r3, [r5, #0]
    2ad0:	2b00      	cmp	r3, #0
    2ad2:	d100      	bne.n	2ad6 <__sflush_r+0x7e>
    2ad4:	6560      	str	r0, [r4, #84]	; 0x54
    2ad6:	6b61      	ldr	r1, [r4, #52]	; 0x34
    2ad8:	602e      	str	r6, [r5, #0]
    2ada:	2900      	cmp	r1, #0
    2adc:	d0c8      	beq.n	2a70 <__sflush_r+0x18>
    2ade:	0023      	movs	r3, r4
    2ae0:	3344      	adds	r3, #68	; 0x44
    2ae2:	4299      	cmp	r1, r3
    2ae4:	d002      	beq.n	2aec <__sflush_r+0x94>
    2ae6:	0028      	movs	r0, r5
    2ae8:	f000 f9ba 	bl	2e60 <_free_r>
    2aec:	2000      	movs	r0, #0
    2aee:	6360      	str	r0, [r4, #52]	; 0x34
    2af0:	e7bf      	b.n	2a72 <__sflush_r+0x1a>
    2af2:	2301      	movs	r3, #1
    2af4:	6a21      	ldr	r1, [r4, #32]
    2af6:	0028      	movs	r0, r5
    2af8:	47b8      	blx	r7
    2afa:	1c43      	adds	r3, r0, #1
    2afc:	d1c5      	bne.n	2a8a <__sflush_r+0x32>
    2afe:	682b      	ldr	r3, [r5, #0]
    2b00:	2b00      	cmp	r3, #0
    2b02:	d0c2      	beq.n	2a8a <__sflush_r+0x32>
    2b04:	2b1d      	cmp	r3, #29
    2b06:	d001      	beq.n	2b0c <__sflush_r+0xb4>
    2b08:	2b16      	cmp	r3, #22
    2b0a:	d101      	bne.n	2b10 <__sflush_r+0xb8>
    2b0c:	602e      	str	r6, [r5, #0]
    2b0e:	e7af      	b.n	2a70 <__sflush_r+0x18>
    2b10:	2340      	movs	r3, #64	; 0x40
    2b12:	89a2      	ldrh	r2, [r4, #12]
    2b14:	4313      	orrs	r3, r2
    2b16:	81a3      	strh	r3, [r4, #12]
    2b18:	e7ab      	b.n	2a72 <__sflush_r+0x1a>
    2b1a:	2340      	movs	r3, #64	; 0x40
    2b1c:	430b      	orrs	r3, r1
    2b1e:	2001      	movs	r0, #1
    2b20:	81a3      	strh	r3, [r4, #12]
    2b22:	4240      	negs	r0, r0
    2b24:	e7a5      	b.n	2a72 <__sflush_r+0x1a>
    2b26:	690f      	ldr	r7, [r1, #16]
    2b28:	2f00      	cmp	r7, #0
    2b2a:	d0a1      	beq.n	2a70 <__sflush_r+0x18>
    2b2c:	680b      	ldr	r3, [r1, #0]
    2b2e:	600f      	str	r7, [r1, #0]
    2b30:	1bdb      	subs	r3, r3, r7
    2b32:	9301      	str	r3, [sp, #4]
    2b34:	2300      	movs	r3, #0
    2b36:	0792      	lsls	r2, r2, #30
    2b38:	d100      	bne.n	2b3c <__sflush_r+0xe4>
    2b3a:	694b      	ldr	r3, [r1, #20]
    2b3c:	60a3      	str	r3, [r4, #8]
    2b3e:	9b01      	ldr	r3, [sp, #4]
    2b40:	2b00      	cmp	r3, #0
    2b42:	dc00      	bgt.n	2b46 <__sflush_r+0xee>
    2b44:	e794      	b.n	2a70 <__sflush_r+0x18>
    2b46:	9b01      	ldr	r3, [sp, #4]
    2b48:	003a      	movs	r2, r7
    2b4a:	6a21      	ldr	r1, [r4, #32]
    2b4c:	0028      	movs	r0, r5
    2b4e:	6aa6      	ldr	r6, [r4, #40]	; 0x28
    2b50:	47b0      	blx	r6
    2b52:	2800      	cmp	r0, #0
    2b54:	dc03      	bgt.n	2b5e <__sflush_r+0x106>
    2b56:	2340      	movs	r3, #64	; 0x40
    2b58:	89a2      	ldrh	r2, [r4, #12]
    2b5a:	4313      	orrs	r3, r2
    2b5c:	e7df      	b.n	2b1e <__sflush_r+0xc6>
    2b5e:	9b01      	ldr	r3, [sp, #4]
    2b60:	183f      	adds	r7, r7, r0
    2b62:	1a1b      	subs	r3, r3, r0
    2b64:	9301      	str	r3, [sp, #4]
    2b66:	e7ea      	b.n	2b3e <__sflush_r+0xe6>
    2b68:	20400001 	.word	0x20400001

00002b6c <_fflush_r>:
    2b6c:	690b      	ldr	r3, [r1, #16]
    2b6e:	b570      	push	{r4, r5, r6, lr}
    2b70:	0005      	movs	r5, r0
    2b72:	000c      	movs	r4, r1
    2b74:	2b00      	cmp	r3, #0
    2b76:	d101      	bne.n	2b7c <_fflush_r+0x10>
    2b78:	2000      	movs	r0, #0
    2b7a:	bd70      	pop	{r4, r5, r6, pc}
    2b7c:	2800      	cmp	r0, #0
    2b7e:	d004      	beq.n	2b8a <_fflush_r+0x1e>
    2b80:	6983      	ldr	r3, [r0, #24]
    2b82:	2b00      	cmp	r3, #0
    2b84:	d101      	bne.n	2b8a <_fflush_r+0x1e>
    2b86:	f000 f85f 	bl	2c48 <__sinit>
    2b8a:	4b0b      	ldr	r3, [pc, #44]	; (2bb8 <_fflush_r+0x4c>)
    2b8c:	429c      	cmp	r4, r3
    2b8e:	d109      	bne.n	2ba4 <_fflush_r+0x38>
    2b90:	686c      	ldr	r4, [r5, #4]
    2b92:	220c      	movs	r2, #12
    2b94:	5ea3      	ldrsh	r3, [r4, r2]
    2b96:	2b00      	cmp	r3, #0
    2b98:	d0ee      	beq.n	2b78 <_fflush_r+0xc>
    2b9a:	0021      	movs	r1, r4
    2b9c:	0028      	movs	r0, r5
    2b9e:	f7ff ff5b 	bl	2a58 <__sflush_r>
    2ba2:	e7ea      	b.n	2b7a <_fflush_r+0xe>
    2ba4:	4b05      	ldr	r3, [pc, #20]	; (2bbc <_fflush_r+0x50>)
    2ba6:	429c      	cmp	r4, r3
    2ba8:	d101      	bne.n	2bae <_fflush_r+0x42>
    2baa:	68ac      	ldr	r4, [r5, #8]
    2bac:	e7f1      	b.n	2b92 <_fflush_r+0x26>
    2bae:	4b04      	ldr	r3, [pc, #16]	; (2bc0 <_fflush_r+0x54>)
    2bb0:	429c      	cmp	r4, r3
    2bb2:	d1ee      	bne.n	2b92 <_fflush_r+0x26>
    2bb4:	68ec      	ldr	r4, [r5, #12]
    2bb6:	e7ec      	b.n	2b92 <_fflush_r+0x26>
    2bb8:	000039c0 	.word	0x000039c0
    2bbc:	000039e0 	.word	0x000039e0
    2bc0:	000039a0 	.word	0x000039a0

00002bc4 <_cleanup_r>:
    2bc4:	b510      	push	{r4, lr}
    2bc6:	4902      	ldr	r1, [pc, #8]	; (2bd0 <_cleanup_r+0xc>)
    2bc8:	f000 f8b2 	bl	2d30 <_fwalk_reent>
    2bcc:	bd10      	pop	{r4, pc}
    2bce:	46c0      	nop			; (mov r8, r8)
    2bd0:	00002b6d 	.word	0x00002b6d

00002bd4 <std.isra.0>:
    2bd4:	2300      	movs	r3, #0
    2bd6:	b510      	push	{r4, lr}
    2bd8:	0004      	movs	r4, r0
    2bda:	6003      	str	r3, [r0, #0]
    2bdc:	6043      	str	r3, [r0, #4]
    2bde:	6083      	str	r3, [r0, #8]
    2be0:	8181      	strh	r1, [r0, #12]
    2be2:	6643      	str	r3, [r0, #100]	; 0x64
    2be4:	81c2      	strh	r2, [r0, #14]
    2be6:	6103      	str	r3, [r0, #16]
    2be8:	6143      	str	r3, [r0, #20]
    2bea:	6183      	str	r3, [r0, #24]
    2bec:	0019      	movs	r1, r3
    2bee:	2208      	movs	r2, #8
    2bf0:	305c      	adds	r0, #92	; 0x5c
    2bf2:	f7ff fd23 	bl	263c <memset>
    2bf6:	4b05      	ldr	r3, [pc, #20]	; (2c0c <std.isra.0+0x38>)
    2bf8:	6224      	str	r4, [r4, #32]
    2bfa:	6263      	str	r3, [r4, #36]	; 0x24
    2bfc:	4b04      	ldr	r3, [pc, #16]	; (2c10 <std.isra.0+0x3c>)
    2bfe:	62a3      	str	r3, [r4, #40]	; 0x28
    2c00:	4b04      	ldr	r3, [pc, #16]	; (2c14 <std.isra.0+0x40>)
    2c02:	62e3      	str	r3, [r4, #44]	; 0x2c
    2c04:	4b04      	ldr	r3, [pc, #16]	; (2c18 <std.isra.0+0x44>)
    2c06:	6323      	str	r3, [r4, #48]	; 0x30
    2c08:	bd10      	pop	{r4, pc}
    2c0a:	46c0      	nop			; (mov r8, r8)
    2c0c:	0000356d 	.word	0x0000356d
    2c10:	00003595 	.word	0x00003595
    2c14:	000035cd 	.word	0x000035cd
    2c18:	000035f9 	.word	0x000035f9

00002c1c <__sfmoreglue>:
    2c1c:	b570      	push	{r4, r5, r6, lr}
    2c1e:	2568      	movs	r5, #104	; 0x68
    2c20:	1e4a      	subs	r2, r1, #1
    2c22:	4355      	muls	r5, r2
    2c24:	000e      	movs	r6, r1
    2c26:	0029      	movs	r1, r5
    2c28:	3174      	adds	r1, #116	; 0x74
    2c2a:	f000 f963 	bl	2ef4 <_malloc_r>
    2c2e:	1e04      	subs	r4, r0, #0
    2c30:	d008      	beq.n	2c44 <__sfmoreglue+0x28>
    2c32:	2100      	movs	r1, #0
    2c34:	002a      	movs	r2, r5
    2c36:	6001      	str	r1, [r0, #0]
    2c38:	6046      	str	r6, [r0, #4]
    2c3a:	300c      	adds	r0, #12
    2c3c:	60a0      	str	r0, [r4, #8]
    2c3e:	3268      	adds	r2, #104	; 0x68
    2c40:	f7ff fcfc 	bl	263c <memset>
    2c44:	0020      	movs	r0, r4
    2c46:	bd70      	pop	{r4, r5, r6, pc}

00002c48 <__sinit>:
    2c48:	6983      	ldr	r3, [r0, #24]
    2c4a:	b513      	push	{r0, r1, r4, lr}
    2c4c:	0004      	movs	r4, r0
    2c4e:	2b00      	cmp	r3, #0
    2c50:	d128      	bne.n	2ca4 <__sinit+0x5c>
    2c52:	6483      	str	r3, [r0, #72]	; 0x48
    2c54:	64c3      	str	r3, [r0, #76]	; 0x4c
    2c56:	6503      	str	r3, [r0, #80]	; 0x50
    2c58:	4b13      	ldr	r3, [pc, #76]	; (2ca8 <__sinit+0x60>)
    2c5a:	4a14      	ldr	r2, [pc, #80]	; (2cac <__sinit+0x64>)
    2c5c:	681b      	ldr	r3, [r3, #0]
    2c5e:	6282      	str	r2, [r0, #40]	; 0x28
    2c60:	9301      	str	r3, [sp, #4]
    2c62:	4298      	cmp	r0, r3
    2c64:	d101      	bne.n	2c6a <__sinit+0x22>
    2c66:	2301      	movs	r3, #1
    2c68:	6183      	str	r3, [r0, #24]
    2c6a:	0020      	movs	r0, r4
    2c6c:	f000 f820 	bl	2cb0 <__sfp>
    2c70:	6060      	str	r0, [r4, #4]
    2c72:	0020      	movs	r0, r4
    2c74:	f000 f81c 	bl	2cb0 <__sfp>
    2c78:	60a0      	str	r0, [r4, #8]
    2c7a:	0020      	movs	r0, r4
    2c7c:	f000 f818 	bl	2cb0 <__sfp>
    2c80:	2200      	movs	r2, #0
    2c82:	60e0      	str	r0, [r4, #12]
    2c84:	2104      	movs	r1, #4
    2c86:	6860      	ldr	r0, [r4, #4]
    2c88:	f7ff ffa4 	bl	2bd4 <std.isra.0>
    2c8c:	2201      	movs	r2, #1
    2c8e:	2109      	movs	r1, #9
    2c90:	68a0      	ldr	r0, [r4, #8]
    2c92:	f7ff ff9f 	bl	2bd4 <std.isra.0>
    2c96:	2202      	movs	r2, #2
    2c98:	2112      	movs	r1, #18
    2c9a:	68e0      	ldr	r0, [r4, #12]
    2c9c:	f7ff ff9a 	bl	2bd4 <std.isra.0>
    2ca0:	2301      	movs	r3, #1
    2ca2:	61a3      	str	r3, [r4, #24]
    2ca4:	bd13      	pop	{r0, r1, r4, pc}
    2ca6:	46c0      	nop			; (mov r8, r8)
    2ca8:	0000399c 	.word	0x0000399c
    2cac:	00002bc5 	.word	0x00002bc5

00002cb0 <__sfp>:
    2cb0:	b5f8      	push	{r3, r4, r5, r6, r7, lr}
    2cb2:	4b1e      	ldr	r3, [pc, #120]	; (2d2c <__sfp+0x7c>)
    2cb4:	0007      	movs	r7, r0
    2cb6:	681e      	ldr	r6, [r3, #0]
    2cb8:	69b3      	ldr	r3, [r6, #24]
    2cba:	2b00      	cmp	r3, #0
    2cbc:	d102      	bne.n	2cc4 <__sfp+0x14>
    2cbe:	0030      	movs	r0, r6
    2cc0:	f7ff ffc2 	bl	2c48 <__sinit>
    2cc4:	3648      	adds	r6, #72	; 0x48
    2cc6:	68b4      	ldr	r4, [r6, #8]
    2cc8:	6873      	ldr	r3, [r6, #4]
    2cca:	3b01      	subs	r3, #1
    2ccc:	d504      	bpl.n	2cd8 <__sfp+0x28>
    2cce:	6833      	ldr	r3, [r6, #0]
    2cd0:	2b00      	cmp	r3, #0
    2cd2:	d007      	beq.n	2ce4 <__sfp+0x34>
    2cd4:	6836      	ldr	r6, [r6, #0]
    2cd6:	e7f6      	b.n	2cc6 <__sfp+0x16>
    2cd8:	220c      	movs	r2, #12
    2cda:	5ea5      	ldrsh	r5, [r4, r2]
    2cdc:	2d00      	cmp	r5, #0
    2cde:	d00d      	beq.n	2cfc <__sfp+0x4c>
    2ce0:	3468      	adds	r4, #104	; 0x68
    2ce2:	e7f2      	b.n	2cca <__sfp+0x1a>
    2ce4:	2104      	movs	r1, #4
    2ce6:	0038      	movs	r0, r7
    2ce8:	f7ff ff98 	bl	2c1c <__sfmoreglue>
    2cec:	6030      	str	r0, [r6, #0]
    2cee:	2800      	cmp	r0, #0
    2cf0:	d1f0      	bne.n	2cd4 <__sfp+0x24>
    2cf2:	230c      	movs	r3, #12
    2cf4:	0004      	movs	r4, r0
    2cf6:	603b      	str	r3, [r7, #0]
    2cf8:	0020      	movs	r0, r4
    2cfa:	bdf8      	pop	{r3, r4, r5, r6, r7, pc}
    2cfc:	2301      	movs	r3, #1
    2cfe:	0020      	movs	r0, r4
    2d00:	425b      	negs	r3, r3
    2d02:	81e3      	strh	r3, [r4, #14]
    2d04:	3302      	adds	r3, #2
    2d06:	81a3      	strh	r3, [r4, #12]
    2d08:	6665      	str	r5, [r4, #100]	; 0x64
    2d0a:	6025      	str	r5, [r4, #0]
    2d0c:	60a5      	str	r5, [r4, #8]
    2d0e:	6065      	str	r5, [r4, #4]
    2d10:	6125      	str	r5, [r4, #16]
    2d12:	6165      	str	r5, [r4, #20]
    2d14:	61a5      	str	r5, [r4, #24]
    2d16:	2208      	movs	r2, #8
    2d18:	0029      	movs	r1, r5
    2d1a:	305c      	adds	r0, #92	; 0x5c
    2d1c:	f7ff fc8e 	bl	263c <memset>
    2d20:	6365      	str	r5, [r4, #52]	; 0x34
    2d22:	63a5      	str	r5, [r4, #56]	; 0x38
    2d24:	64a5      	str	r5, [r4, #72]	; 0x48
    2d26:	64e5      	str	r5, [r4, #76]	; 0x4c
    2d28:	e7e6      	b.n	2cf8 <__sfp+0x48>
    2d2a:	46c0      	nop			; (mov r8, r8)
    2d2c:	0000399c 	.word	0x0000399c

00002d30 <_fwalk_reent>:
    2d30:	b5f7      	push	{r0, r1, r2, r4, r5, r6, r7, lr}
    2d32:	0004      	movs	r4, r0
    2d34:	0007      	movs	r7, r0
    2d36:	2600      	movs	r6, #0
    2d38:	9101      	str	r1, [sp, #4]
    2d3a:	3448      	adds	r4, #72	; 0x48
    2d3c:	2c00      	cmp	r4, #0
    2d3e:	d101      	bne.n	2d44 <_fwalk_reent+0x14>
    2d40:	0030      	movs	r0, r6
    2d42:	bdfe      	pop	{r1, r2, r3, r4, r5, r6, r7, pc}
    2d44:	6863      	ldr	r3, [r4, #4]
    2d46:	68a5      	ldr	r5, [r4, #8]
    2d48:	9300      	str	r3, [sp, #0]
    2d4a:	9b00      	ldr	r3, [sp, #0]
    2d4c:	3b01      	subs	r3, #1
    2d4e:	9300      	str	r3, [sp, #0]
    2d50:	d501      	bpl.n	2d56 <_fwalk_reent+0x26>
    2d52:	6824      	ldr	r4, [r4, #0]
    2d54:	e7f2      	b.n	2d3c <_fwalk_reent+0xc>
    2d56:	89ab      	ldrh	r3, [r5, #12]
    2d58:	2b01      	cmp	r3, #1
    2d5a:	d908      	bls.n	2d6e <_fwalk_reent+0x3e>
    2d5c:	220e      	movs	r2, #14
    2d5e:	5eab      	ldrsh	r3, [r5, r2]
    2d60:	3301      	adds	r3, #1
    2d62:	d004      	beq.n	2d6e <_fwalk_reent+0x3e>
    2d64:	0029      	movs	r1, r5
    2d66:	0038      	movs	r0, r7
    2d68:	9b01      	ldr	r3, [sp, #4]
    2d6a:	4798      	blx	r3
    2d6c:	4306      	orrs	r6, r0
    2d6e:	3568      	adds	r5, #104	; 0x68
    2d70:	e7eb      	b.n	2d4a <_fwalk_reent+0x1a>
	...

00002d74 <__swhatbuf_r>:
    2d74:	b570      	push	{r4, r5, r6, lr}
    2d76:	000e      	movs	r6, r1
    2d78:	001d      	movs	r5, r3
    2d7a:	230e      	movs	r3, #14
    2d7c:	5ec9      	ldrsh	r1, [r1, r3]
    2d7e:	b090      	sub	sp, #64	; 0x40
    2d80:	0014      	movs	r4, r2
    2d82:	2900      	cmp	r1, #0
    2d84:	da07      	bge.n	2d96 <__swhatbuf_r+0x22>
    2d86:	2300      	movs	r3, #0
    2d88:	602b      	str	r3, [r5, #0]
    2d8a:	89b3      	ldrh	r3, [r6, #12]
    2d8c:	061b      	lsls	r3, r3, #24
    2d8e:	d411      	bmi.n	2db4 <__swhatbuf_r+0x40>
    2d90:	2380      	movs	r3, #128	; 0x80
    2d92:	00db      	lsls	r3, r3, #3
    2d94:	e00f      	b.n	2db6 <__swhatbuf_r+0x42>
    2d96:	aa01      	add	r2, sp, #4
    2d98:	f000 fc5a 	bl	3650 <_fstat_r>
    2d9c:	2800      	cmp	r0, #0
    2d9e:	dbf2      	blt.n	2d86 <__swhatbuf_r+0x12>
    2da0:	22f0      	movs	r2, #240	; 0xf0
    2da2:	9b02      	ldr	r3, [sp, #8]
    2da4:	0212      	lsls	r2, r2, #8
    2da6:	4013      	ands	r3, r2
    2da8:	4a05      	ldr	r2, [pc, #20]	; (2dc0 <__swhatbuf_r+0x4c>)
    2daa:	189b      	adds	r3, r3, r2
    2dac:	425a      	negs	r2, r3
    2dae:	4153      	adcs	r3, r2
    2db0:	602b      	str	r3, [r5, #0]
    2db2:	e7ed      	b.n	2d90 <__swhatbuf_r+0x1c>
    2db4:	2340      	movs	r3, #64	; 0x40
    2db6:	2000      	movs	r0, #0
    2db8:	6023      	str	r3, [r4, #0]
    2dba:	b010      	add	sp, #64	; 0x40
    2dbc:	bd70      	pop	{r4, r5, r6, pc}
    2dbe:	46c0      	nop			; (mov r8, r8)
    2dc0:	ffffe000 	.word	0xffffe000

00002dc4 <__smakebuf_r>:
    2dc4:	b5f7      	push	{r0, r1, r2, r4, r5, r6, r7, lr}
    2dc6:	2602      	movs	r6, #2
    2dc8:	898b      	ldrh	r3, [r1, #12]
    2dca:	0005      	movs	r5, r0
    2dcc:	000c      	movs	r4, r1
    2dce:	4233      	tst	r3, r6
    2dd0:	d006      	beq.n	2de0 <__smakebuf_r+0x1c>
    2dd2:	0023      	movs	r3, r4
    2dd4:	3347      	adds	r3, #71	; 0x47
    2dd6:	6023      	str	r3, [r4, #0]
    2dd8:	6123      	str	r3, [r4, #16]
    2dda:	2301      	movs	r3, #1
    2ddc:	6163      	str	r3, [r4, #20]
    2dde:	bdf7      	pop	{r0, r1, r2, r4, r5, r6, r7, pc}
    2de0:	ab01      	add	r3, sp, #4
    2de2:	466a      	mov	r2, sp
    2de4:	f7ff ffc6 	bl	2d74 <__swhatbuf_r>
    2de8:	9900      	ldr	r1, [sp, #0]
    2dea:	0007      	movs	r7, r0
    2dec:	0028      	movs	r0, r5
    2dee:	f000 f881 	bl	2ef4 <_malloc_r>
    2df2:	2800      	cmp	r0, #0
    2df4:	d108      	bne.n	2e08 <__smakebuf_r+0x44>
    2df6:	220c      	movs	r2, #12
    2df8:	5ea3      	ldrsh	r3, [r4, r2]
    2dfa:	059a      	lsls	r2, r3, #22
    2dfc:	d4ef      	bmi.n	2dde <__smakebuf_r+0x1a>
    2dfe:	2203      	movs	r2, #3
    2e00:	4393      	bics	r3, r2
    2e02:	431e      	orrs	r6, r3
    2e04:	81a6      	strh	r6, [r4, #12]
    2e06:	e7e4      	b.n	2dd2 <__smakebuf_r+0xe>
    2e08:	4b0f      	ldr	r3, [pc, #60]	; (2e48 <__smakebuf_r+0x84>)
    2e0a:	62ab      	str	r3, [r5, #40]	; 0x28
    2e0c:	2380      	movs	r3, #128	; 0x80
    2e0e:	89a2      	ldrh	r2, [r4, #12]
    2e10:	6020      	str	r0, [r4, #0]
    2e12:	4313      	orrs	r3, r2
    2e14:	81a3      	strh	r3, [r4, #12]
    2e16:	9b00      	ldr	r3, [sp, #0]
    2e18:	6120      	str	r0, [r4, #16]
    2e1a:	6163      	str	r3, [r4, #20]
    2e1c:	9b01      	ldr	r3, [sp, #4]
    2e1e:	2b00      	cmp	r3, #0
    2e20:	d00d      	beq.n	2e3e <__smakebuf_r+0x7a>
    2e22:	230e      	movs	r3, #14
    2e24:	5ee1      	ldrsh	r1, [r4, r3]
    2e26:	0028      	movs	r0, r5
    2e28:	f000 fc24 	bl	3674 <_isatty_r>
    2e2c:	2800      	cmp	r0, #0
    2e2e:	d006      	beq.n	2e3e <__smakebuf_r+0x7a>
    2e30:	2203      	movs	r2, #3
    2e32:	89a3      	ldrh	r3, [r4, #12]
    2e34:	4393      	bics	r3, r2
    2e36:	001a      	movs	r2, r3
    2e38:	2301      	movs	r3, #1
    2e3a:	4313      	orrs	r3, r2
    2e3c:	81a3      	strh	r3, [r4, #12]
    2e3e:	89a0      	ldrh	r0, [r4, #12]
    2e40:	4338      	orrs	r0, r7
    2e42:	81a0      	strh	r0, [r4, #12]
    2e44:	e7cb      	b.n	2dde <__smakebuf_r+0x1a>
    2e46:	46c0      	nop			; (mov r8, r8)
    2e48:	00002bc5 	.word	0x00002bc5

00002e4c <malloc>:
    2e4c:	b510      	push	{r4, lr}
    2e4e:	4b03      	ldr	r3, [pc, #12]	; (2e5c <malloc+0x10>)
    2e50:	0001      	movs	r1, r0
    2e52:	6818      	ldr	r0, [r3, #0]
    2e54:	f000 f84e 	bl	2ef4 <_malloc_r>
    2e58:	bd10      	pop	{r4, pc}
    2e5a:	46c0      	nop			; (mov r8, r8)
    2e5c:	20000004 	.word	0x20000004

00002e60 <_free_r>:
    2e60:	b570      	push	{r4, r5, r6, lr}
    2e62:	0005      	movs	r5, r0
    2e64:	2900      	cmp	r1, #0
    2e66:	d010      	beq.n	2e8a <_free_r+0x2a>
    2e68:	1f0c      	subs	r4, r1, #4
    2e6a:	6823      	ldr	r3, [r4, #0]
    2e6c:	2b00      	cmp	r3, #0
    2e6e:	da00      	bge.n	2e72 <_free_r+0x12>
    2e70:	18e4      	adds	r4, r4, r3
    2e72:	0028      	movs	r0, r5
    2e74:	f000 fc2f 	bl	36d6 <__malloc_lock>
    2e78:	4a1d      	ldr	r2, [pc, #116]	; (2ef0 <_free_r+0x90>)
    2e7a:	6813      	ldr	r3, [r2, #0]
    2e7c:	2b00      	cmp	r3, #0
    2e7e:	d105      	bne.n	2e8c <_free_r+0x2c>
    2e80:	6063      	str	r3, [r4, #4]
    2e82:	6014      	str	r4, [r2, #0]
    2e84:	0028      	movs	r0, r5
    2e86:	f000 fc27 	bl	36d8 <__malloc_unlock>
    2e8a:	bd70      	pop	{r4, r5, r6, pc}
    2e8c:	42a3      	cmp	r3, r4
    2e8e:	d909      	bls.n	2ea4 <_free_r+0x44>
    2e90:	6821      	ldr	r1, [r4, #0]
    2e92:	1860      	adds	r0, r4, r1
    2e94:	4283      	cmp	r3, r0
    2e96:	d1f3      	bne.n	2e80 <_free_r+0x20>
    2e98:	6818      	ldr	r0, [r3, #0]
    2e9a:	685b      	ldr	r3, [r3, #4]
    2e9c:	1841      	adds	r1, r0, r1
    2e9e:	6021      	str	r1, [r4, #0]
    2ea0:	e7ee      	b.n	2e80 <_free_r+0x20>
    2ea2:	0013      	movs	r3, r2
    2ea4:	685a      	ldr	r2, [r3, #4]
    2ea6:	2a00      	cmp	r2, #0
    2ea8:	d001      	beq.n	2eae <_free_r+0x4e>
    2eaa:	42a2      	cmp	r2, r4
    2eac:	d9f9      	bls.n	2ea2 <_free_r+0x42>
    2eae:	6819      	ldr	r1, [r3, #0]
    2eb0:	1858      	adds	r0, r3, r1
    2eb2:	42a0      	cmp	r0, r4
    2eb4:	d10b      	bne.n	2ece <_free_r+0x6e>
    2eb6:	6820      	ldr	r0, [r4, #0]
    2eb8:	1809      	adds	r1, r1, r0
    2eba:	1858      	adds	r0, r3, r1
    2ebc:	6019      	str	r1, [r3, #0]
    2ebe:	4282      	cmp	r2, r0
    2ec0:	d1e0      	bne.n	2e84 <_free_r+0x24>
    2ec2:	6810      	ldr	r0, [r2, #0]
    2ec4:	6852      	ldr	r2, [r2, #4]
    2ec6:	1841      	adds	r1, r0, r1
    2ec8:	6019      	str	r1, [r3, #0]
    2eca:	605a      	str	r2, [r3, #4]
    2ecc:	e7da      	b.n	2e84 <_free_r+0x24>
    2ece:	42a0      	cmp	r0, r4
    2ed0:	d902      	bls.n	2ed8 <_free_r+0x78>
    2ed2:	230c      	movs	r3, #12
    2ed4:	602b      	str	r3, [r5, #0]
    2ed6:	e7d5      	b.n	2e84 <_free_r+0x24>
    2ed8:	6821      	ldr	r1, [r4, #0]
    2eda:	1860      	adds	r0, r4, r1
    2edc:	4282      	cmp	r2, r0
    2ede:	d103      	bne.n	2ee8 <_free_r+0x88>
    2ee0:	6810      	ldr	r0, [r2, #0]
    2ee2:	6852      	ldr	r2, [r2, #4]
    2ee4:	1841      	adds	r1, r0, r1
    2ee6:	6021      	str	r1, [r4, #0]
    2ee8:	6062      	str	r2, [r4, #4]
    2eea:	605c      	str	r4, [r3, #4]
    2eec:	e7ca      	b.n	2e84 <_free_r+0x24>
    2eee:	46c0      	nop			; (mov r8, r8)
    2ef0:	200000fc 	.word	0x200000fc

00002ef4 <_malloc_r>:
    2ef4:	2303      	movs	r3, #3
    2ef6:	b570      	push	{r4, r5, r6, lr}
    2ef8:	1ccd      	adds	r5, r1, #3
    2efa:	439d      	bics	r5, r3
    2efc:	3508      	adds	r5, #8
    2efe:	0006      	movs	r6, r0
    2f00:	2d0c      	cmp	r5, #12
    2f02:	d21e      	bcs.n	2f42 <_malloc_r+0x4e>
    2f04:	250c      	movs	r5, #12
    2f06:	42a9      	cmp	r1, r5
    2f08:	d81d      	bhi.n	2f46 <_malloc_r+0x52>
    2f0a:	0030      	movs	r0, r6
    2f0c:	f000 fbe3 	bl	36d6 <__malloc_lock>
    2f10:	4a25      	ldr	r2, [pc, #148]	; (2fa8 <_malloc_r+0xb4>)
    2f12:	6814      	ldr	r4, [r2, #0]
    2f14:	0021      	movs	r1, r4
    2f16:	2900      	cmp	r1, #0
    2f18:	d119      	bne.n	2f4e <_malloc_r+0x5a>
    2f1a:	4c24      	ldr	r4, [pc, #144]	; (2fac <_malloc_r+0xb8>)
    2f1c:	6823      	ldr	r3, [r4, #0]
    2f1e:	2b00      	cmp	r3, #0
    2f20:	d103      	bne.n	2f2a <_malloc_r+0x36>
    2f22:	0030      	movs	r0, r6
    2f24:	f000 fb10 	bl	3548 <_sbrk_r>
    2f28:	6020      	str	r0, [r4, #0]
    2f2a:	0029      	movs	r1, r5
    2f2c:	0030      	movs	r0, r6
    2f2e:	f000 fb0b 	bl	3548 <_sbrk_r>
    2f32:	1c43      	adds	r3, r0, #1
    2f34:	d12c      	bne.n	2f90 <_malloc_r+0x9c>
    2f36:	230c      	movs	r3, #12
    2f38:	0030      	movs	r0, r6
    2f3a:	6033      	str	r3, [r6, #0]
    2f3c:	f000 fbcc 	bl	36d8 <__malloc_unlock>
    2f40:	e003      	b.n	2f4a <_malloc_r+0x56>
    2f42:	2d00      	cmp	r5, #0
    2f44:	dadf      	bge.n	2f06 <_malloc_r+0x12>
    2f46:	230c      	movs	r3, #12
    2f48:	6033      	str	r3, [r6, #0]
    2f4a:	2000      	movs	r0, #0
    2f4c:	bd70      	pop	{r4, r5, r6, pc}
    2f4e:	680b      	ldr	r3, [r1, #0]
    2f50:	1b5b      	subs	r3, r3, r5
    2f52:	d41a      	bmi.n	2f8a <_malloc_r+0x96>
    2f54:	2b0b      	cmp	r3, #11
    2f56:	d903      	bls.n	2f60 <_malloc_r+0x6c>
    2f58:	600b      	str	r3, [r1, #0]
    2f5a:	18cc      	adds	r4, r1, r3
    2f5c:	6025      	str	r5, [r4, #0]
    2f5e:	e003      	b.n	2f68 <_malloc_r+0x74>
    2f60:	428c      	cmp	r4, r1
    2f62:	d10e      	bne.n	2f82 <_malloc_r+0x8e>
    2f64:	6863      	ldr	r3, [r4, #4]
    2f66:	6013      	str	r3, [r2, #0]
    2f68:	0030      	movs	r0, r6
    2f6a:	f000 fbb5 	bl	36d8 <__malloc_unlock>
    2f6e:	0020      	movs	r0, r4
    2f70:	2207      	movs	r2, #7
    2f72:	300b      	adds	r0, #11
    2f74:	1d23      	adds	r3, r4, #4
    2f76:	4390      	bics	r0, r2
    2f78:	1ac3      	subs	r3, r0, r3
    2f7a:	d0e7      	beq.n	2f4c <_malloc_r+0x58>
    2f7c:	425a      	negs	r2, r3
    2f7e:	50e2      	str	r2, [r4, r3]
    2f80:	e7e4      	b.n	2f4c <_malloc_r+0x58>
    2f82:	684b      	ldr	r3, [r1, #4]
    2f84:	6063      	str	r3, [r4, #4]
    2f86:	000c      	movs	r4, r1
    2f88:	e7ee      	b.n	2f68 <_malloc_r+0x74>
    2f8a:	000c      	movs	r4, r1
    2f8c:	6849      	ldr	r1, [r1, #4]
    2f8e:	e7c2      	b.n	2f16 <_malloc_r+0x22>
    2f90:	2303      	movs	r3, #3
    2f92:	1cc4      	adds	r4, r0, #3
    2f94:	439c      	bics	r4, r3
    2f96:	42a0      	cmp	r0, r4
    2f98:	d0e0      	beq.n	2f5c <_malloc_r+0x68>
    2f9a:	1a21      	subs	r1, r4, r0
    2f9c:	0030      	movs	r0, r6
    2f9e:	f000 fad3 	bl	3548 <_sbrk_r>
    2fa2:	1c43      	adds	r3, r0, #1
    2fa4:	d1da      	bne.n	2f5c <_malloc_r+0x68>
    2fa6:	e7c6      	b.n	2f36 <_malloc_r+0x42>
    2fa8:	200000fc 	.word	0x200000fc
    2fac:	20000100 	.word	0x20000100

00002fb0 <__sfputc_r>:
    2fb0:	6893      	ldr	r3, [r2, #8]
    2fb2:	b510      	push	{r4, lr}
    2fb4:	3b01      	subs	r3, #1
    2fb6:	6093      	str	r3, [r2, #8]
    2fb8:	2b00      	cmp	r3, #0
    2fba:	da05      	bge.n	2fc8 <__sfputc_r+0x18>
    2fbc:	6994      	ldr	r4, [r2, #24]
    2fbe:	42a3      	cmp	r3, r4
    2fc0:	db08      	blt.n	2fd4 <__sfputc_r+0x24>
    2fc2:	b2cb      	uxtb	r3, r1
    2fc4:	2b0a      	cmp	r3, #10
    2fc6:	d005      	beq.n	2fd4 <__sfputc_r+0x24>
    2fc8:	6813      	ldr	r3, [r2, #0]
    2fca:	1c58      	adds	r0, r3, #1
    2fcc:	6010      	str	r0, [r2, #0]
    2fce:	7019      	strb	r1, [r3, #0]
    2fd0:	b2c8      	uxtb	r0, r1
    2fd2:	bd10      	pop	{r4, pc}
    2fd4:	f7ff fc74 	bl	28c0 <__swbuf_r>
    2fd8:	e7fb      	b.n	2fd2 <__sfputc_r+0x22>

00002fda <__sfputs_r>:
    2fda:	b5f8      	push	{r3, r4, r5, r6, r7, lr}
    2fdc:	0006      	movs	r6, r0
    2fde:	000f      	movs	r7, r1
    2fe0:	0014      	movs	r4, r2
    2fe2:	18d5      	adds	r5, r2, r3
    2fe4:	42ac      	cmp	r4, r5
    2fe6:	d101      	bne.n	2fec <__sfputs_r+0x12>
    2fe8:	2000      	movs	r0, #0
    2fea:	e007      	b.n	2ffc <__sfputs_r+0x22>
    2fec:	7821      	ldrb	r1, [r4, #0]
    2fee:	003a      	movs	r2, r7
    2ff0:	0030      	movs	r0, r6
    2ff2:	f7ff ffdd 	bl	2fb0 <__sfputc_r>
    2ff6:	3401      	adds	r4, #1
    2ff8:	1c43      	adds	r3, r0, #1
    2ffa:	d1f3      	bne.n	2fe4 <__sfputs_r+0xa>
    2ffc:	bdf8      	pop	{r3, r4, r5, r6, r7, pc}
	...

00003000 <_vfiprintf_r>:
    3000:	b5f0      	push	{r4, r5, r6, r7, lr}
    3002:	b09f      	sub	sp, #124	; 0x7c
    3004:	0006      	movs	r6, r0
    3006:	000f      	movs	r7, r1
    3008:	0014      	movs	r4, r2
    300a:	9305      	str	r3, [sp, #20]
    300c:	2800      	cmp	r0, #0
    300e:	d004      	beq.n	301a <_vfiprintf_r+0x1a>
    3010:	6983      	ldr	r3, [r0, #24]
    3012:	2b00      	cmp	r3, #0
    3014:	d101      	bne.n	301a <_vfiprintf_r+0x1a>
    3016:	f7ff fe17 	bl	2c48 <__sinit>
    301a:	4b7f      	ldr	r3, [pc, #508]	; (3218 <_vfiprintf_r+0x218>)
    301c:	429f      	cmp	r7, r3
    301e:	d15c      	bne.n	30da <_vfiprintf_r+0xda>
    3020:	6877      	ldr	r7, [r6, #4]
    3022:	89bb      	ldrh	r3, [r7, #12]
    3024:	071b      	lsls	r3, r3, #28
    3026:	d562      	bpl.n	30ee <_vfiprintf_r+0xee>
    3028:	693b      	ldr	r3, [r7, #16]
    302a:	2b00      	cmp	r3, #0
    302c:	d05f      	beq.n	30ee <_vfiprintf_r+0xee>
    302e:	2300      	movs	r3, #0
    3030:	ad06      	add	r5, sp, #24
    3032:	616b      	str	r3, [r5, #20]
    3034:	3320      	adds	r3, #32
    3036:	766b      	strb	r3, [r5, #25]
    3038:	3310      	adds	r3, #16
    303a:	76ab      	strb	r3, [r5, #26]
    303c:	9402      	str	r4, [sp, #8]
    303e:	9c02      	ldr	r4, [sp, #8]
    3040:	7823      	ldrb	r3, [r4, #0]
    3042:	2b00      	cmp	r3, #0
    3044:	d15d      	bne.n	3102 <_vfiprintf_r+0x102>
    3046:	9b02      	ldr	r3, [sp, #8]
    3048:	1ae3      	subs	r3, r4, r3
    304a:	9304      	str	r3, [sp, #16]
    304c:	d00d      	beq.n	306a <_vfiprintf_r+0x6a>
    304e:	9b04      	ldr	r3, [sp, #16]
    3050:	9a02      	ldr	r2, [sp, #8]
    3052:	0039      	movs	r1, r7
    3054:	0030      	movs	r0, r6
    3056:	f7ff ffc0 	bl	2fda <__sfputs_r>
    305a:	1c43      	adds	r3, r0, #1
    305c:	d100      	bne.n	3060 <_vfiprintf_r+0x60>
    305e:	e0cc      	b.n	31fa <_vfiprintf_r+0x1fa>
    3060:	696a      	ldr	r2, [r5, #20]
    3062:	9b04      	ldr	r3, [sp, #16]
    3064:	4694      	mov	ip, r2
    3066:	4463      	add	r3, ip
    3068:	616b      	str	r3, [r5, #20]
    306a:	7823      	ldrb	r3, [r4, #0]
    306c:	2b00      	cmp	r3, #0
    306e:	d100      	bne.n	3072 <_vfiprintf_r+0x72>
    3070:	e0c3      	b.n	31fa <_vfiprintf_r+0x1fa>
    3072:	2201      	movs	r2, #1
    3074:	2300      	movs	r3, #0
    3076:	4252      	negs	r2, r2
    3078:	606a      	str	r2, [r5, #4]
    307a:	a902      	add	r1, sp, #8
    307c:	3254      	adds	r2, #84	; 0x54
    307e:	1852      	adds	r2, r2, r1
    3080:	3401      	adds	r4, #1
    3082:	602b      	str	r3, [r5, #0]
    3084:	60eb      	str	r3, [r5, #12]
    3086:	60ab      	str	r3, [r5, #8]
    3088:	7013      	strb	r3, [r2, #0]
    308a:	65ab      	str	r3, [r5, #88]	; 0x58
    308c:	7821      	ldrb	r1, [r4, #0]
    308e:	2205      	movs	r2, #5
    3090:	4862      	ldr	r0, [pc, #392]	; (321c <_vfiprintf_r+0x21c>)
    3092:	f000 fb15 	bl	36c0 <memchr>
    3096:	1c63      	adds	r3, r4, #1
    3098:	469c      	mov	ip, r3
    309a:	2800      	cmp	r0, #0
    309c:	d135      	bne.n	310a <_vfiprintf_r+0x10a>
    309e:	6829      	ldr	r1, [r5, #0]
    30a0:	06cb      	lsls	r3, r1, #27
    30a2:	d504      	bpl.n	30ae <_vfiprintf_r+0xae>
    30a4:	2353      	movs	r3, #83	; 0x53
    30a6:	aa02      	add	r2, sp, #8
    30a8:	3020      	adds	r0, #32
    30aa:	189b      	adds	r3, r3, r2
    30ac:	7018      	strb	r0, [r3, #0]
    30ae:	070b      	lsls	r3, r1, #28
    30b0:	d504      	bpl.n	30bc <_vfiprintf_r+0xbc>
    30b2:	2353      	movs	r3, #83	; 0x53
    30b4:	202b      	movs	r0, #43	; 0x2b
    30b6:	aa02      	add	r2, sp, #8
    30b8:	189b      	adds	r3, r3, r2
    30ba:	7018      	strb	r0, [r3, #0]
    30bc:	7823      	ldrb	r3, [r4, #0]
    30be:	2b2a      	cmp	r3, #42	; 0x2a
    30c0:	d02c      	beq.n	311c <_vfiprintf_r+0x11c>
    30c2:	2000      	movs	r0, #0
    30c4:	210a      	movs	r1, #10
    30c6:	9b09      	ldr	r3, [sp, #36]	; 0x24
    30c8:	7822      	ldrb	r2, [r4, #0]
    30ca:	3a30      	subs	r2, #48	; 0x30
    30cc:	2a09      	cmp	r2, #9
    30ce:	d800      	bhi.n	30d2 <_vfiprintf_r+0xd2>
    30d0:	e06b      	b.n	31aa <_vfiprintf_r+0x1aa>
    30d2:	2800      	cmp	r0, #0
    30d4:	d02a      	beq.n	312c <_vfiprintf_r+0x12c>
    30d6:	9309      	str	r3, [sp, #36]	; 0x24
    30d8:	e028      	b.n	312c <_vfiprintf_r+0x12c>
    30da:	4b51      	ldr	r3, [pc, #324]	; (3220 <_vfiprintf_r+0x220>)
    30dc:	429f      	cmp	r7, r3
    30de:	d101      	bne.n	30e4 <_vfiprintf_r+0xe4>
    30e0:	68b7      	ldr	r7, [r6, #8]
    30e2:	e79e      	b.n	3022 <_vfiprintf_r+0x22>
    30e4:	4b4f      	ldr	r3, [pc, #316]	; (3224 <_vfiprintf_r+0x224>)
    30e6:	429f      	cmp	r7, r3
    30e8:	d19b      	bne.n	3022 <_vfiprintf_r+0x22>
    30ea:	68f7      	ldr	r7, [r6, #12]
    30ec:	e799      	b.n	3022 <_vfiprintf_r+0x22>
    30ee:	0039      	movs	r1, r7
    30f0:	0030      	movs	r0, r6
    30f2:	f7ff fc3b 	bl	296c <__swsetup_r>
    30f6:	2800      	cmp	r0, #0
    30f8:	d099      	beq.n	302e <_vfiprintf_r+0x2e>
    30fa:	2001      	movs	r0, #1
    30fc:	4240      	negs	r0, r0
    30fe:	b01f      	add	sp, #124	; 0x7c
    3100:	bdf0      	pop	{r4, r5, r6, r7, pc}
    3102:	2b25      	cmp	r3, #37	; 0x25
    3104:	d09f      	beq.n	3046 <_vfiprintf_r+0x46>
    3106:	3401      	adds	r4, #1
    3108:	e79a      	b.n	3040 <_vfiprintf_r+0x40>
    310a:	4b44      	ldr	r3, [pc, #272]	; (321c <_vfiprintf_r+0x21c>)
    310c:	6829      	ldr	r1, [r5, #0]
    310e:	1ac0      	subs	r0, r0, r3
    3110:	2301      	movs	r3, #1
    3112:	4083      	lsls	r3, r0
    3114:	430b      	orrs	r3, r1
    3116:	602b      	str	r3, [r5, #0]
    3118:	4664      	mov	r4, ip
    311a:	e7b7      	b.n	308c <_vfiprintf_r+0x8c>
    311c:	9b05      	ldr	r3, [sp, #20]
    311e:	1d18      	adds	r0, r3, #4
    3120:	681b      	ldr	r3, [r3, #0]
    3122:	9005      	str	r0, [sp, #20]
    3124:	2b00      	cmp	r3, #0
    3126:	db3a      	blt.n	319e <_vfiprintf_r+0x19e>
    3128:	9309      	str	r3, [sp, #36]	; 0x24
    312a:	4664      	mov	r4, ip
    312c:	7823      	ldrb	r3, [r4, #0]
    312e:	2b2e      	cmp	r3, #46	; 0x2e
    3130:	d10b      	bne.n	314a <_vfiprintf_r+0x14a>
    3132:	7863      	ldrb	r3, [r4, #1]
    3134:	1c62      	adds	r2, r4, #1
    3136:	2b2a      	cmp	r3, #42	; 0x2a
    3138:	d13f      	bne.n	31ba <_vfiprintf_r+0x1ba>
    313a:	9b05      	ldr	r3, [sp, #20]
    313c:	3402      	adds	r4, #2
    313e:	1d1a      	adds	r2, r3, #4
    3140:	681b      	ldr	r3, [r3, #0]
    3142:	9205      	str	r2, [sp, #20]
    3144:	2b00      	cmp	r3, #0
    3146:	db35      	blt.n	31b4 <_vfiprintf_r+0x1b4>
    3148:	9307      	str	r3, [sp, #28]
    314a:	7821      	ldrb	r1, [r4, #0]
    314c:	2203      	movs	r2, #3
    314e:	4836      	ldr	r0, [pc, #216]	; (3228 <_vfiprintf_r+0x228>)
    3150:	f000 fab6 	bl	36c0 <memchr>
    3154:	2800      	cmp	r0, #0
    3156:	d007      	beq.n	3168 <_vfiprintf_r+0x168>
    3158:	4b33      	ldr	r3, [pc, #204]	; (3228 <_vfiprintf_r+0x228>)
    315a:	682a      	ldr	r2, [r5, #0]
    315c:	1ac0      	subs	r0, r0, r3
    315e:	2340      	movs	r3, #64	; 0x40
    3160:	4083      	lsls	r3, r0
    3162:	4313      	orrs	r3, r2
    3164:	602b      	str	r3, [r5, #0]
    3166:	3401      	adds	r4, #1
    3168:	7821      	ldrb	r1, [r4, #0]
    316a:	1c63      	adds	r3, r4, #1
    316c:	2206      	movs	r2, #6
    316e:	482f      	ldr	r0, [pc, #188]	; (322c <_vfiprintf_r+0x22c>)
    3170:	9302      	str	r3, [sp, #8]
    3172:	7629      	strb	r1, [r5, #24]
    3174:	f000 faa4 	bl	36c0 <memchr>
    3178:	2800      	cmp	r0, #0
    317a:	d044      	beq.n	3206 <_vfiprintf_r+0x206>
    317c:	4b2c      	ldr	r3, [pc, #176]	; (3230 <_vfiprintf_r+0x230>)
    317e:	2b00      	cmp	r3, #0
    3180:	d12f      	bne.n	31e2 <_vfiprintf_r+0x1e2>
    3182:	6829      	ldr	r1, [r5, #0]
    3184:	9b05      	ldr	r3, [sp, #20]
    3186:	2207      	movs	r2, #7
    3188:	05c9      	lsls	r1, r1, #23
    318a:	d528      	bpl.n	31de <_vfiprintf_r+0x1de>
    318c:	189b      	adds	r3, r3, r2
    318e:	4393      	bics	r3, r2
    3190:	3308      	adds	r3, #8
    3192:	9305      	str	r3, [sp, #20]
    3194:	696b      	ldr	r3, [r5, #20]
    3196:	9a03      	ldr	r2, [sp, #12]
    3198:	189b      	adds	r3, r3, r2
    319a:	616b      	str	r3, [r5, #20]
    319c:	e74f      	b.n	303e <_vfiprintf_r+0x3e>
    319e:	425b      	negs	r3, r3
    31a0:	60eb      	str	r3, [r5, #12]
    31a2:	2302      	movs	r3, #2
    31a4:	430b      	orrs	r3, r1
    31a6:	602b      	str	r3, [r5, #0]
    31a8:	e7bf      	b.n	312a <_vfiprintf_r+0x12a>
    31aa:	434b      	muls	r3, r1
    31ac:	3401      	adds	r4, #1
    31ae:	189b      	adds	r3, r3, r2
    31b0:	2001      	movs	r0, #1
    31b2:	e789      	b.n	30c8 <_vfiprintf_r+0xc8>
    31b4:	2301      	movs	r3, #1
    31b6:	425b      	negs	r3, r3
    31b8:	e7c6      	b.n	3148 <_vfiprintf_r+0x148>
    31ba:	2300      	movs	r3, #0
    31bc:	0014      	movs	r4, r2
    31be:	200a      	movs	r0, #10
    31c0:	001a      	movs	r2, r3
    31c2:	606b      	str	r3, [r5, #4]
    31c4:	7821      	ldrb	r1, [r4, #0]
    31c6:	3930      	subs	r1, #48	; 0x30
    31c8:	2909      	cmp	r1, #9
    31ca:	d903      	bls.n	31d4 <_vfiprintf_r+0x1d4>
    31cc:	2b00      	cmp	r3, #0
    31ce:	d0bc      	beq.n	314a <_vfiprintf_r+0x14a>
    31d0:	9207      	str	r2, [sp, #28]
    31d2:	e7ba      	b.n	314a <_vfiprintf_r+0x14a>
    31d4:	4342      	muls	r2, r0
    31d6:	3401      	adds	r4, #1
    31d8:	1852      	adds	r2, r2, r1
    31da:	2301      	movs	r3, #1
    31dc:	e7f2      	b.n	31c4 <_vfiprintf_r+0x1c4>
    31de:	3307      	adds	r3, #7
    31e0:	e7d5      	b.n	318e <_vfiprintf_r+0x18e>
    31e2:	ab05      	add	r3, sp, #20
    31e4:	9300      	str	r3, [sp, #0]
    31e6:	003a      	movs	r2, r7
    31e8:	4b12      	ldr	r3, [pc, #72]	; (3234 <_vfiprintf_r+0x234>)
    31ea:	0029      	movs	r1, r5
    31ec:	0030      	movs	r0, r6
    31ee:	e000      	b.n	31f2 <_vfiprintf_r+0x1f2>
    31f0:	bf00      	nop
    31f2:	9003      	str	r0, [sp, #12]
    31f4:	9b03      	ldr	r3, [sp, #12]
    31f6:	3301      	adds	r3, #1
    31f8:	d1cc      	bne.n	3194 <_vfiprintf_r+0x194>
    31fa:	89bb      	ldrh	r3, [r7, #12]
    31fc:	065b      	lsls	r3, r3, #25
    31fe:	d500      	bpl.n	3202 <_vfiprintf_r+0x202>
    3200:	e77b      	b.n	30fa <_vfiprintf_r+0xfa>
    3202:	980b      	ldr	r0, [sp, #44]	; 0x2c
    3204:	e77b      	b.n	30fe <_vfiprintf_r+0xfe>
    3206:	ab05      	add	r3, sp, #20
    3208:	9300      	str	r3, [sp, #0]
    320a:	003a      	movs	r2, r7
    320c:	4b09      	ldr	r3, [pc, #36]	; (3234 <_vfiprintf_r+0x234>)
    320e:	0029      	movs	r1, r5
    3210:	0030      	movs	r0, r6
    3212:	f000 f87f 	bl	3314 <_printf_i>
    3216:	e7ec      	b.n	31f2 <_vfiprintf_r+0x1f2>
    3218:	000039c0 	.word	0x000039c0
    321c:	00003a00 	.word	0x00003a00
    3220:	000039e0 	.word	0x000039e0
    3224:	000039a0 	.word	0x000039a0
    3228:	00003a06 	.word	0x00003a06
    322c:	00003a0a 	.word	0x00003a0a
    3230:	00000000 	.word	0x00000000
    3234:	00002fdb 	.word	0x00002fdb

00003238 <_printf_common>:
    3238:	b5f7      	push	{r0, r1, r2, r4, r5, r6, r7, lr}
    323a:	0015      	movs	r5, r2
    323c:	9301      	str	r3, [sp, #4]
    323e:	688a      	ldr	r2, [r1, #8]
    3240:	690b      	ldr	r3, [r1, #16]
    3242:	9000      	str	r0, [sp, #0]
    3244:	000c      	movs	r4, r1
    3246:	4293      	cmp	r3, r2
    3248:	da00      	bge.n	324c <_printf_common+0x14>
    324a:	0013      	movs	r3, r2
    324c:	0022      	movs	r2, r4
    324e:	602b      	str	r3, [r5, #0]
    3250:	3243      	adds	r2, #67	; 0x43
    3252:	7812      	ldrb	r2, [r2, #0]
    3254:	2a00      	cmp	r2, #0
    3256:	d001      	beq.n	325c <_printf_common+0x24>
    3258:	3301      	adds	r3, #1
    325a:	602b      	str	r3, [r5, #0]
    325c:	6823      	ldr	r3, [r4, #0]
    325e:	069b      	lsls	r3, r3, #26
    3260:	d502      	bpl.n	3268 <_printf_common+0x30>
    3262:	682b      	ldr	r3, [r5, #0]
    3264:	3302      	adds	r3, #2
    3266:	602b      	str	r3, [r5, #0]
    3268:	2706      	movs	r7, #6
    326a:	6823      	ldr	r3, [r4, #0]
    326c:	401f      	ands	r7, r3
    326e:	d027      	beq.n	32c0 <_printf_common+0x88>
    3270:	0023      	movs	r3, r4
    3272:	3343      	adds	r3, #67	; 0x43
    3274:	781b      	ldrb	r3, [r3, #0]
    3276:	1e5a      	subs	r2, r3, #1
    3278:	4193      	sbcs	r3, r2
    327a:	6822      	ldr	r2, [r4, #0]
    327c:	0692      	lsls	r2, r2, #26
    327e:	d430      	bmi.n	32e2 <_printf_common+0xaa>
    3280:	0022      	movs	r2, r4
    3282:	9901      	ldr	r1, [sp, #4]
    3284:	3243      	adds	r2, #67	; 0x43
    3286:	9800      	ldr	r0, [sp, #0]
    3288:	9e08      	ldr	r6, [sp, #32]
    328a:	47b0      	blx	r6
    328c:	1c43      	adds	r3, r0, #1
    328e:	d025      	beq.n	32dc <_printf_common+0xa4>
    3290:	2306      	movs	r3, #6
    3292:	6820      	ldr	r0, [r4, #0]
    3294:	682a      	ldr	r2, [r5, #0]
    3296:	68e1      	ldr	r1, [r4, #12]
    3298:	4003      	ands	r3, r0
    329a:	2500      	movs	r5, #0
    329c:	2b04      	cmp	r3, #4
    329e:	d103      	bne.n	32a8 <_printf_common+0x70>
    32a0:	1a8d      	subs	r5, r1, r2
    32a2:	43eb      	mvns	r3, r5
    32a4:	17db      	asrs	r3, r3, #31
    32a6:	401d      	ands	r5, r3
    32a8:	68a3      	ldr	r3, [r4, #8]
    32aa:	6922      	ldr	r2, [r4, #16]
    32ac:	4293      	cmp	r3, r2
    32ae:	dd01      	ble.n	32b4 <_printf_common+0x7c>
    32b0:	1a9b      	subs	r3, r3, r2
    32b2:	18ed      	adds	r5, r5, r3
    32b4:	2700      	movs	r7, #0
    32b6:	42bd      	cmp	r5, r7
    32b8:	d120      	bne.n	32fc <_printf_common+0xc4>
    32ba:	2000      	movs	r0, #0
    32bc:	e010      	b.n	32e0 <_printf_common+0xa8>
    32be:	3701      	adds	r7, #1
    32c0:	68e3      	ldr	r3, [r4, #12]
    32c2:	682a      	ldr	r2, [r5, #0]
    32c4:	1a9b      	subs	r3, r3, r2
    32c6:	429f      	cmp	r7, r3
    32c8:	dad2      	bge.n	3270 <_printf_common+0x38>
    32ca:	0022      	movs	r2, r4
    32cc:	2301      	movs	r3, #1
    32ce:	3219      	adds	r2, #25
    32d0:	9901      	ldr	r1, [sp, #4]
    32d2:	9800      	ldr	r0, [sp, #0]
    32d4:	9e08      	ldr	r6, [sp, #32]
    32d6:	47b0      	blx	r6
    32d8:	1c43      	adds	r3, r0, #1
    32da:	d1f0      	bne.n	32be <_printf_common+0x86>
    32dc:	2001      	movs	r0, #1
    32de:	4240      	negs	r0, r0
    32e0:	bdfe      	pop	{r1, r2, r3, r4, r5, r6, r7, pc}
    32e2:	2030      	movs	r0, #48	; 0x30
    32e4:	18e1      	adds	r1, r4, r3
    32e6:	3143      	adds	r1, #67	; 0x43
    32e8:	7008      	strb	r0, [r1, #0]
    32ea:	0021      	movs	r1, r4
    32ec:	1c5a      	adds	r2, r3, #1
    32ee:	3145      	adds	r1, #69	; 0x45
    32f0:	7809      	ldrb	r1, [r1, #0]
    32f2:	18a2      	adds	r2, r4, r2
    32f4:	3243      	adds	r2, #67	; 0x43
    32f6:	3302      	adds	r3, #2
    32f8:	7011      	strb	r1, [r2, #0]
    32fa:	e7c1      	b.n	3280 <_printf_common+0x48>
    32fc:	0022      	movs	r2, r4
    32fe:	2301      	movs	r3, #1
    3300:	321a      	adds	r2, #26
    3302:	9901      	ldr	r1, [sp, #4]
    3304:	9800      	ldr	r0, [sp, #0]
    3306:	9e08      	ldr	r6, [sp, #32]
    3308:	47b0      	blx	r6
    330a:	1c43      	adds	r3, r0, #1
    330c:	d0e6      	beq.n	32dc <_printf_common+0xa4>
    330e:	3701      	adds	r7, #1
    3310:	e7d1      	b.n	32b6 <_printf_common+0x7e>
	...

00003314 <_printf_i>:
    3314:	b5f0      	push	{r4, r5, r6, r7, lr}
    3316:	b08b      	sub	sp, #44	; 0x2c
    3318:	9206      	str	r2, [sp, #24]
    331a:	000a      	movs	r2, r1
    331c:	3243      	adds	r2, #67	; 0x43
    331e:	9307      	str	r3, [sp, #28]
    3320:	9005      	str	r0, [sp, #20]
    3322:	9204      	str	r2, [sp, #16]
    3324:	7e0a      	ldrb	r2, [r1, #24]
    3326:	000c      	movs	r4, r1
    3328:	9b10      	ldr	r3, [sp, #64]	; 0x40
    332a:	2a6e      	cmp	r2, #110	; 0x6e
    332c:	d100      	bne.n	3330 <_printf_i+0x1c>
    332e:	e08f      	b.n	3450 <_printf_i+0x13c>
    3330:	d817      	bhi.n	3362 <_printf_i+0x4e>
    3332:	2a63      	cmp	r2, #99	; 0x63
    3334:	d02c      	beq.n	3390 <_printf_i+0x7c>
    3336:	d808      	bhi.n	334a <_printf_i+0x36>
    3338:	2a00      	cmp	r2, #0
    333a:	d100      	bne.n	333e <_printf_i+0x2a>
    333c:	e099      	b.n	3472 <_printf_i+0x15e>
    333e:	2a58      	cmp	r2, #88	; 0x58
    3340:	d054      	beq.n	33ec <_printf_i+0xd8>
    3342:	0026      	movs	r6, r4
    3344:	3642      	adds	r6, #66	; 0x42
    3346:	7032      	strb	r2, [r6, #0]
    3348:	e029      	b.n	339e <_printf_i+0x8a>
    334a:	2a64      	cmp	r2, #100	; 0x64
    334c:	d001      	beq.n	3352 <_printf_i+0x3e>
    334e:	2a69      	cmp	r2, #105	; 0x69
    3350:	d1f7      	bne.n	3342 <_printf_i+0x2e>
    3352:	6821      	ldr	r1, [r4, #0]
    3354:	681a      	ldr	r2, [r3, #0]
    3356:	0608      	lsls	r0, r1, #24
    3358:	d523      	bpl.n	33a2 <_printf_i+0x8e>
    335a:	1d11      	adds	r1, r2, #4
    335c:	6019      	str	r1, [r3, #0]
    335e:	6815      	ldr	r5, [r2, #0]
    3360:	e025      	b.n	33ae <_printf_i+0x9a>
    3362:	2a73      	cmp	r2, #115	; 0x73
    3364:	d100      	bne.n	3368 <_printf_i+0x54>
    3366:	e088      	b.n	347a <_printf_i+0x166>
    3368:	d808      	bhi.n	337c <_printf_i+0x68>
    336a:	2a6f      	cmp	r2, #111	; 0x6f
    336c:	d029      	beq.n	33c2 <_printf_i+0xae>
    336e:	2a70      	cmp	r2, #112	; 0x70
    3370:	d1e7      	bne.n	3342 <_printf_i+0x2e>
    3372:	2220      	movs	r2, #32
    3374:	6809      	ldr	r1, [r1, #0]
    3376:	430a      	orrs	r2, r1
    3378:	6022      	str	r2, [r4, #0]
    337a:	e003      	b.n	3384 <_printf_i+0x70>
    337c:	2a75      	cmp	r2, #117	; 0x75
    337e:	d020      	beq.n	33c2 <_printf_i+0xae>
    3380:	2a78      	cmp	r2, #120	; 0x78
    3382:	d1de      	bne.n	3342 <_printf_i+0x2e>
    3384:	0022      	movs	r2, r4
    3386:	2178      	movs	r1, #120	; 0x78
    3388:	3245      	adds	r2, #69	; 0x45
    338a:	7011      	strb	r1, [r2, #0]
    338c:	4a6c      	ldr	r2, [pc, #432]	; (3540 <_printf_i+0x22c>)
    338e:	e030      	b.n	33f2 <_printf_i+0xde>
    3390:	000e      	movs	r6, r1
    3392:	681a      	ldr	r2, [r3, #0]
    3394:	3642      	adds	r6, #66	; 0x42
    3396:	1d11      	adds	r1, r2, #4
    3398:	6019      	str	r1, [r3, #0]
    339a:	6813      	ldr	r3, [r2, #0]
    339c:	7033      	strb	r3, [r6, #0]
    339e:	2301      	movs	r3, #1
    33a0:	e079      	b.n	3496 <_printf_i+0x182>
    33a2:	0649      	lsls	r1, r1, #25
    33a4:	d5d9      	bpl.n	335a <_printf_i+0x46>
    33a6:	1d11      	adds	r1, r2, #4
    33a8:	6019      	str	r1, [r3, #0]
    33aa:	2300      	movs	r3, #0
    33ac:	5ed5      	ldrsh	r5, [r2, r3]
    33ae:	2d00      	cmp	r5, #0
    33b0:	da03      	bge.n	33ba <_printf_i+0xa6>
    33b2:	232d      	movs	r3, #45	; 0x2d
    33b4:	9a04      	ldr	r2, [sp, #16]
    33b6:	426d      	negs	r5, r5
    33b8:	7013      	strb	r3, [r2, #0]
    33ba:	4b62      	ldr	r3, [pc, #392]	; (3544 <_printf_i+0x230>)
    33bc:	270a      	movs	r7, #10
    33be:	9303      	str	r3, [sp, #12]
    33c0:	e02f      	b.n	3422 <_printf_i+0x10e>
    33c2:	6820      	ldr	r0, [r4, #0]
    33c4:	6819      	ldr	r1, [r3, #0]
    33c6:	0605      	lsls	r5, r0, #24
    33c8:	d503      	bpl.n	33d2 <_printf_i+0xbe>
    33ca:	1d08      	adds	r0, r1, #4
    33cc:	6018      	str	r0, [r3, #0]
    33ce:	680d      	ldr	r5, [r1, #0]
    33d0:	e005      	b.n	33de <_printf_i+0xca>
    33d2:	0640      	lsls	r0, r0, #25
    33d4:	d5f9      	bpl.n	33ca <_printf_i+0xb6>
    33d6:	680d      	ldr	r5, [r1, #0]
    33d8:	1d08      	adds	r0, r1, #4
    33da:	6018      	str	r0, [r3, #0]
    33dc:	b2ad      	uxth	r5, r5
    33de:	4b59      	ldr	r3, [pc, #356]	; (3544 <_printf_i+0x230>)
    33e0:	2708      	movs	r7, #8
    33e2:	9303      	str	r3, [sp, #12]
    33e4:	2a6f      	cmp	r2, #111	; 0x6f
    33e6:	d018      	beq.n	341a <_printf_i+0x106>
    33e8:	270a      	movs	r7, #10
    33ea:	e016      	b.n	341a <_printf_i+0x106>
    33ec:	3145      	adds	r1, #69	; 0x45
    33ee:	700a      	strb	r2, [r1, #0]
    33f0:	4a54      	ldr	r2, [pc, #336]	; (3544 <_printf_i+0x230>)
    33f2:	9203      	str	r2, [sp, #12]
    33f4:	681a      	ldr	r2, [r3, #0]
    33f6:	6821      	ldr	r1, [r4, #0]
    33f8:	1d10      	adds	r0, r2, #4
    33fa:	6018      	str	r0, [r3, #0]
    33fc:	6815      	ldr	r5, [r2, #0]
    33fe:	0608      	lsls	r0, r1, #24
    3400:	d522      	bpl.n	3448 <_printf_i+0x134>
    3402:	07cb      	lsls	r3, r1, #31
    3404:	d502      	bpl.n	340c <_printf_i+0xf8>
    3406:	2320      	movs	r3, #32
    3408:	4319      	orrs	r1, r3
    340a:	6021      	str	r1, [r4, #0]
    340c:	2710      	movs	r7, #16
    340e:	2d00      	cmp	r5, #0
    3410:	d103      	bne.n	341a <_printf_i+0x106>
    3412:	2320      	movs	r3, #32
    3414:	6822      	ldr	r2, [r4, #0]
    3416:	439a      	bics	r2, r3
    3418:	6022      	str	r2, [r4, #0]
    341a:	0023      	movs	r3, r4
    341c:	2200      	movs	r2, #0
    341e:	3343      	adds	r3, #67	; 0x43
    3420:	701a      	strb	r2, [r3, #0]
    3422:	6863      	ldr	r3, [r4, #4]
    3424:	60a3      	str	r3, [r4, #8]
    3426:	2b00      	cmp	r3, #0
    3428:	db5c      	blt.n	34e4 <_printf_i+0x1d0>
    342a:	2204      	movs	r2, #4
    342c:	6821      	ldr	r1, [r4, #0]
    342e:	4391      	bics	r1, r2
    3430:	6021      	str	r1, [r4, #0]
    3432:	2d00      	cmp	r5, #0
    3434:	d158      	bne.n	34e8 <_printf_i+0x1d4>
    3436:	9e04      	ldr	r6, [sp, #16]
    3438:	2b00      	cmp	r3, #0
    343a:	d064      	beq.n	3506 <_printf_i+0x1f2>
    343c:	0026      	movs	r6, r4
    343e:	9b03      	ldr	r3, [sp, #12]
    3440:	3642      	adds	r6, #66	; 0x42
    3442:	781b      	ldrb	r3, [r3, #0]
    3444:	7033      	strb	r3, [r6, #0]
    3446:	e05e      	b.n	3506 <_printf_i+0x1f2>
    3448:	0648      	lsls	r0, r1, #25
    344a:	d5da      	bpl.n	3402 <_printf_i+0xee>
    344c:	b2ad      	uxth	r5, r5
    344e:	e7d8      	b.n	3402 <_printf_i+0xee>
    3450:	6809      	ldr	r1, [r1, #0]
    3452:	681a      	ldr	r2, [r3, #0]
    3454:	0608      	lsls	r0, r1, #24
    3456:	d505      	bpl.n	3464 <_printf_i+0x150>
    3458:	1d11      	adds	r1, r2, #4
    345a:	6019      	str	r1, [r3, #0]
    345c:	6813      	ldr	r3, [r2, #0]
    345e:	6962      	ldr	r2, [r4, #20]
    3460:	601a      	str	r2, [r3, #0]
    3462:	e006      	b.n	3472 <_printf_i+0x15e>
    3464:	0649      	lsls	r1, r1, #25
    3466:	d5f7      	bpl.n	3458 <_printf_i+0x144>
    3468:	1d11      	adds	r1, r2, #4
    346a:	6019      	str	r1, [r3, #0]
    346c:	6813      	ldr	r3, [r2, #0]
    346e:	8aa2      	ldrh	r2, [r4, #20]
    3470:	801a      	strh	r2, [r3, #0]
    3472:	2300      	movs	r3, #0
    3474:	9e04      	ldr	r6, [sp, #16]
    3476:	6123      	str	r3, [r4, #16]
    3478:	e054      	b.n	3524 <_printf_i+0x210>
    347a:	681a      	ldr	r2, [r3, #0]
    347c:	1d11      	adds	r1, r2, #4
    347e:	6019      	str	r1, [r3, #0]
    3480:	6816      	ldr	r6, [r2, #0]
    3482:	2100      	movs	r1, #0
    3484:	6862      	ldr	r2, [r4, #4]
    3486:	0030      	movs	r0, r6
    3488:	f000 f91a 	bl	36c0 <memchr>
    348c:	2800      	cmp	r0, #0
    348e:	d001      	beq.n	3494 <_printf_i+0x180>
    3490:	1b80      	subs	r0, r0, r6
    3492:	6060      	str	r0, [r4, #4]
    3494:	6863      	ldr	r3, [r4, #4]
    3496:	6123      	str	r3, [r4, #16]
    3498:	2300      	movs	r3, #0
    349a:	9a04      	ldr	r2, [sp, #16]
    349c:	7013      	strb	r3, [r2, #0]
    349e:	e041      	b.n	3524 <_printf_i+0x210>
    34a0:	6923      	ldr	r3, [r4, #16]
    34a2:	0032      	movs	r2, r6
    34a4:	9906      	ldr	r1, [sp, #24]
    34a6:	9805      	ldr	r0, [sp, #20]
    34a8:	9d07      	ldr	r5, [sp, #28]
    34aa:	47a8      	blx	r5
    34ac:	1c43      	adds	r3, r0, #1
    34ae:	d043      	beq.n	3538 <_printf_i+0x224>
    34b0:	6823      	ldr	r3, [r4, #0]
    34b2:	2500      	movs	r5, #0
    34b4:	079b      	lsls	r3, r3, #30
    34b6:	d40f      	bmi.n	34d8 <_printf_i+0x1c4>
    34b8:	9b09      	ldr	r3, [sp, #36]	; 0x24
    34ba:	68e0      	ldr	r0, [r4, #12]
    34bc:	4298      	cmp	r0, r3
    34be:	da3d      	bge.n	353c <_printf_i+0x228>
    34c0:	0018      	movs	r0, r3
    34c2:	e03b      	b.n	353c <_printf_i+0x228>
    34c4:	0022      	movs	r2, r4
    34c6:	2301      	movs	r3, #1
    34c8:	3219      	adds	r2, #25
    34ca:	9906      	ldr	r1, [sp, #24]
    34cc:	9805      	ldr	r0, [sp, #20]
    34ce:	9e07      	ldr	r6, [sp, #28]
    34d0:	47b0      	blx	r6
    34d2:	1c43      	adds	r3, r0, #1
    34d4:	d030      	beq.n	3538 <_printf_i+0x224>
    34d6:	3501      	adds	r5, #1
    34d8:	68e3      	ldr	r3, [r4, #12]
    34da:	9a09      	ldr	r2, [sp, #36]	; 0x24
    34dc:	1a9b      	subs	r3, r3, r2
    34de:	429d      	cmp	r5, r3
    34e0:	dbf0      	blt.n	34c4 <_printf_i+0x1b0>
    34e2:	e7e9      	b.n	34b8 <_printf_i+0x1a4>
    34e4:	2d00      	cmp	r5, #0
    34e6:	d0a9      	beq.n	343c <_printf_i+0x128>
    34e8:	9e04      	ldr	r6, [sp, #16]
    34ea:	0028      	movs	r0, r5
    34ec:	0039      	movs	r1, r7
    34ee:	f7ff f845 	bl	257c <__aeabi_uidivmod>
    34f2:	9b03      	ldr	r3, [sp, #12]
    34f4:	3e01      	subs	r6, #1
    34f6:	5c5b      	ldrb	r3, [r3, r1]
    34f8:	0028      	movs	r0, r5
    34fa:	7033      	strb	r3, [r6, #0]
    34fc:	0039      	movs	r1, r7
    34fe:	f7fe ffb7 	bl	2470 <__udivsi3>
    3502:	1e05      	subs	r5, r0, #0
    3504:	d1f1      	bne.n	34ea <_printf_i+0x1d6>
    3506:	2f08      	cmp	r7, #8
    3508:	d109      	bne.n	351e <_printf_i+0x20a>
    350a:	6823      	ldr	r3, [r4, #0]
    350c:	07db      	lsls	r3, r3, #31
    350e:	d506      	bpl.n	351e <_printf_i+0x20a>
    3510:	6863      	ldr	r3, [r4, #4]
    3512:	6922      	ldr	r2, [r4, #16]
    3514:	4293      	cmp	r3, r2
    3516:	dc02      	bgt.n	351e <_printf_i+0x20a>
    3518:	2330      	movs	r3, #48	; 0x30
    351a:	3e01      	subs	r6, #1
    351c:	7033      	strb	r3, [r6, #0]
    351e:	9b04      	ldr	r3, [sp, #16]
    3520:	1b9b      	subs	r3, r3, r6
    3522:	6123      	str	r3, [r4, #16]
    3524:	9b07      	ldr	r3, [sp, #28]
    3526:	aa09      	add	r2, sp, #36	; 0x24
    3528:	9300      	str	r3, [sp, #0]
    352a:	0021      	movs	r1, r4
    352c:	9b06      	ldr	r3, [sp, #24]
    352e:	9805      	ldr	r0, [sp, #20]
    3530:	f7ff fe82 	bl	3238 <_printf_common>
    3534:	1c43      	adds	r3, r0, #1
    3536:	d1b3      	bne.n	34a0 <_printf_i+0x18c>
    3538:	2001      	movs	r0, #1
    353a:	4240      	negs	r0, r0
    353c:	b00b      	add	sp, #44	; 0x2c
    353e:	bdf0      	pop	{r4, r5, r6, r7, pc}
    3540:	00003a22 	.word	0x00003a22
    3544:	00003a11 	.word	0x00003a11

00003548 <_sbrk_r>:
    3548:	2300      	movs	r3, #0
    354a:	b570      	push	{r4, r5, r6, lr}
    354c:	4c06      	ldr	r4, [pc, #24]	; (3568 <_sbrk_r+0x20>)
    354e:	0005      	movs	r5, r0
    3550:	0008      	movs	r0, r1
    3552:	6023      	str	r3, [r4, #0]
    3554:	f7fe fc12 	bl	1d7c <_sbrk>
    3558:	1c43      	adds	r3, r0, #1
    355a:	d103      	bne.n	3564 <_sbrk_r+0x1c>
    355c:	6823      	ldr	r3, [r4, #0]
    355e:	2b00      	cmp	r3, #0
    3560:	d000      	beq.n	3564 <_sbrk_r+0x1c>
    3562:	602b      	str	r3, [r5, #0]
    3564:	bd70      	pop	{r4, r5, r6, pc}
    3566:	46c0      	nop			; (mov r8, r8)
    3568:	20000174 	.word	0x20000174

0000356c <__sread>:
    356c:	b570      	push	{r4, r5, r6, lr}
    356e:	000c      	movs	r4, r1
    3570:	250e      	movs	r5, #14
    3572:	5f49      	ldrsh	r1, [r1, r5]
    3574:	f000 f8b2 	bl	36dc <_read_r>
    3578:	2800      	cmp	r0, #0
    357a:	db03      	blt.n	3584 <__sread+0x18>
    357c:	6d63      	ldr	r3, [r4, #84]	; 0x54
    357e:	181b      	adds	r3, r3, r0
    3580:	6563      	str	r3, [r4, #84]	; 0x54
    3582:	bd70      	pop	{r4, r5, r6, pc}
    3584:	89a3      	ldrh	r3, [r4, #12]
    3586:	4a02      	ldr	r2, [pc, #8]	; (3590 <__sread+0x24>)
    3588:	4013      	ands	r3, r2
    358a:	81a3      	strh	r3, [r4, #12]
    358c:	e7f9      	b.n	3582 <__sread+0x16>
    358e:	46c0      	nop			; (mov r8, r8)
    3590:	ffffefff 	.word	0xffffefff

00003594 <__swrite>:
    3594:	b5f8      	push	{r3, r4, r5, r6, r7, lr}
    3596:	001f      	movs	r7, r3
    3598:	898b      	ldrh	r3, [r1, #12]
    359a:	0005      	movs	r5, r0
    359c:	000c      	movs	r4, r1
    359e:	0016      	movs	r6, r2
    35a0:	05db      	lsls	r3, r3, #23
    35a2:	d505      	bpl.n	35b0 <__swrite+0x1c>
    35a4:	230e      	movs	r3, #14
    35a6:	5ec9      	ldrsh	r1, [r1, r3]
    35a8:	2200      	movs	r2, #0
    35aa:	2302      	movs	r3, #2
    35ac:	f000 f874 	bl	3698 <_lseek_r>
    35b0:	89a3      	ldrh	r3, [r4, #12]
    35b2:	4a05      	ldr	r2, [pc, #20]	; (35c8 <__swrite+0x34>)
    35b4:	0028      	movs	r0, r5
    35b6:	4013      	ands	r3, r2
    35b8:	81a3      	strh	r3, [r4, #12]
    35ba:	0032      	movs	r2, r6
    35bc:	230e      	movs	r3, #14
    35be:	5ee1      	ldrsh	r1, [r4, r3]
    35c0:	003b      	movs	r3, r7
    35c2:	f000 f81f 	bl	3604 <_write_r>
    35c6:	bdf8      	pop	{r3, r4, r5, r6, r7, pc}
    35c8:	ffffefff 	.word	0xffffefff

000035cc <__sseek>:
    35cc:	b570      	push	{r4, r5, r6, lr}
    35ce:	000c      	movs	r4, r1
    35d0:	250e      	movs	r5, #14
    35d2:	5f49      	ldrsh	r1, [r1, r5]
    35d4:	f000 f860 	bl	3698 <_lseek_r>
    35d8:	89a3      	ldrh	r3, [r4, #12]
    35da:	1c42      	adds	r2, r0, #1
    35dc:	d103      	bne.n	35e6 <__sseek+0x1a>
    35de:	4a05      	ldr	r2, [pc, #20]	; (35f4 <__sseek+0x28>)
    35e0:	4013      	ands	r3, r2
    35e2:	81a3      	strh	r3, [r4, #12]
    35e4:	bd70      	pop	{r4, r5, r6, pc}
    35e6:	2280      	movs	r2, #128	; 0x80
    35e8:	0152      	lsls	r2, r2, #5
    35ea:	4313      	orrs	r3, r2
    35ec:	81a3      	strh	r3, [r4, #12]
    35ee:	6560      	str	r0, [r4, #84]	; 0x54
    35f0:	e7f8      	b.n	35e4 <__sseek+0x18>
    35f2:	46c0      	nop			; (mov r8, r8)
    35f4:	ffffefff 	.word	0xffffefff

000035f8 <__sclose>:
    35f8:	b510      	push	{r4, lr}
    35fa:	230e      	movs	r3, #14
    35fc:	5ec9      	ldrsh	r1, [r1, r3]
    35fe:	f000 f815 	bl	362c <_close_r>
    3602:	bd10      	pop	{r4, pc}

00003604 <_write_r>:
    3604:	b570      	push	{r4, r5, r6, lr}
    3606:	0005      	movs	r5, r0
    3608:	0008      	movs	r0, r1
    360a:	0011      	movs	r1, r2
    360c:	2200      	movs	r2, #0
    360e:	4c06      	ldr	r4, [pc, #24]	; (3628 <_write_r+0x24>)
    3610:	6022      	str	r2, [r4, #0]
    3612:	001a      	movs	r2, r3
    3614:	f7fe fb98 	bl	1d48 <_write>
    3618:	1c43      	adds	r3, r0, #1
    361a:	d103      	bne.n	3624 <_write_r+0x20>
    361c:	6823      	ldr	r3, [r4, #0]
    361e:	2b00      	cmp	r3, #0
    3620:	d000      	beq.n	3624 <_write_r+0x20>
    3622:	602b      	str	r3, [r5, #0]
    3624:	bd70      	pop	{r4, r5, r6, pc}
    3626:	46c0      	nop			; (mov r8, r8)
    3628:	20000174 	.word	0x20000174

0000362c <_close_r>:
    362c:	2300      	movs	r3, #0
    362e:	b570      	push	{r4, r5, r6, lr}
    3630:	4c06      	ldr	r4, [pc, #24]	; (364c <_close_r+0x20>)
    3632:	0005      	movs	r5, r0
    3634:	0008      	movs	r0, r1
    3636:	6023      	str	r3, [r4, #0]
    3638:	f7fe fbb0 	bl	1d9c <_close>
    363c:	1c43      	adds	r3, r0, #1
    363e:	d103      	bne.n	3648 <_close_r+0x1c>
    3640:	6823      	ldr	r3, [r4, #0]
    3642:	2b00      	cmp	r3, #0
    3644:	d000      	beq.n	3648 <_close_r+0x1c>
    3646:	602b      	str	r3, [r5, #0]
    3648:	bd70      	pop	{r4, r5, r6, pc}
    364a:	46c0      	nop			; (mov r8, r8)
    364c:	20000174 	.word	0x20000174

00003650 <_fstat_r>:
    3650:	2300      	movs	r3, #0
    3652:	b570      	push	{r4, r5, r6, lr}
    3654:	4c06      	ldr	r4, [pc, #24]	; (3670 <_fstat_r+0x20>)
    3656:	0005      	movs	r5, r0
    3658:	0008      	movs	r0, r1
    365a:	0011      	movs	r1, r2
    365c:	6023      	str	r3, [r4, #0]
    365e:	f7fe fba0 	bl	1da2 <_fstat>
    3662:	1c43      	adds	r3, r0, #1
    3664:	d103      	bne.n	366e <_fstat_r+0x1e>
    3666:	6823      	ldr	r3, [r4, #0]
    3668:	2b00      	cmp	r3, #0
    366a:	d000      	beq.n	366e <_fstat_r+0x1e>
    366c:	602b      	str	r3, [r5, #0]
    366e:	bd70      	pop	{r4, r5, r6, pc}
    3670:	20000174 	.word	0x20000174

00003674 <_isatty_r>:
    3674:	2300      	movs	r3, #0
    3676:	b570      	push	{r4, r5, r6, lr}
    3678:	4c06      	ldr	r4, [pc, #24]	; (3694 <_isatty_r+0x20>)
    367a:	0005      	movs	r5, r0
    367c:	0008      	movs	r0, r1
    367e:	6023      	str	r3, [r4, #0]
    3680:	f7fe fb94 	bl	1dac <_isatty>
    3684:	1c43      	adds	r3, r0, #1
    3686:	d103      	bne.n	3690 <_isatty_r+0x1c>
    3688:	6823      	ldr	r3, [r4, #0]
    368a:	2b00      	cmp	r3, #0
    368c:	d000      	beq.n	3690 <_isatty_r+0x1c>
    368e:	602b      	str	r3, [r5, #0]
    3690:	bd70      	pop	{r4, r5, r6, pc}
    3692:	46c0      	nop			; (mov r8, r8)
    3694:	20000174 	.word	0x20000174

00003698 <_lseek_r>:
    3698:	b570      	push	{r4, r5, r6, lr}
    369a:	0005      	movs	r5, r0
    369c:	0008      	movs	r0, r1
    369e:	0011      	movs	r1, r2
    36a0:	2200      	movs	r2, #0
    36a2:	4c06      	ldr	r4, [pc, #24]	; (36bc <_lseek_r+0x24>)
    36a4:	6022      	str	r2, [r4, #0]
    36a6:	001a      	movs	r2, r3
    36a8:	f7fe fb82 	bl	1db0 <_lseek>
    36ac:	1c43      	adds	r3, r0, #1
    36ae:	d103      	bne.n	36b8 <_lseek_r+0x20>
    36b0:	6823      	ldr	r3, [r4, #0]
    36b2:	2b00      	cmp	r3, #0
    36b4:	d000      	beq.n	36b8 <_lseek_r+0x20>
    36b6:	602b      	str	r3, [r5, #0]
    36b8:	bd70      	pop	{r4, r5, r6, pc}
    36ba:	46c0      	nop			; (mov r8, r8)
    36bc:	20000174 	.word	0x20000174

000036c0 <memchr>:
    36c0:	b2c9      	uxtb	r1, r1
    36c2:	1882      	adds	r2, r0, r2
    36c4:	4290      	cmp	r0, r2
    36c6:	d101      	bne.n	36cc <memchr+0xc>
    36c8:	2000      	movs	r0, #0
    36ca:	4770      	bx	lr
    36cc:	7803      	ldrb	r3, [r0, #0]
    36ce:	428b      	cmp	r3, r1
    36d0:	d0fb      	beq.n	36ca <memchr+0xa>
    36d2:	3001      	adds	r0, #1
    36d4:	e7f6      	b.n	36c4 <memchr+0x4>

000036d6 <__malloc_lock>:
    36d6:	4770      	bx	lr

000036d8 <__malloc_unlock>:
    36d8:	4770      	bx	lr
	...

000036dc <_read_r>:
    36dc:	b570      	push	{r4, r5, r6, lr}
    36de:	0005      	movs	r5, r0
    36e0:	0008      	movs	r0, r1
    36e2:	0011      	movs	r1, r2
    36e4:	2200      	movs	r2, #0
    36e6:	4c06      	ldr	r4, [pc, #24]	; (3700 <_read_r+0x24>)
    36e8:	6022      	str	r2, [r4, #0]
    36ea:	001a      	movs	r2, r3
    36ec:	f7fe fb10 	bl	1d10 <_read>
    36f0:	1c43      	adds	r3, r0, #1
    36f2:	d103      	bne.n	36fc <_read_r+0x20>
    36f4:	6823      	ldr	r3, [r4, #0]
    36f6:	2b00      	cmp	r3, #0
    36f8:	d000      	beq.n	36fc <_read_r+0x20>
    36fa:	602b      	str	r3, [r5, #0]
    36fc:	bd70      	pop	{r4, r5, r6, pc}
    36fe:	46c0      	nop			; (mov r8, r8)
    3700:	20000174 	.word	0x20000174

00003704 <CSWTCH.16>:
    3704:	00010000 00040000 00080000 00100000     ................
    3714:	00100000 00200000 00200000 00200000     ...... ... ... .
    3724:	00400000 00800000 42000800 42000c00     ..@........B...B
    3734:	42001000 42001400 42001800 42001c00     ...B...B...B...B

00003744 <DRONEDAD_BOOT_SIGNATURE>:
    3744:	1820addd 01000000 74697257 20676e69     .. .....Writing 
    3754:	4e206f74 52204d56 2520776f 000a0d64     to NVM Row %d...
    3764:	6c696146 77206465 69746972 6120676e     Failed writing a
    3774:	696c7070 69746163 74206e6f 564e206f     pplication to NV
    3784:	000d214d 6c696146 74206465 6e69206f     M!..Failed to in
    3794:	6c616974 20657a69 73616c46 656d2068     tialize Flash me
    37a4:	79726f6d 69686320 000d2e70 0a0d0a0d     mory chip.......
    37b4:	3d3d3d3d 4e4f5244 44414445 6f6f4220     ====DRONEDAD Boo
    37c4:	616f6c74 3d726564 0d3d3d3d 72704100     tloader====..Apr
    37d4:	20343220 38313032 3a373000 353a3930      24 2018.07:09:5
    37e4:	6f430039 6c69706d 25206465 73252073     9.Compiled %s %s
    37f4:	43000a0d 6b636568 20676e69 746f6f42     ...Checking Boot
    3804:	61745320 2e737574 000d2e2e 61766e49      Status.....Inva
    3814:	2064696c 746f6f62 67697320 7574616e     lid boot signatu
    3824:	202e6572 746f6f42 61745320 20737574     re. Boot Status 
    3834:	6e6e6163 6220746f 72742065 65747375     cannot be truste
    3844:	000d2e64 65747441 6974706d 4320676e     d...Attempting C
    3854:	63204352 6b636568 206e6f20 0d2e5746     RC check on FW..
    3864:	20574600 696c6176 52202e64 74657365     .FW valid. Reset
    3874:	20676e69 746f6f42 67697320 7574616e     ing Boot signatu
    3884:	61206572 7220646e 61747365 6e697472     re and restartin
    3894:	2e2e2e67 5746000d 766e6920 64696c61     g.....FW invalid
    38a4:	7441202e 706d6574 676e6974 206f7420     . Attempting to 
    38b4:	64616f6c 6c6f4720 206e6564 67616d49     load Golden Imag
    38c4:	42000d65 20746f6f 6e676953 72757461     e..Boot Signatur
    38d4:	61562065 2e64696c 7055000d 65746164     e Valid...Update
    38e4:	68635320 6c756465 202e6465 20776f4e      Scheduled. Now 
    38f4:	61647055 676e6974 0d2e2e2e 69614600     Updating.....Fai
    3904:	2064656c 75205746 74616470 46002165     led FW update!.F
    3914:	776d7269 20657261 61647055 53206574     irmware Update S
    3924:	65636375 75667373 000d2e6c 706d754a     uccessful...Jump
    3934:	20676e69 61206f74 696c7070 69746163     ing to applicati
    3944:	000d6e6f 74736552 69747261 2e2e676e     on..Restarting..
    3954:	6164002e 6c5f6174 253d6e65 000a0d64     ..data_len=%d...
    3964:	6c696146 46206465 6873616c 61655220     Failed Flash Rea
    3974:	25282064 0a0d2964 69614600 2064656c     d (%d)...Failed 
    3984:	204d564e 74697257 25282065 0a0d2964     NVM Write (%d)..
    3994:	253d6900 000a0d64                       .i=%d...

0000399c <_global_impure_ptr>:
    399c:	20000008                                ... 

000039a0 <__sf_fake_stderr>:
	...

000039c0 <__sf_fake_stdin>:
	...

000039e0 <__sf_fake_stdout>:
	...
    3a00:	2b302d23 6c680020 6665004c 47464567     #-0+ .hlL.efgEFG
    3a10:	32313000 36353433 41393837 45444342     .0123456789ABCDE
    3a20:	31300046 35343332 39383736 64636261     F.0123456789abcd
    3a30:	00006665                                ef..

00003a34 <_init>:
    3a34:	b5f8      	push	{r3, r4, r5, r6, r7, lr}
    3a36:	46c0      	nop			; (mov r8, r8)
    3a38:	bcf8      	pop	{r3, r4, r5, r6, r7}
    3a3a:	bc08      	pop	{r3}
    3a3c:	469e      	mov	lr, r3
    3a3e:	4770      	bx	lr

00003a40 <__init_array_start>:
    3a40:	000000dd 	.word	0x000000dd

00003a44 <_fini>:
    3a44:	b5f8      	push	{r3, r4, r5, r6, r7, lr}
    3a46:	46c0      	nop			; (mov r8, r8)
    3a48:	bcf8      	pop	{r3, r4, r5, r6, r7}
    3a4a:	bc08      	pop	{r3}
    3a4c:	469e      	mov	lr, r3
    3a4e:	4770      	bx	lr

00003a50 <__fini_array_start>:
    3a50:	000000b5 	.word	0x000000b5
